 rwgtex

 Timestamp is 51abb550 (Mon Jun 03 01:12:48 2013)

 Preferred load address is 00400000

 Start         Length     Name                   Class
 0001:00000000 002150c5H .text                   CODE
 0001:002150d0 000051bbH .text$x                 CODE
 0001:0021a290 0000189cH .text$yc                CODE
 0001:0021bb30 0000083eH .text$yd                CODE
 0002:00000000 000002c8H .idata$5                DATA
 0002:000002c8 00000004H .CRT$XCA                DATA
 0002:000002cc 000000d0H .CRT$XCU                DATA
 0002:0000039c 00000004H .CRT$XCZ                DATA
 0002:000003a0 00000004H .CRT$XIA                DATA
 0002:000003a4 00000014H .CRT$XIC                DATA
 0002:000003b8 00000004H .CRT$XIY                DATA
 0002:000003bc 00000004H .CRT$XIZ                DATA
 0002:000003c0 00000004H .CRT$XPA                DATA
 0002:000003c4 00000008H .CRT$XPX                DATA
 0002:000003cc 00000004H .CRT$XPXA               DATA
 0002:000003d0 00000004H .CRT$XPZ                DATA
 0002:000003d4 00000004H .CRT$XTA                DATA
 0002:000003d8 00000004H .CRT$XTZ                DATA
 0002:000003e0 000b74c8H .rdata                  DATA
 0002:000b78a8 00000038H .rdata$debug            DATA
 0002:000b78e0 00000550H .rdata$r                DATA
 0002:000b7e30 00000758H .rdata$sxdata           DATA
 0002:000b8588 00000004H .rtc$IAA                DATA
 0002:000b858c 00000004H .rtc$IZZ                DATA
 0002:000b8590 00000004H .rtc$TAA                DATA
 0002:000b8594 00000004H .rtc$TZZ                DATA
 0002:000b8598 0000724cH .xdata$x                DATA
 0002:000bf7e4 00000050H .idata$2                DATA
 0002:000bf834 00000014H .idata$3                DATA
 0002:000bf848 000002c8H .idata$4                DATA
 0002:000bfb10 00000de2H .idata$6                DATA
 0002:000c08f2 00000000H .edata                  DATA
 0003:00000000 0000b5b0H .data                   DATA
 0003:0000b5c0 00034e84H .bss                    DATA
 0004:00000000 00000250H .rsrc$01                DATA
 0004:00000250 0000b4a8H .rsrc$02                DATA

  Address         Publics by Value              Rva+Base       Lib:Object

 0000:00000000       __except_list              00000000     <absolute>
 0000:000001d6       ___safe_se_handler_count   000001d6     <absolute>
 0000:00000000       ___ImageBase               00400000     <linker-defined>
 0001:00000010       ?strstr@@YAPADPADPBD@Z     00401010 f i cmd.obj
 0001:00000020       ??0bad_alloc@std@@QAE@PBD@Z 00401020 f i cmd.obj
 0001:00000040       ??1bad_alloc@std@@UAE@XZ   00401040 f i cmd.obj
 0001:00000050       ??_Ebad_alloc@std@@UAEPAXI@Z 00401050 f i cmd.obj
 0001:00000050       ??_Gbad_alloc@std@@UAEPAXI@Z 00401050 f i cmd.obj
 0001:00000080       ?assign@?$char_traits@D@std@@SAXAADABD@Z 00401080 f i cmd.obj
 0001:00000090       ?length@?$char_traits@D@std@@SAIPBD@Z 00401090 f i cmd.obj
 0001:000000b0       ?_Copy_s@?$char_traits@D@std@@SAPADPADIPBDI@Z 004010b0 f i cmd.obj
 0001:000000e0       ??_H@YGXPAXIHP6EPAX0@Z@Z   004010e0 f i cmd.obj
 0001:00000120       ?strlcat@@YAIPADPBDI@Z     00401120 f   cmd.obj
 0001:000001a0       ?strlcpy@@YAIPADPBDI@Z     004011a0 f   cmd.obj
 0001:000001f0       ?Print@@YAXPADZZ           004011f0 f   cmd.obj
 0001:00000210       ?Verbose@@YAXPADZZ         00401210 f   cmd.obj
 0001:00000240       ?PercentPacifier@@YAXPADZZ 00401240 f   cmd.obj
 0001:000002c0       ?Pacifier@@YAXPADZZ        004012c0 f   cmd.obj
 0001:00000330       ?SimplePacifier@@YAXXZ     00401330 f   cmd.obj
 0001:00000380       ?PacifierEnd@@YAXXZ        00401380 f   cmd.obj
 0001:000003a0       ?Warning@@YAXPADZZ         004013a0 f   cmd.obj
 0001:00000400       ?Error@@YAXPADZZ           00401400 f   cmd.obj
 0001:000004e0       ?I_DoubleTime@@YANXZ       004014e0 f   cmd.obj
 0001:00000570       ?Q_mkdir@@YAXPAD@Z         00401570 f   cmd.obj
 0001:000005b0       ?AddSlash@@YAXPAD@Z        004015b0 f   cmd.obj
 0001:000005f0       ?CreatePath@@YAXPAD@Z      004015f0 f   cmd.obj
 0001:00000750       ?GetDirectory@@YAXPADH@Z   00401750 f   cmd.obj
 0001:00000760       ?GetRealPath@@YAXPAD0@Z    00401760 f   cmd.obj
 0001:00000800       ?TempFileName@@YAXPAD@Z    00401800 f   cmd.obj
 0001:00000890       ?FileTime@@YAHPAD@Z        00401890 f   cmd.obj
 0001:000008c0       ?COM_Parse@@YAPADPAD@Z     004018c0 f   cmd.obj
 0001:00000a00       ?Q_strncasecmp@@YAHPAD0H@Z 00401a00 f   cmd.obj
 0001:00000a60       ?Q_strcasecmp@@YAHPAD0@Z   00401a60 f   cmd.obj
 0001:00000a80       ?Q_strupr@@YAPADPAD@Z      00401a80 f   cmd.obj
 0001:00000ab0       ?Q_strlower@@YAPADPAD@Z    00401ab0 f   cmd.obj
 0001:00000ae0       ?unixtowin@@YAEE@Z         00401ae0 f   cmd.obj
 0001:00000af0       ?wintounix@@YAEE@Z         00401af0 f   cmd.obj
 0001:00000b00       ?dotconv@@YAEE@Z           00401b00 f   cmd.obj
 0001:00000b10       ?ConvSlashU2W@@YAPADPAD@Z  00401b10 f   cmd.obj
 0001:00000b40       ?ConvSlashW2U@@YAPADPAD@Z  00401b40 f   cmd.obj
 0001:00000b70       ?ConvDot@@YAPADPAD@Z       00401b70 f   cmd.obj
 0001:00000ba0       ?CheckParm@@YA_NPAD@Z      00401ba0 f   cmd.obj
 0001:00000d00       ?Q_filelength@@YAIPAU_iobuf@@@Z 00401d00 f   cmd.obj
 0001:00000d40       ?FileSize@@YAIPBD@Z        00401d40 f   cmd.obj
 0001:00000d80       ?SafeOpen@@YAPAU_iobuf@@PADQAD@Z 00401d80 f   cmd.obj
 0001:00000dc0       ?SafeRead@@YAXPAU_iobuf@@PAXH@Z 00401dc0 f   cmd.obj
 0001:00000df0       ?SafeWrite@@YAXPAU_iobuf@@PAXH@Z 00401df0 f   cmd.obj
 0001:00000e20       ?LoadFile@@YAHPADPAPAE@Z   00401e20 f   cmd.obj
 0001:00000ed0       ?LoadFileUnsafe@@YAHPADPAPAE@Z 00401ed0 f   cmd.obj
 0001:00000f60       ?DefaultPath@@YAXPAD0@Z    00401f60 f   cmd.obj
 0001:00000ff0       ?ReplaceExtension@@YAXPAD000@Z 00401ff0 f   cmd.obj
 0001:000010c0       ?DefaultExtension@@YAXPADPBDI@Z 004020c0 f   cmd.obj
 0001:00001110       ?ExtractFilePath@@YAXPAD0@Z 00402110 f   cmd.obj
 0001:00001170       ?ExtractFileBase@@YAXPAD0@Z 00402170 f   cmd.obj
 0001:000011d0       ?ExtractFileName@@YAXPAD0@Z 004021d0 f   cmd.obj
 0001:00001230       ?ExtractFileSuffix@@YAXPAD0D@Z 00402230 f   cmd.obj
 0001:00001290       ?StripFileExtension@@YAXPAD0@Z 00402290 f   cmd.obj
 0001:000012e0       ?ExtractFileExtension@@YAXPAD0@Z 004022e0 f   cmd.obj
 0001:00001340       ?AddSuffix@@YAXPAD00@Z     00402340 f   cmd.obj
 0001:00001430       ?FileExists@@YA_NPAD@Z     00402430 f   cmd.obj
 0001:00001450       ?ParseHex@@YAHPAD@Z        00402450 f   cmd.obj
 0001:000014c0       ?ParseNum@@YAHPAD@Z        004024c0 f   cmd.obj
 0001:00001500       ?ReadInt@@YAHPAE@Z         00402500 f   cmd.obj
 0001:00001510       ?ReadUInt@@YAIPAE@Z        00402510 f   cmd.obj
 0001:00001540       ?ReadUShort@@YAIPAE@Z      00402540 f   cmd.obj
 0001:00001560       ?ReadShort@@YAHPAE@Z       00402560 f   cmd.obj
 0001:00001580       ?ReadSignedByte@@YAHPAE@Z  00402580 f   cmd.obj
 0001:00001590       ?BigShort@@YAFF@Z          00402590 f   cmd.obj
 0001:000015b0       ?LittleShort@@YAFF@Z       004025b0 f   cmd.obj
 0001:000015c0       ?BigLong@@YAHH@Z           004025c0 f   cmd.obj
 0001:000015f0       ?LittleLong@@YAHH@Z        004025f0 f   cmd.obj
 0001:00001600       ?BigFloat@@YAMM@Z          00402600 f   cmd.obj
 0001:00001630       ?FreeWrappedFiles@@YAXXZ   00402630 f   cmd.obj
 0001:00001680       ?CountWrappedFiles@@YAHXZ  00402680 f   cmd.obj
 0001:000016a0       ?LoadWrappedFile@@YAHHPAPAEPAPAD@Z 004026a0 f   cmd.obj
 0001:00001750       ?WrapFileWritesToMemory@@YAXXZ 00402750 f   cmd.obj
 0001:00001760       ?SafeOpenWrite@@YAPAU_iobuf@@PAD@Z 00402760 f   cmd.obj
 0001:000018e0       ?OpenReadWrite@@YAPAU_iobuf@@PAD@Z 004028e0 f   cmd.obj
 0001:00001950       ?WriteClose@@YAXPAU_iobuf@@@Z 00402950 f   cmd.obj
 0001:00001990       ?CRC_Init@@YAXPAG@Z        00402990 f   cmd.obj
 0001:000019a0       ?CRC_ProcessByte@@YAXPAGE@Z 004029a0 f   cmd.obj
 0001:000019d0       ?CRC_Value@@YAGG@Z         004029d0 f   cmd.obj
 0001:000019e0       ?crc32_init@@YAXXZ         004029e0 f   cmd.obj
 0001:00001a80       ?crc32@@YAIPAEI@Z          00402a80 f   cmd.obj
 0001:00001ac0       ?size@?$basic_string@DU?$char_traits@D@std@@V?$allocator@D@2@@std@@QBEIXZ 00402ac0 f i cmd.obj
 0001:00001ad0       ?_Myptr@?$basic_string@DU?$char_traits@D@std@@V?$allocator@D@2@@std@@IBEPBDXZ 00402ad0 f i cmd.obj
 0001:00001ae0       ?_Myptr@?$basic_string@DU?$char_traits@D@std@@V?$allocator@D@2@@std@@IAEPADXZ 00402ae0 f i cmd.obj
 0001:00001af0       ?deallocate@?$allocator@D@std@@QAEXPADI@Z 00402af0 f i cmd.obj
 0001:00001b00       ?max_size@?$allocator@D@std@@QBEIXZ 00402b00 f i cmd.obj
 0001:00001b10       ??$_Allocate@D@std@@YAPADIPAD@Z 00402b10 f i cmd.obj
 0001:00001b70       ??0bad_alloc@std@@QAE@ABV01@@Z 00402b70 f i cmd.obj
 0001:00001b90       ??$_Char_traits_cat@U?$char_traits@D@std@@@std@@YA?AU_Secure_char_traits_tag@0@XZ 00402b90 f i cmd.obj
 0001:00001ba0       ??$copy_s@U?$char_traits@D@std@@@_Traits_helper@std@@YAPADPADIPBDIU_Secure_char_traits_tag@1@@Z 00402ba0 f i cmd.obj
 0001:00001bd0       ?ChangeDirectory@@YAXPAD@Z 00402bd0 f   cmd.obj
 0001:00001c30       ?c_str@?$basic_string@DU?$char_traits@D@std@@V?$allocator@D@2@@std@@QBEPBDXZ 00402c30 f i cmd.obj
 0001:00001c40       ?_Eos@?$basic_string@DU?$char_traits@D@std@@V?$allocator@D@2@@std@@IAEXI@Z 00402c40 f i cmd.obj
 0001:00001c60       ?_Inside@?$basic_string@DU?$char_traits@D@std@@V?$allocator@D@2@@std@@IAE_NPBD@Z 00402c60 f i cmd.obj
 0001:00001ca0       ?max_size@?$basic_string@DU?$char_traits@D@std@@V?$allocator@D@2@@std@@QBEIXZ 00402ca0 f i cmd.obj
 0001:00001cb0       ?allocate@?$allocator@D@std@@QAEPADI@Z 00402cb0 f i cmd.obj
 0001:00001cd0       ??$copy_s@U?$char_traits@D@std@@@_Traits_helper@std@@YAPADPADIPBDI@Z 00402cd0 f i cmd.obj
 0001:00001d00       ?_Tidy@?$basic_string@DU?$char_traits@D@std@@V?$allocator@D@2@@std@@IAEX_NI@Z 00402d00 f i cmd.obj
 0001:00001d50       ?_Copy@?$basic_string@DU?$char_traits@D@std@@V?$allocator@D@2@@std@@IAEXII@Z 00402d50 f i cmd.obj
 0001:00001e90       ?_Grow@?$basic_string@DU?$char_traits@D@std@@V?$allocator@D@2@@std@@IAE_NI_N@Z 00402e90 f i cmd.obj
 0001:00001f50       ?append@?$basic_string@DU?$char_traits@D@std@@V?$allocator@D@2@@std@@QAEAAV12@ABV12@II@Z 00402f50 f i cmd.obj
 0001:00002050       ?append@?$basic_string@DU?$char_traits@D@std@@V?$allocator@D@2@@std@@QAEAAV12@PBDI@Z 00403050 f i cmd.obj
 0001:00002160       ?append@?$basic_string@DU?$char_traits@D@std@@V?$allocator@D@2@@std@@QAEAAV12@PBD@Z 00403160 f i cmd.obj
 0001:00002190       ?AddSlash@@YAXAAV?$basic_string@DU?$char_traits@D@std@@V?$allocator@D@2@@std@@@Z 00403190 f   cmd.obj
 0001:000021f0       ??2@YAPAXIPAX@Z            004031f0 f i codec_dxt.obj
 0001:00002200       ??3@YAXPAX0@Z              00403200 f i codec_dxt.obj
 0001:00002210       ?_Move_s@?$char_traits@D@std@@SAPADPADIPBDI@Z 00403210 f i codec_dxt.obj
 0001:00002240       ??0_Aux_cont@std@@QAE@QBV_Container_base_aux@1@@Z 00403240 f i codec_dxt.obj
 0001:00002250       ??0_Container_base_aux@std@@QAE@XZ 00403250 f i codec_dxt.obj
 0001:00002260       ??1_Container_base_aux@std@@QAE@XZ 00403260 f i codec_dxt.obj
 0001:00002270       ?CodecDXT_Init@@YAXXZ      00403270 f   codec_dxt.obj
 0001:000022b0       ?CodecDXT_Option@@YAXPBD000H@Z 004032b0 f   codec_dxt.obj
 0001:00002300       ?CodecDXT_Load@@YAXXZ      00403300 f   codec_dxt.obj
 0001:00002320       ?CodecDXT_Encode@@YAXPAUTexEncodeTask_s@@@Z 00403320 f   codec_dxt.obj
 0001:000023c0       ?CodecDXT_Decode@@YAXPAUTexDecodeTask_s@@@Z 004033c0 f   codec_dxt.obj
 0001:00002450       ?Swizzle_Premult@@YAXPAULoadedImage_s@@_N@Z 00403450 f   codec_dxt.obj
 0001:000026a0       ?Swizzle_XGBR@@YAXPAULoadedImage_s@@_N@Z 004036a0 f   codec_dxt.obj
 0001:00002730       ?Swizzle_AGBR@@YAXPAULoadedImage_s@@_N@Z 00403730 f   codec_dxt.obj
 0001:000027c0       ?Swizzle_YCoCg@@YAXPAULoadedImage_s@@_N@Z 004037c0 f   codec_dxt.obj
 0001:00002a50       ?Swizzle_YCoCgScaled@@YAXPAULoadedImage_s@@_N@Z 00403a50 f   codec_dxt.obj
 0001:00002ca0       ??0?$allocator@D@std@@QAE@XZ 00403ca0 f i codec_dxt.obj
 0001:00002cb0       ??0?$allocator@UCompareOption@@@std@@QAE@XZ 00403cb0 f i codec_dxt.obj
 0001:00002cc0       ??0?$allocator@PAUTexFormat_s@@@std@@QAE@XZ 00403cc0 f i codec_dxt.obj
 0001:00002cd0       ??0?$allocator@PAUTexTool_s@@@std@@QAE@XZ 00403cd0 f i codec_dxt.obj
 0001:00002ce0       ??0?$allocator@D@std@@QAE@ABV01@@Z 00403ce0 f i codec_dxt.obj
 0001:00002cf0       ?deallocate@?$allocator@V_Aux_cont@std@@@std@@QAEXPAV_Aux_cont@2@I@Z 00403cf0 f i codec_dxt.obj
 0001:00002d00       ??0?$allocator@UCompareOption@@@std@@QAE@ABV01@@Z 00403d00 f i codec_dxt.obj
 0001:00002d10       ?deallocate@?$allocator@UCompareOption@@@std@@QAEXPAUCompareOption@@I@Z 00403d10 f i codec_dxt.obj
 0001:00002d20       ??0?$allocator@PAUTexFormat_s@@@std@@QAE@ABV01@@Z 00403d20 f i codec_dxt.obj
 0001:00002d30       ?deallocate@?$allocator@PAUTexFormat_s@@@std@@QAEXPAPAUTexFormat_s@@I@Z 00403d30 f i codec_dxt.obj
 0001:00002d40       ??0?$allocator@PAUTexTool_s@@@std@@QAE@ABV01@@Z 00403d40 f i codec_dxt.obj
 0001:00002d50       ?deallocate@?$allocator@PAUTexTool_s@@@std@@QAEXPAPAUTexTool_s@@I@Z 00403d50 f i codec_dxt.obj
 0001:00002d60       ?max_size@?$allocator@UCompareOption@@@std@@QBEIXZ 00403d60 f i codec_dxt.obj
 0001:00002d70       ?max_size@?$allocator@PAUTexFormat_s@@@std@@QBEIXZ 00403d70 f i codec_dxt.obj
 0001:00002d80       ?max_size@?$allocator@PAUTexTool_s@@@std@@QBEIXZ 00403d80 f i codec_dxt.obj
 0001:00002d90       ??$?0UCompareOption@@@?$allocator@V_Aux_cont@std@@@std@@QAE@ABV?$allocator@UCompareOption@@@1@@Z 00403d90 f i codec_dxt.obj
 0001:00002da0       ??$_Allocate@UCompareOption@@@std@@YAPAUCompareOption@@IPAU1@@Z 00403da0 f i codec_dxt.obj
 0001:00002e10       ??$?0PAUTexFormat_s@@@?$allocator@V_Aux_cont@std@@@std@@QAE@ABV?$allocator@PAUTexFormat_s@@@1@@Z 00403e10 f i codec_dxt.obj
 0001:00002e20       ??$_Allocate@PAUTexFormat_s@@@std@@YAPAPAUTexFormat_s@@IPAPAU1@@Z 00403e20 f i codec_dxt.obj
 0001:00002e80       ??$?0PAUTexTool_s@@@?$allocator@V_Aux_cont@std@@@std@@QAE@ABV?$allocator@PAUTexTool_s@@@1@@Z 00403e80 f i codec_dxt.obj
 0001:00002e90       ??$_Allocate@PAUTexTool_s@@@std@@YAPAPAUTexTool_s@@IPAPAU1@@Z 00403e90 f i codec_dxt.obj
 0001:00002ef0       ??$_Allocate@V_Aux_cont@std@@@std@@YAPAV_Aux_cont@0@IPAV10@@Z 00403ef0 f i codec_dxt.obj
 0001:00002f50       ??$move_s@U?$char_traits@D@std@@@_Traits_helper@std@@YAPADPADIPBDIU_Secure_char_traits_tag@1@@Z 00403f50 f i codec_dxt.obj
 0001:00002f80       ??$_Ptr_cat@PAUCompareOption@@PAU1@@std@@YA?AU_Nonscalar_ptr_iterator_tag@0@AAPAUCompareOption@@0@Z 00403f80 f i codec_dxt.obj
 0001:00002f90       ??$_Ptr_cat@PAPAUTexFormat_s@@PAPAU1@@std@@YA?AU_Scalar_ptr_iterator_tag@0@AAPAPAUTexFormat_s@@0@Z 00403f90 f i codec_dxt.obj
 0001:00002fa0       ??$_Destroy_range@V?$allocator@PAUTexFormat_s@@@std@@@std@@YAXPAPAUTexFormat_s@@0AAV?$allocator@PAUTexFormat_s@@@0@U_Scalar_ptr_iterator_tag@0@@Z 00403fa0 f i codec_dxt.obj
 0001:00002fb0       ??$_Ptr_cat@PAPAUTexTool_s@@PAPAU1@@std@@YA?AU_Scalar_ptr_iterator_tag@0@AAPAPAUTexTool_s@@0@Z 00403fb0 f i codec_dxt.obj
 0001:00002fc0       ??$_Destroy_range@V?$allocator@PAUTexTool_s@@@std@@@std@@YAXPAPAUTexTool_s@@0AAV?$allocator@PAUTexTool_s@@@0@U_Scalar_ptr_iterator_tag@0@@Z 00403fc0 f i codec_dxt.obj
 0001:00002fd0       ??0?$_String_val@DV?$allocator@D@std@@@std@@IAE@V?$allocator@D@1@@Z 00403fd0 f i codec_dxt.obj
 0001:00002fe0       ??0?$_String_val@DV?$allocator@D@std@@@std@@QAE@ABV01@@Z 00403fe0 f i codec_dxt.obj
 0001:00002ff0       ??1?$_Container_base_aux_alloc_real@V?$allocator@UCompareOption@@@std@@@std@@IAE@XZ 00403ff0 f i codec_dxt.obj
 0001:00003000       ??1?$_Container_base_aux_alloc_real@V?$allocator@PAUTexFormat_s@@@std@@@std@@IAE@XZ 00404000 f i codec_dxt.obj
 0001:00003010       ??1?$_Container_base_aux_alloc_real@V?$allocator@PAUTexTool_s@@@std@@@std@@IAE@XZ 00404010 f i codec_dxt.obj
 0001:00003020       ?max_size@?$vector@UCompareOption@@V?$allocator@UCompareOption@@@std@@@std@@QBEIXZ 00404020 f i codec_dxt.obj
 0001:00003030       ?allocate@?$allocator@UCompareOption@@@std@@QAEPAUCompareOption@@I@Z 00404030 f i codec_dxt.obj
 0001:00003050       ?max_size@?$vector@PAUTexFormat_s@@V?$allocator@PAUTexFormat_s@@@std@@@std@@QBEIXZ 00404050 f i codec_dxt.obj
 0001:00003060       ?allocate@?$allocator@PAUTexFormat_s@@@std@@QAEPAPAUTexFormat_s@@I@Z 00404060 f i codec_dxt.obj
 0001:00003080       ?max_size@?$vector@PAUTexTool_s@@V?$allocator@PAUTexTool_s@@@std@@@std@@QBEIXZ 00404080 f i codec_dxt.obj
 0001:00003090       ?allocate@?$allocator@PAUTexTool_s@@@std@@QAEPAPAUTexTool_s@@I@Z 00404090 f i codec_dxt.obj
 0001:000030b0       ?allocate@?$allocator@V_Aux_cont@std@@@std@@QAEPAV_Aux_cont@2@I@Z 004040b0 f i codec_dxt.obj
 0001:000030d0       ??$move_s@U?$char_traits@D@std@@@_Traits_helper@std@@YAPADPADIPBDI@Z 004040d0 f i codec_dxt.obj
 0001:00003100       ??$_Destroy_range@V?$allocator@PAUTexFormat_s@@@std@@@std@@YAXPAPAUTexFormat_s@@0AAV?$allocator@PAUTexFormat_s@@@0@@Z 00404100 f i codec_dxt.obj
 0001:00003110       ??$_Destroy_range@V?$allocator@PAUTexTool_s@@@std@@@std@@YAXPAPAUTexTool_s@@0AAV?$allocator@PAUTexTool_s@@@0@@Z 00404110 f i codec_dxt.obj
 0001:00003120       ??1?$_Vector_val@UCompareOption@@V?$allocator@UCompareOption@@@std@@@std@@QAE@XZ 00404120 f i codec_dxt.obj
 0001:00003130       ??1?$_Vector_val@PAUTexFormat_s@@V?$allocator@PAUTexFormat_s@@@std@@@std@@QAE@XZ 00404130 f i codec_dxt.obj
 0001:00003140       ??1?$_Vector_val@PAUTexTool_s@@V?$allocator@PAUTexTool_s@@@std@@@std@@QAE@XZ 00404140 f i codec_dxt.obj
 0001:00003150       ?erase@?$basic_string@DU?$char_traits@D@std@@V?$allocator@D@2@@std@@QAEAAV12@II@Z 00404150 f i codec_dxt.obj
 0001:000031e0       ??0?$_Container_base_aux_alloc_real@V?$allocator@UCompareOption@@@std@@@std@@IAE@V?$allocator@UCompareOption@@@1@@Z 004041e0 f i codec_dxt.obj
 0001:00003210       ?_Destroy@?$vector@PAUTexFormat_s@@V?$allocator@PAUTexFormat_s@@@std@@@std@@IAEXPAPAUTexFormat_s@@0@Z 00404210 f i codec_dxt.obj
 0001:00003220       ??0?$_Container_base_aux_alloc_real@V?$allocator@PAUTexFormat_s@@@std@@@std@@IAE@V?$allocator@PAUTexFormat_s@@@1@@Z 00404220 f i codec_dxt.obj
 0001:00003250       ?_Destroy@?$vector@PAUTexTool_s@@V?$allocator@PAUTexTool_s@@@std@@@std@@IAEXPAPAUTexTool_s@@0@Z 00404250 f i codec_dxt.obj
 0001:00003260       ??0?$_Container_base_aux_alloc_real@V?$allocator@PAUTexTool_s@@@std@@@std@@IAE@V?$allocator@PAUTexTool_s@@@1@@Z 00404260 f i codec_dxt.obj
 0001:00003290       ??1?$basic_string@DU?$char_traits@D@std@@V?$allocator@D@2@@std@@QAE@XZ 00404290 f i codec_dxt.obj
 0001:000032c0       ??0?$_Vector_val@UCompareOption@@V?$allocator@UCompareOption@@@std@@@std@@IAE@V?$allocator@UCompareOption@@@1@@Z 004042c0 f i codec_dxt.obj
 0001:000032f0       ?_Tidy@?$vector@PAUTexFormat_s@@V?$allocator@PAUTexFormat_s@@@std@@@std@@IAEXXZ 004042f0 f i codec_dxt.obj
 0001:00003320       ??0?$_Vector_val@PAUTexFormat_s@@V?$allocator@PAUTexFormat_s@@@std@@@std@@IAE@V?$allocator@PAUTexFormat_s@@@1@@Z 00404320 f i codec_dxt.obj
 0001:00003350       ?_Tidy@?$vector@PAUTexTool_s@@V?$allocator@PAUTexTool_s@@@std@@@std@@IAEXXZ 00404350 f i codec_dxt.obj
 0001:00003380       ??0?$_Vector_val@PAUTexTool_s@@V?$allocator@PAUTexTool_s@@@std@@@std@@IAE@V?$allocator@PAUTexTool_s@@@1@@Z 00404380 f i codec_dxt.obj
 0001:000033b0       ??1CompareOption@@QAE@XZ   004043b0 f i codec_dxt.obj
 0001:00003400       ??1logic_error@std@@UAE@XZ 00404400 f i codec_dxt.obj
 0001:00003440       ?what@logic_error@std@@UBEPBDXZ 00404440 f i codec_dxt.obj
 0001:00003450       ??_Elogic_error@std@@UAEPAXI@Z 00404450 f i codec_dxt.obj
 0001:00003450       ??_Glogic_error@std@@UAEPAXI@Z 00404450 f i codec_dxt.obj
 0001:000034a0       ??1?$vector@PAUTexFormat_s@@V?$allocator@PAUTexFormat_s@@@std@@@std@@QAE@XZ 004044a0 f i codec_dxt.obj
 0001:000034e0       ??1?$vector@PAUTexTool_s@@V?$allocator@PAUTexTool_s@@@std@@@std@@QAE@XZ 004044e0 f i codec_dxt.obj
 0001:00003520       ?assign@?$basic_string@DU?$char_traits@D@std@@V?$allocator@D@2@@std@@QAEAAV12@ABV12@II@Z 00404520 f i codec_dxt.obj
 0001:00003600       ?assign@?$basic_string@DU?$char_traits@D@std@@V?$allocator@D@2@@std@@QAEAAV12@PBDI@Z 00404600 f i codec_dxt.obj
 0001:000036e0       ??_GCompareOption@@QAEPAXI@Z 004046e0 f i codec_dxt.obj
 0001:00003740       ??0?$basic_string@DU?$char_traits@D@std@@V?$allocator@D@2@@std@@QAE@ABV01@@Z 00404740 f i codec_dxt.obj
 0001:00003770       ?assign@?$basic_string@DU?$char_traits@D@std@@V?$allocator@D@2@@std@@QAEAAV12@PBD@Z 00404770 f i codec_dxt.obj
 0001:000037a0       ??$_Destroy@UCompareOption@@@std@@YAXPAUCompareOption@@@Z 004047a0 f i codec_dxt.obj
 0001:000037f0       ??0logic_error@std@@QAE@ABV?$basic_string@DU?$char_traits@D@std@@V?$allocator@D@2@@1@@Z 004047f0 f i codec_dxt.obj
 0001:00003860       ??0length_error@std@@QAE@ABV?$basic_string@DU?$char_traits@D@std@@V?$allocator@D@2@@1@@Z 00404860 f i codec_dxt.obj
 0001:00003880       ??1length_error@std@@UAE@XZ 00404880 f i codec_dxt.obj
 0001:000038c0       ??_Elength_error@std@@UAEPAXI@Z 004048c0 f i codec_dxt.obj
 0001:000038c0       ??_Glength_error@std@@UAEPAXI@Z 004048c0 f i codec_dxt.obj
 0001:00003910       ??0?$basic_string@DU?$char_traits@D@std@@V?$allocator@D@2@@std@@QAE@PBD@Z 00404910 f i codec_dxt.obj
 0001:00003950       ?_Xlen@?$vector@UCompareOption@@V?$allocator@UCompareOption@@@std@@@std@@KAXXZ 00404950 f i codec_dxt.obj
 0001:000039d0       ??0logic_error@std@@QAE@ABV01@@Z 004049d0 f i codec_dxt.obj
 0001:00003a50       ?_Xlen@?$vector@PAUTexFormat_s@@V?$allocator@PAUTexFormat_s@@@std@@@std@@KAXXZ 00404a50 f i codec_dxt.obj
 0001:00003ad0       ?_Xlen@?$vector@PAUTexTool_s@@V?$allocator@PAUTexTool_s@@@std@@@std@@KAXXZ 00404ad0 f i codec_dxt.obj
 0001:00003b50       ??0length_error@std@@QAE@ABV01@@Z 00404b50 f i codec_dxt.obj
 0001:00003b70       ?destroy@?$allocator@UCompareOption@@@std@@QAEXPAUCompareOption@@@Z 00404b70 f i codec_dxt.obj
 0001:00003bc0       ?_Buy@?$vector@UCompareOption@@V?$allocator@UCompareOption@@@std@@@std@@IAE_NI@Z 00404bc0 f i codec_dxt.obj
 0001:00003c20       ?_Buy@?$vector@PAUTexFormat_s@@V?$allocator@PAUTexFormat_s@@@std@@@std@@IAE_NI@Z 00404c20 f i codec_dxt.obj
 0001:00003c70       ?_Buy@?$vector@PAUTexTool_s@@V?$allocator@PAUTexTool_s@@@std@@@std@@IAE_NI@Z 00404c70 f i codec_dxt.obj
 0001:00003cc0       ??$_Destroy_range@V?$allocator@UCompareOption@@@std@@@std@@YAXPAUCompareOption@@0AAV?$allocator@UCompareOption@@@0@U_Nonscalar_ptr_iterator_tag@0@@Z 00404cc0 f i codec_dxt.obj
 0001:00003d20       ??0?$vector@UCompareOption@@V?$allocator@UCompareOption@@@std@@@std@@QAE@XZ 00404d20 f i codec_dxt.obj
 0001:00003d80       ??0?$vector@PAUTexFormat_s@@V?$allocator@PAUTexFormat_s@@@std@@@std@@QAE@XZ 00404d80 f i codec_dxt.obj
 0001:00003de0       ??0?$vector@PAUTexTool_s@@V?$allocator@PAUTexTool_s@@@std@@@std@@QAE@XZ 00404de0 f i codec_dxt.obj
 0001:00003e40       ??$_Destroy_range@V?$allocator@UCompareOption@@@std@@@std@@YAXPAUCompareOption@@0AAV?$allocator@UCompareOption@@@0@@Z 00404e40 f i codec_dxt.obj
 0001:00003e60       ?_Destroy@?$vector@UCompareOption@@V?$allocator@UCompareOption@@@std@@@std@@IAEXPAUCompareOption@@0@Z 00404e60 f i codec_dxt.obj
 0001:00003e80       ?_Tidy@?$vector@UCompareOption@@V?$allocator@UCompareOption@@@std@@@std@@IAEXXZ 00404e80 f i codec_dxt.obj
 0001:00003ed0       ??1?$vector@UCompareOption@@V?$allocator@UCompareOption@@@std@@@std@@QAE@XZ 00404ed0 f i codec_dxt.obj
 0001:00003f20       ??1TexFormat_s@@QAE@XZ     00404f20 f i codec_dxt.obj
 0001:00003f30       ??1TexCodec_s@@QAE@XZ      00404f30 f i codec_dxt.obj
 0001:00003f90       ?CodecETC1_Init@@YAXXZ     00404f90 f   codec_etc1.obj
 0001:00003fd0       ?CodecETC1_Option@@YAXPBD000H@Z 00404fd0 f   codec_etc1.obj
 0001:00003fe0       ?CodecETC1_Load@@YAXXZ     00404fe0 f   codec_etc1.obj
 0001:00003ff0       ?CodecETC1_Encode@@YAXPAUTexEncodeTask_s@@@Z 00404ff0 f   codec_etc1.obj
 0001:00004020       ?CodecETC1_Decode@@YAXPAUTexDecodeTask_s@@@Z 00405020 f   codec_etc1.obj
 0001:00004140       ?CodecETC2_Init@@YAXXZ     00405140 f   codec_etc2.obj
 0001:00004160       ?CodecETC2_Option@@YAXPBD000H@Z 00405160 f   codec_etc2.obj
 0001:00004170       ?CodecETC2_Load@@YAXXZ     00405170 f   codec_etc2.obj
 0001:00004180       ?CodecETC2_Encode@@YAXPAUTexEncodeTask_s@@@Z 00405180 f   codec_etc2.obj
 0001:00004190       _floorf                    00405190 f i codec_unc.obj
 0001:000041b0       ?floor@@YAMM@Z             004051b0 f i codec_unc.obj
 0001:000041d0       ?CodecBGRA_Init@@YAXXZ     004051d0 f   codec_unc.obj
 0001:000041f0       ?CodecBGRA_Option@@YAXPBD000H@Z 004051f0 f   codec_unc.obj
 0001:00004200       ?CodecBGRA_Load@@YAXXZ     00405200 f   codec_unc.obj
 0001:00004210       ?CodecBGRA_Encode@@YAXPAUTexEncodeTask_s@@@Z 00405210 f   codec_unc.obj
 0001:00004230       ?CodecBGRA_Decode@@YAXPAUTexDecodeTask_s@@@Z 00405230 f   codec_unc.obj
 0001:00004270       ?Swizzle_AlphaInRGB6@@YAXPAULoadedImage_s@@_N@Z 00405270 f   codec_unc.obj
 0001:000044f0       ?Swizzle_AlphaInRGB3@@YAXPAULoadedImage_s@@_N@Z 004054f0 f   codec_unc.obj
 0001:00004760       ?Swizzle_AlphaInRGB1@@YAXPAULoadedImage_s@@_N@Z 00405760 f   codec_unc.obj
 0001:000048c0       ?CalcCrc32@@YAXEAAK@Z      004058c0 f i crc32.obj
 0001:000048f0       ?GetFileSizeQW@@YA_NQAXAA_J@Z 004058f0 f   crc32.obj
 0001:00004950       ?FileCrc32Win32@@YAKPBDAAK@Z 00405950 f   crc32.obj
 0001:00004a50       ?FileCrc32Filemap@@YAKPBDAAK@Z 00405a50 f   crc32.obj
 0001:00004c00       ?FileCrc32Assembly@@YAKPBDAAK@Z 00405c00 f   crc32.obj
 0001:00004d10       ?UnloadDll@@YAXPAPAUHINSTANCE__@@@Z 00405d10 f   dll.obj
 0001:00004d30       ?DllGetProcAddress@@YAPAXPAUHINSTANCE__@@PBD@Z 00405d30 f   dll.obj
 0001:00004dd0       ?LoadDll@@YA_NPAPBDPAPAUHINSTANCE__@@PBUdllfunction_s@@_N@Z 00405dd0 f   dll.obj
 0001:00004f20       ?DDS_Scan@@YA_NPAE@Z       00405f20 f   file_dds.obj
 0001:00004f30       ?DDS_HeaderSize@@YAIXZ     00405f30 f   file_dds.obj
 0001:00004f40       ?DDS_PrintHeader@@YAXPAE@Z 00405f40 f   file_dds.obj
 0001:00005030       ?DDS_Write@@YAPAEPAEPAULoadedImage_s@@PAUTexFormat_s@@@Z 00406030 f   file_dds.obj
 0001:00005170       ?DDS_Read@@YA_NPAUTexDecodeTask_s@@@Z 00406170 f   file_dds.obj
 0001:000052e0       ?KTX_Scan@@YA_NPAE@Z       004062e0 f   file_ktx.obj
 0001:00005310       ?KTX_HeaderSize@@YAIXZ     00406310 f   file_ktx.obj
 0001:00005320       ?KTX_PrintHeader@@YAXPAE@Z 00406320 f   file_ktx.obj
 0001:00005330       ?KTX_Write@@YAPAEPAEPAULoadedImage_s@@PAUTexFormat_s@@@Z 00406330 f   file_ktx.obj
 0001:00005340       ?KTX_Read@@YA_NPAUTexDecodeTask_s@@@Z 00406340 f   file_ktx.obj
 0001:00005350       ?fiGetSize@@YAIPAUFIBITMAP@@@Z 00406350 f   freeimage.obj
 0001:000053a0       ?_fiFree@@YAPAUFIBITMAP@@PAU1@PADH@Z 004063a0 f   freeimage.obj
 0001:000053d0       ?fiCreate@@YAPAUFIBITMAP@@HHH@Z 004063d0 f   freeimage.obj
 0001:00005470       ?fiClone@@YAPAUFIBITMAP@@PAU1@@Z 00406470 f   freeimage.obj
 0001:000054b0       ?fiRescale@@YAPAUFIBITMAP@@PAU1@HHW4FREE_IMAGE_FILTER@@_N@Z 004064b0 f   freeimage.obj
 0001:00005570       ?fiBindToImage@@YA_NPAUFIBITMAP@@PAULoadedImage_s@@W4FREE_IMAGE_FORMAT@@@Z 00406570 f   freeimage.obj
 0001:00005630       ?fiLoadDataRaw@@YA_NHHHPAEI0_NPAULoadedImage_s@@@Z 00406630 f   freeimage.obj
 0001:000057a0       ?fiLoadFile@@YA_NW4FREE_IMAGE_FORMAT@@PBDPAULoadedImage_s@@@Z 004067a0 f   freeimage.obj
 0001:00005830       ?fiSave@@YA_NPAUFIBITMAP@@W4FREE_IMAGE_FORMAT@@PBD@Z 00406830 f   freeimage.obj
 0001:000058a0       ?fiCombine@@YAXPAUFIBITMAP@@0W4FREE_IMAGE_COMBINE@@M_N@Z 004068a0 f   freeimage.obj
 0001:00006130       ?fiConvertBPP@@YAPAUFIBITMAP@@PAU1@H@Z 00407130 f   freeimage.obj
 0001:000061f0       ?fiConvertType@@YAPAUFIBITMAP@@PAU1@W4FREE_IMAGE_TYPE@@@Z 004071f0 f   freeimage.obj
 0001:00006280       ?fiScale2x@@YAPAUFIBITMAP@@PAEHHHH_N@Z 00407280 f   freeimage.obj
 0001:000063c0       ?fiScale2x@@YAPAUFIBITMAP@@PAU1@H_N@Z 004073c0 f   freeimage.obj
 0001:00006470       ?fiFilter@@YAPAUFIBITMAP@@PAU1@PANNNH_N@Z 00407470 f   freeimage.obj
 0001:000070c0       ?fiBlur@@YAPAUFIBITMAP@@PAU1@H_N@Z 004080c0 f   freeimage.obj
 0001:000071a0       ?fiSharpen@@YAPAUFIBITMAP@@PAU1@MH_N@Z 004081a0 f   freeimage.obj
 0001:000073e0       ?fiFixTransparentPixels@@YAPAUFIBITMAP@@PAU1@@Z 004083e0 f   freeimage.obj
 0001:00007aa0       ?fiLoadData@@YA_NW4FREE_IMAGE_FORMAT@@PAUFS_File@@PAEIPAULoadedImage_s@@@Z 00408aa0 f   freeimage.obj
 0001:00007bb0       ?_Getcont@_Aux_cont@std@@QBEPBV_Container_base_aux@2@XZ 00408bb0 f i fs.obj
 0001:00007bc0       ??0_Iterator_base_aux@std@@QAE@XZ 00408bc0 f i fs.obj
 0001:00007bd0       ?_Set_container@_Iterator_base_aux@std@@QAEXQBV_Container_base_aux@2@@Z 00408bd0 f i fs.obj
 0001:00007be0       ?_Getmycont@_Iterator_base_aux@std@@QBEPBV_Container_base_aux@2@XZ 00408be0 f i fs.obj
 0001:00007bf0       ?_Same_container@_Iterator_base_aux@std@@QBE_NABV12@@Z 00408bf0 f i fs.obj
 0001:00007c10       ?_Has_container@_Iterator_base_aux@std@@QBE_NXZ 00408c10 f i fs.obj
 0001:00007c20       ?FS_FreeFile@@YAXPAUFS_File@@@Z 00408c20 f   fs.obj
 0001:00007c40       ?FS_CRC32@@YAIPAD@Z        00408c40 f   fs.obj
 0001:00007c60       ?matchpattern_with_separator@@YAHPBD0H0_N@Z 00408c60 f   fs.obj
 0001:00007d60       ?matchpattern@@YAHPBD0_N@Z 00408d60 f   fs.obj
 0001:00007d80       ?FS_FindDir@@YA_NPAD@Z     00408d80 f   fs.obj
 0001:00007df0       ?FS_FindFile@@YA_NPAD@Z    00408df0 f   fs.obj
 0001:00007e50       ?FS_Init@@YAXXZ            00408e50 f   fs.obj
 0001:00007e60       ?FS_Shutdown@@YAXXZ        00408e60 f   fs.obj
 0001:00007e70       ?FS_PrintModules@@YAXXZ    00408e70 f   fs.obj
 0001:00007e80       ?empty@?$basic_string@DU?$char_traits@D@std@@V?$allocator@D@2@@std@@QBE_NXZ 00408e80 f i fs.obj
 0001:00007e90       ??M?$_Vector_const_iterator@UFileCacheS@@V?$allocator@UFileCacheS@@@std@@@std@@QBE_NABV01@@Z 00408e90 f i fs.obj
 0001:00007ec0       ??M?$_Vector_const_iterator@UCompareOption@@V?$allocator@UCompareOption@@@std@@@std@@QBE_NABV01@@Z 00408ec0 f i fs.obj
 0001:00007ef0       ?capacity@?$vector@UFS_File@@V?$allocator@UFS_File@@@std@@@std@@QBEIXZ 00408ef0 f i fs.obj
 0001:00007f10       ?size@?$vector@UFS_File@@V?$allocator@UFS_File@@@std@@@std@@QBEIXZ 00408f10 f i fs.obj
 0001:00007f30       ??0?$allocator@UFS_File@@@std@@QAE@XZ 00408f30 f i fs.obj
 0001:00007f40       ?capacity@?$vector@UFileCacheS@@V?$allocator@UFileCacheS@@@std@@@std@@QBEIXZ 00408f40 f i fs.obj
 0001:00007f60       ?size@?$vector@UFileCacheS@@V?$allocator@UFileCacheS@@@std@@@std@@QBEIXZ 00408f60 f i fs.obj
 0001:00007f80       ??0?$allocator@UFileCacheS@@@std@@QAE@XZ 00408f80 f i fs.obj
 0001:00007f90       ??0?$allocator@UFS_File@@@std@@QAE@ABV01@@Z 00408f90 f i fs.obj
 0001:00007fa0       ?deallocate@?$allocator@UFS_File@@@std@@QAEXPAUFS_File@@I@Z 00408fa0 f i fs.obj
 0001:00007fb0       ??0?$allocator@UFileCacheS@@@std@@QAE@ABV01@@Z 00408fb0 f i fs.obj
 0001:00007fc0       ?deallocate@?$allocator@UFileCacheS@@@std@@QAEXPAUFileCacheS@@I@Z 00408fc0 f i fs.obj
 0001:00007fd0       ??D?$_Vector_const_iterator@UFileCacheS@@V?$allocator@UFileCacheS@@@std@@@std@@QBEABUFileCacheS@@XZ 00408fd0 f i fs.obj
 0001:00008000       ??E?$_Vector_const_iterator@UFileCacheS@@V?$allocator@UFileCacheS@@@std@@@std@@QAEAAV01@XZ 00409000 f i fs.obj
 0001:00008040       ??G?$_Vector_const_iterator@UFileCacheS@@V?$allocator@UFileCacheS@@@std@@@std@@QBEHABV01@@Z 00409040 f i fs.obj
 0001:00008080       ??D?$_Vector_const_iterator@UCompareOption@@V?$allocator@UCompareOption@@@std@@@std@@QBEABUCompareOption@@XZ 00409080 f i fs.obj
 0001:000080b0       ??E?$_Vector_const_iterator@UCompareOption@@V?$allocator@UCompareOption@@@std@@@std@@QAEAAV01@XZ 004090b0 f i fs.obj
 0001:000080e0       ??G?$_Vector_const_iterator@UFS_File@@V?$allocator@UFS_File@@@std@@@std@@QBEHABV01@@Z 004090e0 f i fs.obj
 0001:00008120       ??0?$_Iterator_with_base@Urandom_access_iterator_tag@std@@UFileCacheS@@HPBU3@ABU3@V_Iterator_base_aux@2@@std@@QAE@XZ 00409120 f i fs.obj
 0001:00008130       ??0?$_Iterator_with_base@Urandom_access_iterator_tag@std@@UCompareOption@@HPBU3@ABU3@V_Iterator_base_aux@2@@std@@QAE@XZ 00409130 f i fs.obj
 0001:00008140       ?max_size@?$allocator@UFS_File@@@std@@QBEIXZ 00409140 f i fs.obj
 0001:00008150       ?max_size@?$allocator@UFileCacheS@@@std@@QBEIXZ 00409150 f i fs.obj
 0001:00008160       ??8?$_Vector_const_iterator@UFileCacheS@@V?$allocator@UFileCacheS@@@std@@@std@@QBE_NABV01@@Z 00409160 f i fs.obj
 0001:00008190       ??0?$_Iterator_with_base@Urandom_access_iterator_tag@std@@UFS_File@@HPBU3@ABU3@V_Iterator_base_aux@2@@std@@QAE@XZ 00409190 f i fs.obj
 0001:000081a0       ??Y?$_Vector_const_iterator@UFileCacheS@@V?$allocator@UFileCacheS@@@std@@@std@@QAEAAV01@H@Z 004091a0 f i fs.obj
 0001:000081f0       ??Y?$_Vector_const_iterator@UFS_File@@V?$allocator@UFS_File@@@std@@@std@@QAEAAV01@H@Z 004091f0 f i fs.obj
 0001:00008240       ??$?0UFS_File@@@?$allocator@V_Aux_cont@std@@@std@@QAE@ABV?$allocator@UFS_File@@@1@@Z 00409240 f i fs.obj
 0001:00008250       ??$_Allocate@UFS_File@@@std@@YAPAUFS_File@@IPAU1@@Z 00409250 f i fs.obj
 0001:000082b0       ??$?0UFileCacheS@@@?$allocator@V_Aux_cont@std@@@std@@QAE@ABV?$allocator@UFileCacheS@@@1@@Z 004092b0 f i fs.obj
 0001:000082c0       ??$_Allocate@UFileCacheS@@@std@@YAPAUFileCacheS@@IPAU1@@Z 004092c0 f i fs.obj
 0001:00008320       ??$_Ptr_cat@PAUFS_File@@PAU1@@std@@YA?AU_Nonscalar_ptr_iterator_tag@0@AAPAUFS_File@@0@Z 00409320 f i fs.obj
 0001:00008330       ??$_Iter_random@PAUFileCacheS@@PAU1@@std@@YA?AUrandom_access_iterator_tag@0@ABQAUFileCacheS@@0@Z 00409330 f i fs.obj
 0001:00008340       ??$_Ptr_cat@PAUFileCacheS@@PAU1@@std@@YA?AU_Nonscalar_ptr_iterator_tag@0@AAPAUFileCacheS@@0@Z 00409340 f i fs.obj
 0001:00008350       ??$_Iter_random@PAUFS_File@@PAU1@@std@@YA?AUrandom_access_iterator_tag@0@ABQAUFS_File@@0@Z 00409350 f i fs.obj
 0001:00008360       ??$_Move_cat@PAUFS_File@@@std@@YA?AU_Undefined_move_tag@0@ABQAUFS_File@@@Z 00409360 f i fs.obj
 0001:00008370       ??$_Fill@PAUFileCacheS@@U1@@std@@YAXPAUFileCacheS@@0ABU1@@Z 00409370 f i fs.obj
 0001:000083a0       ??$_Move_cat@PAUFileCacheS@@@std@@YA?AU_Undefined_move_tag@0@ABQAUFileCacheS@@@Z 004093a0 f i fs.obj
 0001:000083b0       ??$_Checked_base@PAUFileCacheS@@@std@@YAPAUFileCacheS@@AAPAU1@U_Unchanged_checked_iterator_base_type_tag@0@@Z 004093b0 f i fs.obj
 0001:000083c0       ??$_Copy_opt@PAUFileCacheS@@PAU1@Uforward_iterator_tag@std@@@std@@YAPAUFileCacheS@@PAU1@00Uforward_iterator_tag@0@U_Nonscalar_ptr_iterator_tag@0@U_Range_checked_iterator_tag@0@@Z 004093c0 f i fs.obj
 0001:00008400       ??$_Checked_base@PAUFS_File@@@std@@YAPAUFS_File@@AAPAU1@U_Unchanged_checked_iterator_base_type_tag@0@@Z 00409400 f i fs.obj
 0001:00008410       ??$_Construct@UFileCacheS@@U1@@std@@YAXPAUFileCacheS@@ABU1@@Z 00409410 f i fs.obj
 0001:00008430       ??$_Destroy@UFileCacheS@@@std@@YAXPAUFileCacheS@@@Z 00409430 f i fs.obj
 0001:00008440       ??$_Copy_backward_opt@PAUFileCacheS@@PAU1@Uforward_iterator_tag@std@@@std@@YAPAUFileCacheS@@PAU1@00Uforward_iterator_tag@0@U_Nonscalar_ptr_iterator_tag@0@U_Range_checked_iterator_tag@0@@Z 00409440 f i fs.obj
 0001:00008480       ??1?$_Container_base_aux_alloc_real@V?$allocator@UFS_File@@@std@@@std@@IAE@XZ 00409480 f i fs.obj
 0001:00008490       ??1?$_Container_base_aux_alloc_real@V?$allocator@UFileCacheS@@@std@@@std@@IAE@XZ 00409490 f i fs.obj
 0001:000084a0       ??D?$_Vector_iterator@UFileCacheS@@V?$allocator@UFileCacheS@@@std@@@std@@QBEAAUFileCacheS@@XZ 004094a0 f i fs.obj
 0001:000084d0       ??E?$_Vector_iterator@UFileCacheS@@V?$allocator@UFileCacheS@@@std@@@std@@QAEAAV01@XZ 004094d0 f i fs.obj
 0001:00008510       ??D?$_Vector_iterator@UCompareOption@@V?$allocator@UCompareOption@@@std@@@std@@QBEAAUCompareOption@@XZ 00409510 f i fs.obj
 0001:00008540       ??E?$_Vector_iterator@UCompareOption@@V?$allocator@UCompareOption@@@std@@@std@@QAEAAV01@XZ 00409540 f i fs.obj
 0001:00008570       ?max_size@?$vector@UFS_File@@V?$allocator@UFS_File@@@std@@@std@@QBEIXZ 00409570 f i fs.obj
 0001:00008580       ?allocate@?$allocator@UFS_File@@@std@@QAEPAUFS_File@@I@Z 00409580 f i fs.obj
 0001:000085a0       ?max_size@?$vector@UFileCacheS@@V?$allocator@UFileCacheS@@@std@@@std@@QBEIXZ 004095a0 f i fs.obj
 0001:000085b0       ?allocate@?$allocator@UFileCacheS@@@std@@QAEPAUFileCacheS@@I@Z 004095b0 f i fs.obj
 0001:000085d0       ??9?$_Vector_const_iterator@UFileCacheS@@V?$allocator@UFileCacheS@@@std@@@std@@QBE_NABV01@@Z 004095d0 f i fs.obj
 0001:00008600       ??0?$_Ranit@UFileCacheS@@HPBU1@ABU1@@std@@QAE@XZ 00409600 f i fs.obj
 0001:00008610       ??0?$_Ranit@UCompareOption@@HPBU1@ABU1@@std@@QAE@XZ 00409610 f i fs.obj
 0001:00008620       ??Y?$_Vector_iterator@UFileCacheS@@V?$allocator@UFileCacheS@@@std@@@std@@QAEAAV01@H@Z 00409620 f i fs.obj
 0001:00008670       ??Y?$_Vector_iterator@UFS_File@@V?$allocator@UFS_File@@@std@@@std@@QAEAAV01@H@Z 00409670 f i fs.obj
 0001:000086c0       ??0?$_Ranit@UFS_File@@HPBU1@ABU1@@std@@QAE@XZ 004096c0 f i fs.obj
 0001:000086d0       ??$_Checked_base@PAUFileCacheS@@@std@@YAPAUFileCacheS@@AAPAU1@@Z 004096d0 f i fs.obj
 0001:000086e0       ??$_Copy_opt@PAUFileCacheS@@PAU1@@std@@YAPAUFileCacheS@@PAU1@00Urandom_access_iterator_tag@0@U_Nonscalar_ptr_iterator_tag@0@U_Range_checked_iterator_tag@0@@Z 004096e0 f i fs.obj
 0001:00008730       ??$_Checked_base@PAUFS_File@@@std@@YAPAUFS_File@@AAPAU1@@Z 00409730 f i fs.obj
 0001:00008740       ?construct@?$allocator@UFileCacheS@@@std@@QAEXPAUFileCacheS@@ABU3@@Z 00409740 f i fs.obj
 0001:00008760       ?destroy@?$allocator@UFileCacheS@@@std@@QAEXPAUFileCacheS@@@Z 00409760 f i fs.obj
 0001:00008770       ??$_Copy_backward_opt@PAUFileCacheS@@PAU1@@std@@YAPAUFileCacheS@@PAU1@00Urandom_access_iterator_tag@0@U_Nonscalar_ptr_iterator_tag@0@U_Range_checked_iterator_tag@0@@Z 00409770 f i fs.obj
 0001:000087d0       ??$_Uninit_copy@PAUFileCacheS@@PAU1@V?$allocator@UFileCacheS@@@std@@@std@@YAPAUFileCacheS@@PAU1@00AAV?$allocator@UFileCacheS@@@0@U_Nonscalar_ptr_iterator_tag@0@U_Range_checked_iterator_tag@0@@Z 004097d0 f i fs.obj
 0001:00008810       ?FS_LoadFile@@YAPAEPAUFS_File@@PAI@Z 00409810 f   fs.obj
 0001:00008a90       ??C?$_Vector_iterator@UFileCacheS@@V?$allocator@UFileCacheS@@@std@@@std@@QBEPAUFileCacheS@@XZ 00409a90 f i fs.obj
 0001:00008ac0       ??E?$_Vector_iterator@UFileCacheS@@V?$allocator@UFileCacheS@@@std@@@std@@QAE?AV01@H@Z 00409ac0 f i fs.obj
 0001:00008b10       ??C?$_Vector_iterator@UCompareOption@@V?$allocator@UCompareOption@@@std@@@std@@QBEPAUCompareOption@@XZ 00409b10 f i fs.obj
 0001:00008b40       ??E?$_Vector_iterator@UCompareOption@@V?$allocator@UCompareOption@@@std@@@std@@QAE?AV01@H@Z 00409b40 f i fs.obj
 0001:00008b80       ??1?$_Vector_val@UFS_File@@V?$allocator@UFS_File@@@std@@@std@@QAE@XZ 00409b80 f i fs.obj
 0001:00008b90       ??1?$_Vector_val@UFileCacheS@@V?$allocator@UFileCacheS@@@std@@@std@@QAE@XZ 00409b90 f i fs.obj
 0001:00008ba0       ??0?$_Container_base_aux_alloc_real@V?$allocator@UFS_File@@@std@@@std@@IAE@V?$allocator@UFS_File@@@1@@Z 00409ba0 f i fs.obj
 0001:00008bd0       ??0?$_Container_base_aux_alloc_real@V?$allocator@UFileCacheS@@@std@@@std@@IAE@V?$allocator@UFileCacheS@@@1@@Z 00409bd0 f i fs.obj
 0001:00008c00       ??H?$_Vector_iterator@UFileCacheS@@V?$allocator@UFileCacheS@@@std@@@std@@QBE?AV01@H@Z 00409c00 f i fs.obj
 0001:00008c50       ??0?$_Vector_const_iterator@UFileCacheS@@V?$allocator@UFileCacheS@@@std@@@std@@QAE@PAUFileCacheS@@PBV_Container_base_aux@1@@Z 00409c50 f i fs.obj
 0001:00008c90       ??0?$_Vector_const_iterator@UCompareOption@@V?$allocator@UCompareOption@@@std@@@std@@QAE@PAUCompareOption@@PBV_Container_base_aux@1@@Z 00409c90 f i fs.obj
 0001:00008cd0       ??H?$_Vector_iterator@UFS_File@@V?$allocator@UFS_File@@@std@@@std@@QBE?AV01@H@Z 00409cd0 f i fs.obj
 0001:00008d20       ??0?$_Vector_const_iterator@UFS_File@@V?$allocator@UFS_File@@@std@@@std@@QAE@PAUFS_File@@PBV_Container_base_aux@1@@Z 00409d20 f i fs.obj
 0001:00008d60       ??$unchecked_copy@PAUFileCacheS@@PAU1@@stdext@@YAPAUFileCacheS@@PAU1@00@Z 00409d60 f i fs.obj
 0001:00008d90       ??$fill@PAUFileCacheS@@U1@@std@@YAXPAUFileCacheS@@0ABU1@@Z 00409d90 f i fs.obj
 0001:00008dc0       ??$_Uninit_fill_n@PAUFileCacheS@@IU1@V?$allocator@UFileCacheS@@@std@@@std@@YAXPAUFileCacheS@@IABU1@AAV?$allocator@UFileCacheS@@@0@U_Nonscalar_ptr_iterator_tag@0@U_Range_checked_iterator_tag@0@@Z 00409dc0 f i fs.obj
 0001:00008df0       ??$_Destroy_range@V?$allocator@UFileCacheS@@@std@@@std@@YAXPAUFileCacheS@@0AAV?$allocator@UFileCacheS@@@0@U_Nonscalar_ptr_iterator_tag@0@@Z 00409df0 f i fs.obj
 0001:00008e00       ??$_Move_backward_opt@PAUFileCacheS@@PAU1@Urandom_access_iterator_tag@std@@U_Undefined_move_tag@3@@std@@YAPAUFileCacheS@@PAU1@00Urandom_access_iterator_tag@0@U_Undefined_move_tag@0@U_Range_checked_iterator_tag@0@@Z 00409e00 f i fs.obj
 0001:00008e30       ??$unchecked_uninitialized_copy@PAUFileCacheS@@PAU1@V?$allocator@UFileCacheS@@@std@@@stdext@@YAPAUFileCacheS@@PAU1@00AAV?$allocator@UFileCacheS@@@std@@@Z 00409e30 f i fs.obj
 0001:00008e60       ??0?$basic_string@DU?$char_traits@D@std@@V?$allocator@D@2@@std@@QAE@XZ 00409e60 f i fs.obj
 0001:00008e80       ??0?$_Vector_val@UFS_File@@V?$allocator@UFS_File@@@std@@@std@@IAE@V?$allocator@UFS_File@@@1@@Z 00409e80 f i fs.obj
 0001:00008eb0       ??0?$_Vector_val@UFileCacheS@@V?$allocator@UFileCacheS@@@std@@@std@@IAE@V?$allocator@UFileCacheS@@@1@@Z 00409eb0 f i fs.obj
 0001:00008ee0       ??0?$_Vector_iterator@UFileCacheS@@V?$allocator@UFileCacheS@@@std@@@std@@QAE@PAUFileCacheS@@PBV_Container_base_aux@1@@Z 00409ee0 f i fs.obj
 0001:00008f20       ??0?$_Vector_iterator@UCompareOption@@V?$allocator@UCompareOption@@@std@@@std@@QAE@PAUCompareOption@@PBV_Container_base_aux@1@@Z 00409f20 f i fs.obj
 0001:00008f60       ?_Make_iter@?$vector@UFileCacheS@@V?$allocator@UFileCacheS@@@std@@@std@@QBE?AV?$_Vector_iterator@UFileCacheS@@V?$allocator@UFileCacheS@@@std@@@2@V?$_Vector_const_iterator@UFileCacheS@@V?$allocator@UFileCacheS@@@std@@@2@@Z 00409f60 f i fs.obj
 0001:00008fa0       ??0?$_Vector_iterator@UFS_File@@V?$allocator@UFS_File@@@std@@@std@@QAE@PAUFS_File@@PBV_Container_base_aux@1@@Z 00409fa0 f i fs.obj
 0001:00008fe0       ??$unchecked_uninitialized_fill_n@PAUFileCacheS@@IU1@V?$allocator@UFileCacheS@@@std@@@stdext@@YAXPAUFileCacheS@@IABU1@AAV?$allocator@UFileCacheS@@@std@@@Z 00409fe0 f i fs.obj
 0001:00009010       ??$_Destroy_range@V?$allocator@UFileCacheS@@@std@@@std@@YAXPAUFileCacheS@@0AAV?$allocator@UFileCacheS@@@0@@Z 0040a010 f i fs.obj
 0001:00009020       ??$_Unchecked_move_backward@PAUFileCacheS@@PAU1@@stdext@@YAPAUFileCacheS@@PAU1@00@Z 0040a020 f i fs.obj
 0001:00009050       ??$_Uninit_move@PAUFileCacheS@@PAU1@V?$allocator@UFileCacheS@@@std@@U_Undefined_move_tag@3@@std@@YAPAUFileCacheS@@PAU1@00AAV?$allocator@UFileCacheS@@@0@U_Undefined_move_tag@0@U_Range_checked_iterator_tag@0@@Z 0040a050 f i fs.obj
 0001:00009080       ??0FS_File@@QAE@XZ         0040a080 f i fs.obj
 0001:000090d0       ??1FS_File@@QAE@XZ         0040a0d0 f i fs.obj
 0001:000091a0       ?begin@?$vector@UCompareOption@@V?$allocator@UCompareOption@@@std@@@std@@QAE?AV?$_Vector_iterator@UCompareOption@@V?$allocator@UCompareOption@@@std@@@2@XZ 0040a1a0 f i fs.obj
 0001:000091d0       ?end@?$vector@UCompareOption@@V?$allocator@UCompareOption@@@std@@@std@@QAE?AV?$_Vector_iterator@UCompareOption@@V?$allocator@UCompareOption@@@std@@@2@XZ 0040a1d0 f i fs.obj
 0001:00009200       ?begin@?$vector@UFileCacheS@@V?$allocator@UFileCacheS@@@std@@@std@@QAE?AV?$_Vector_iterator@UFileCacheS@@V?$allocator@UFileCacheS@@@std@@@2@XZ 0040a200 f i fs.obj
 0001:00009230       ?end@?$vector@UFileCacheS@@V?$allocator@UFileCacheS@@@std@@@std@@QAE?AV?$_Vector_iterator@UFileCacheS@@V?$allocator@UFileCacheS@@@std@@@2@XZ 0040a230 f i fs.obj
 0001:00009260       ?end@?$vector@UFS_File@@V?$allocator@UFS_File@@@std@@@std@@QAE?AV?$_Vector_iterator@UFS_File@@V?$allocator@UFS_File@@@std@@@2@XZ 0040a260 f i fs.obj
 0001:00009290       ?_Ufill@?$vector@UFileCacheS@@V?$allocator@UFileCacheS@@@std@@@std@@IAEPAUFileCacheS@@PAU3@IABU3@@Z 0040a290 f i fs.obj
 0001:000092d0       ?begin@?$vector@UFS_File@@V?$allocator@UFS_File@@@std@@@std@@QAE?AV?$_Vector_iterator@UFS_File@@V?$allocator@UFS_File@@@std@@@2@XZ 0040a2d0 f i fs.obj
 0001:00009300       ?_Destroy@?$vector@UFileCacheS@@V?$allocator@UFileCacheS@@@std@@@std@@IAEXPAUFileCacheS@@0@Z 0040a300 f i fs.obj
 0001:00009310       ??$_Unchecked_uninitialized_move@PAUFileCacheS@@PAU1@V?$allocator@UFileCacheS@@@std@@@stdext@@YAPAUFileCacheS@@PAU1@00AAV?$allocator@UFileCacheS@@@std@@@Z 0040a310 f i fs.obj
 0001:00009340       ?assign@?$basic_string@DU?$char_traits@D@std@@V?$allocator@D@2@@std@@QAEAAV12@ABV12@@Z 0040a340 f i fs.obj
 0001:00009360       ??_GFS_File@@QAEPAXI@Z     0040a360 f i fs.obj
 0001:00009380       ?FS_SaveCache@@YAXPAD@Z    0040a380 f   fs.obj
 0001:000094a0       ?FS_FileMatchList@@YA_NPAUFS_File@@PAXAAV?$vector@UCompareOption@@V?$allocator@UCompareOption@@@std@@@std@@@Z 0040a4a0 f   fs.obj
 0001:00009e80       ?FS_FileMatchList@@YA_NPAUFS_File@@AAV?$vector@UCompareOption@@V?$allocator@UCompareOption@@@std@@@std@@@Z 0040ae80 f   fs.obj
 0001:00009ea0       ?AllowFile@@YA_NPAUFS_File@@@Z 0040aea0 f   fs.obj
 0001:00009ec0       ?erase@?$vector@UFileCacheS@@V?$allocator@UFileCacheS@@@std@@@std@@QAE?AV?$_Vector_iterator@UFileCacheS@@V?$allocator@UFileCacheS@@@std@@@2@V?$_Vector_const_iterator@UFileCacheS@@V?$allocator@UFileCacheS@@@std@@@2@0@Z 0040aec0 f i fs.obj
 0001:00009f50       ?_Tidy@?$vector@UFileCacheS@@V?$allocator@UFileCacheS@@@std@@@std@@IAEXXZ 0040af50 f i fs.obj
 0001:00009f80       ??0FS_File@@QAE@ABU0@@Z    0040af80 f i fs.obj
 0001:0000a090       ??$_Umove@PAUFileCacheS@@@?$vector@UFileCacheS@@V?$allocator@UFileCacheS@@@std@@@std@@IAEPAUFileCacheS@@PAU2@00@Z 0040b090 f i fs.obj
 0001:0000a0c0       ??4?$basic_string@DU?$char_traits@D@std@@V?$allocator@D@2@@std@@QAEAAV01@ABV01@@Z 0040b0c0 f i fs.obj
 0001:0000a0e0       ??$_Construct@UFS_File@@U1@@std@@YAXPAUFS_File@@ABU1@@Z 0040b0e0 f i fs.obj
 0001:0000a140       ??$_Destroy@UFS_File@@@std@@YAXPAUFS_File@@@Z 0040b140 f i fs.obj
 0001:0000a150       ??4?$basic_string@DU?$char_traits@D@std@@V?$allocator@D@2@@std@@QAEAAV01@PBD@Z 0040b150 f i fs.obj
 0001:0000a180       ??1?$vector@UFileCacheS@@V?$allocator@UFileCacheS@@@std@@@std@@QAE@XZ 0040b180 f i fs.obj
 0001:0000a1c0       ?clear@?$vector@UFileCacheS@@V?$allocator@UFileCacheS@@@std@@@std@@QAEXXZ 0040b1c0 f i fs.obj
 0001:0000a200       ?_Xlen@?$vector@UFS_File@@V?$allocator@UFS_File@@@std@@@std@@KAXXZ 0040b200 f i fs.obj
 0001:0000a280       ?_Xlen@?$vector@UFileCacheS@@V?$allocator@UFileCacheS@@@std@@@std@@KAXXZ 0040b280 f i fs.obj
 0001:0000a300       ??4FS_File@@QAEAAU0@ABU0@@Z 0040b300 f i fs.obj
 0001:0000a380       ?construct@?$allocator@UFS_File@@@std@@QAEXPAUFS_File@@ABU3@@Z 0040b380 f i fs.obj
 0001:0000a3a0       ?destroy@?$allocator@UFS_File@@@std@@QAEXPAUFS_File@@@Z 0040b3a0 f i fs.obj
 0001:0000a3b0       ??$_Copy_backward_opt@PAUFS_File@@PAU1@Uforward_iterator_tag@std@@@std@@YAPAUFS_File@@PAU1@00Uforward_iterator_tag@0@U_Nonscalar_ptr_iterator_tag@0@U_Range_checked_iterator_tag@0@@Z 0040b3b0 f i fs.obj
 0001:0000a3f0       ??$_Uninit_copy@PAUFS_File@@PAU1@V?$allocator@UFS_File@@@std@@@std@@YAPAUFS_File@@PAU1@00AAV?$allocator@UFS_File@@@0@U_Nonscalar_ptr_iterator_tag@0@U_Range_checked_iterator_tag@0@@Z 0040b3f0 f i fs.obj
 0001:0000a4a0       ?FS_SetFile@@YAXPAUFS_File@@PAD@Z 0040b4a0 f   fs.obj
 0001:0000a5e0       ?FS_SetFile@@YAXPAUFS_File@@PAD1@Z 0040b5e0 f   fs.obj
 0001:0000a750       ?FS_NewFile@@YAPAUFS_File@@PAD@Z 0040b750 f   fs.obj
 0001:0000a790       ?FS_NewFile@@YAPAUFS_File@@PAD0@Z 0040b790 f   fs.obj
 0001:0000a7d0       ?FS_FileMatchList@@YA_NPADAAV?$vector@UCompareOption@@V?$allocator@UCompareOption@@@std@@@std@@@Z 0040b7d0 f   fs.obj
 0001:0000a8d0       ?_Buy@?$vector@UFS_File@@V?$allocator@UFS_File@@@std@@@std@@IAE_NI@Z 0040b8d0 f i fs.obj
 0001:0000a920       ?_Buy@?$vector@UFileCacheS@@V?$allocator@UFileCacheS@@@std@@@std@@IAE_NI@Z 0040b920 f i fs.obj
 0001:0000a970       ?_Insert_n@?$vector@UFileCacheS@@V?$allocator@UFileCacheS@@@std@@@std@@IAEXV?$_Vector_const_iterator@UFileCacheS@@V?$allocator@UFileCacheS@@@std@@@2@IABUFileCacheS@@@Z 0040b970 f i fs.obj
 0001:0000ac10       ??$_Uninit_fill_n@PAUFS_File@@IU1@V?$allocator@UFS_File@@@std@@@std@@YAXPAUFS_File@@IABU1@AAV?$allocator@UFS_File@@@0@U_Nonscalar_ptr_iterator_tag@0@U_Range_checked_iterator_tag@0@@Z 0040bc10 f i fs.obj
 0001:0000acc0       ??$_Destroy_range@V?$allocator@UFS_File@@@std@@@std@@YAXPAUFS_File@@0AAV?$allocator@UFS_File@@@0@U_Nonscalar_ptr_iterator_tag@0@@Z 0040bcc0 f i fs.obj
 0001:0000acf0       ??$_Fill@PAUFS_File@@U1@@std@@YAXPAUFS_File@@0ABU1@@Z 0040bcf0 f i fs.obj
 0001:0000ad20       ??$_Copy_backward_opt@PAUFS_File@@PAU1@@std@@YAPAUFS_File@@PAU1@00Urandom_access_iterator_tag@0@U_Nonscalar_ptr_iterator_tag@0@U_Range_checked_iterator_tag@0@@Z 0040bd20 f i fs.obj
 0001:0000ad80       ??$unchecked_uninitialized_copy@PAUFS_File@@PAU1@V?$allocator@UFS_File@@@std@@@stdext@@YAPAUFS_File@@PAU1@00AAV?$allocator@UFS_File@@@std@@@Z 0040bd80 f i fs.obj
 0001:0000adb0       ??0?$vector@UFS_File@@V?$allocator@UFS_File@@@std@@@std@@QAE@XZ 0040bdb0 f i fs.obj
 0001:0000ae10       ??0?$vector@UFileCacheS@@V?$allocator@UFileCacheS@@@std@@@std@@QAE@XZ 0040be10 f i fs.obj
 0001:0000ae70       ?insert@?$vector@UFileCacheS@@V?$allocator@UFileCacheS@@@std@@@std@@QAE?AV?$_Vector_iterator@UFileCacheS@@V?$allocator@UFileCacheS@@@std@@@2@V?$_Vector_const_iterator@UFileCacheS@@V?$allocator@UFileCacheS@@@std@@@2@ABUFileCacheS@@@Z 0040be70 f i fs.obj
 0001:0000af40       ??$unchecked_uninitialized_fill_n@PAUFS_File@@IU1@V?$allocator@UFS_File@@@std@@@stdext@@YAXPAUFS_File@@IABU1@AAV?$allocator@UFS_File@@@std@@@Z 0040bf40 f i fs.obj
 0001:0000af70       ??$_Destroy_range@V?$allocator@UFS_File@@@std@@@std@@YAXPAUFS_File@@0AAV?$allocator@UFS_File@@@0@@Z 0040bf70 f i fs.obj
 0001:0000afa0       ??$fill@PAUFS_File@@U1@@std@@YAXPAUFS_File@@0ABU1@@Z 0040bfa0 f i fs.obj
 0001:0000afd0       ??$_Move_backward_opt@PAUFS_File@@PAU1@Urandom_access_iterator_tag@std@@U_Undefined_move_tag@3@@std@@YAPAUFS_File@@PAU1@00Urandom_access_iterator_tag@0@U_Undefined_move_tag@0@U_Range_checked_iterator_tag@0@@Z 0040bfd0 f i fs.obj
 0001:0000b000       ??$_Uninit_move@PAUFS_File@@PAU1@V?$allocator@UFS_File@@@std@@U_Undefined_move_tag@3@@std@@YAPAUFS_File@@PAU1@00AAV?$allocator@UFS_File@@@0@U_Undefined_move_tag@0@U_Range_checked_iterator_tag@0@@Z 0040c000 f i fs.obj
 0001:0000b030       ?push_back@?$vector@UFileCacheS@@V?$allocator@UFileCacheS@@@std@@@std@@QAEXABUFileCacheS@@@Z 0040c030 f i fs.obj
 0001:0000b0e0       ?_Ufill@?$vector@UFS_File@@V?$allocator@UFS_File@@@std@@@std@@IAEPAUFS_File@@PAU3@IABU3@@Z 0040c0e0 f i fs.obj
 0001:0000b120       ?_Destroy@?$vector@UFS_File@@V?$allocator@UFS_File@@@std@@@std@@IAEXPAUFS_File@@0@Z 0040c120 f i fs.obj
 0001:0000b150       ??$_Unchecked_move_backward@PAUFS_File@@PAU1@@stdext@@YAPAUFS_File@@PAU1@00@Z 0040c150 f i fs.obj
 0001:0000b180       ??$_Unchecked_uninitialized_move@PAUFS_File@@PAU1@V?$allocator@UFS_File@@@std@@@stdext@@YAPAUFS_File@@PAU1@00AAV?$allocator@UFS_File@@@std@@@Z 0040c180 f i fs.obj
 0001:0000b1b0       ?FS_LoadCache@@YA_NPAD@Z   0040c1b0 f   fs.obj
 0001:0000b330       ?FS_CheckCache@@YA_NPBDPAI@Z 0040c330 f   fs.obj
 0001:0000b500       ?_Tidy@?$vector@UFS_File@@V?$allocator@UFS_File@@@std@@@std@@IAEXXZ 0040c500 f i fs.obj
 0001:0000b550       ??$_Umove@PAUFS_File@@@?$vector@UFS_File@@V?$allocator@UFS_File@@@std@@@std@@IAEPAUFS_File@@PAU2@00@Z 0040c550 f i fs.obj
 0001:0000b580       ??1?$vector@UFS_File@@V?$allocator@UFS_File@@@std@@@std@@QAE@XZ 0040c580 f i fs.obj
 0001:0000b5a0       ?_Insert_n@?$vector@UFS_File@@V?$allocator@UFS_File@@@std@@@std@@IAEXV?$_Vector_const_iterator@UFS_File@@V?$allocator@UFS_File@@@std@@@2@IABUFS_File@@@Z 0040c5a0 f i fs.obj
 0001:0000b8c0       ?insert@?$vector@UFS_File@@V?$allocator@UFS_File@@@std@@@std@@QAE?AV?$_Vector_iterator@UFS_File@@V?$allocator@UFS_File@@@std@@@2@V?$_Vector_const_iterator@UFS_File@@V?$allocator@UFS_File@@@std@@@2@ABUFS_File@@@Z 0040c8c0 f i fs.obj
 0001:0000b990       ?push_back@?$vector@UFS_File@@V?$allocator@UFS_File@@@std@@@std@@QAEXABUFS_File@@@Z 0040c990 f i fs.obj
 0001:0000ba40       ?AddFile@@YA_NAAUFS_File@@_NPAI@Z 0040ca40 f   fs.obj
 0001:0000bab0       ?AddArchive@@YA_NAAUFS_File@@_N@Z 0040cab0 f   fs.obj
 0001:0000bd40       ?FS_ScanPath@@YAXPADPBD0@Z 0040cd40 f   fs.obj
 0001:0000c010       ?FreeImageBitmap@@YAXPAULoadedImage_s@@@Z 0040d010 f   image.obj
 0001:0000c040       ?FreeImageMipmaps@@YAXPAULoadedImage_s@@@Z 0040d040 f   image.obj
 0001:0000c080       ?ClearImage@@YAXPAULoadedImage_s@@@Z 0040d080 f   image.obj
 0001:0000c0d0       ?Image_Create@@YAPAULoadedImage_s@@XZ 0040d0d0 f   image.obj
 0001:0000c140       ?Image_Unload@@YAXPAULoadedImage_s@@@Z 0040d140 f   image.obj
 0001:0000c1f0       ?Image_Delete@@YAXPAULoadedImage_s@@@Z 0040d1f0 f   image.obj
 0001:0000c210       ?Image_ConvertBPP@@YAPAEPAULoadedImage_s@@H@Z 0040d210 f   image.obj
 0001:0000c280       ?Image_SwapColors@@YAXPAULoadedImage_s@@_N@Z 0040d280 f   image.obj
 0001:0000c2e0       ?Image_FreeMipmaps@@YAXPAULoadedImage_s@@@Z 0040d2e0 f   image.obj
 0001:0000c300       ?Image_GenerateMipmaps@@YAXPAULoadedImage_s@@_N@Z 0040d300 f   image.obj
 0001:0000c450       ?NextPowerOfTwo@@YAHH@Z    0040d450 f   image.obj
 0001:0000c480       ?Image_Scale2x_Super2x@@YAXPAULoadedImage_s@@_N@Z 0040d480 f   image.obj
 0001:0000c6d0       ?Image_Scale2x_Scale2x@@YAXPAULoadedImage_s@@@Z 0040d6d0 f   image.obj
 0001:0000c7f0       ?Image_Scale2x@@YAXPAULoadedImage_s@@W4SCALER@@_N@Z 0040d7f0 f   image.obj
 0001:0000c8c0       ?Image_MakeDimensions@@YAXPAULoadedImage_s@@_N1@Z 0040d8c0 f   image.obj
 0001:0000c970       ?Image_MakeAlphaBinary@@YAXPAULoadedImage_s@@H@Z 0040d970 f   image.obj
 0001:0000c9c0       ?Image_Swizzle@@YAXPAULoadedImage_s@@P6AX0_N@Z1@Z 0040d9c0 f   image.obj
 0001:0000c9f0       ?Image_GetData@@YAPAEPAULoadedImage_s@@PAI@Z 0040d9f0 f   image.obj
 0001:0000ca90       ?Image_GenerateTarga@@YAPAEPAIHHHPAE_N2@Z 0040da90 f   image.obj
 0001:0000ce00       ?Image_Save@@YA_NPAULoadedImage_s@@PAD@Z 0040de00 f   image.obj
 0001:0000ce20       ?Image_ExportTarga@@YAPAEPAULoadedImage_s@@PAI@Z 0040de20 f   image.obj
 0001:0000ce70       ?Image_ExportTarga@@YA_NPAULoadedImage_s@@PAD@Z 0040de70 f   image.obj
 0001:0000cf10       ?Image_Changed@@YA_NPAULoadedImage_s@@@Z 0040df10 f   image.obj
 0001:0000cf40       ?Image_LoadFinish@@YAXPAULoadedImage_s@@@Z 0040df40 f   image.obj
 0001:0000d100       ?LoadImage_Generic@@YAXPAUFS_File@@PAEIPAULoadedImage_s@@@Z 0040e100 f   image.obj
 0001:0000d140       ?FreeImageErrorHandler@@YAXW4FREE_IMAGE_FORMAT@@PBD@Z 0040e140 f   image.obj
 0001:0000d150       ?Image_Init@@YAXXZ         0040e150 f   image.obj
 0001:0000d160       ?Image_Shutdown@@YAXXZ     0040e160 f   image.obj
 0001:0000d170       ?Image_PrintModules@@YAXXZ 0040e170 f   image.obj
 0001:0000d190       ?LoadImage_QuakeSprite@@YAXPAUFS_File@@PAEIPAULoadedImage_s@@@Z 0040e190 f   image.obj
 0001:0000d300       ?LoadImage_QuakeBSP@@YAXPAUFS_File@@PAEIPAULoadedImage_s@@@Z 0040e300 f   image.obj
 0001:0000d440       ?Image_Load@@YAXPAUFS_File@@PAULoadedImage_s@@@Z 0040e440 f   image.obj
 0001:0000d4c0       ?Help@@YAHXZ               0040e4c0 f   main.obj
 0001:0000d4f0       ?PrintModules@@YAXXZ       0040e4f0 f   main.obj
 0001:0000d540       _main                      0040e540 f   main.obj
 0001:0000d8e0       ??M?$_Vector_const_iterator@Umemsentinel@@V?$allocator@Umemsentinel@@@std@@@std@@QBE_NABV01@@Z 0040e8e0 f i mem.obj
 0001:0000d910       ?capacity@?$vector@Umemsentinel@@V?$allocator@Umemsentinel@@@std@@@std@@QBEIXZ 0040e910 f i mem.obj
 0001:0000d930       ?size@?$vector@Umemsentinel@@V?$allocator@Umemsentinel@@@std@@@std@@QBEIXZ 0040e930 f i mem.obj
 0001:0000d950       ??0?$allocator@Umemsentinel@@@std@@QAE@XZ 0040e950 f i mem.obj
 0001:0000d960       ??0?$allocator@Umemsentinel@@@std@@QAE@ABV01@@Z 0040e960 f i mem.obj
 0001:0000d970       ?deallocate@?$allocator@Umemsentinel@@@std@@QAEXPAUmemsentinel@@I@Z 0040e970 f i mem.obj
 0001:0000d980       ??D?$_Vector_const_iterator@Umemsentinel@@V?$allocator@Umemsentinel@@@std@@@std@@QBEABUmemsentinel@@XZ 0040e980 f i mem.obj
 0001:0000d9b0       ??E?$_Vector_const_iterator@Umemsentinel@@V?$allocator@Umemsentinel@@@std@@@std@@QAEAAV01@XZ 0040e9b0 f i mem.obj
 0001:0000d9e0       ??G?$_Vector_const_iterator@Umemsentinel@@V?$allocator@Umemsentinel@@@std@@@std@@QBEHABV01@@Z 0040e9e0 f i mem.obj
 0001:0000da20       ??0?$_Iterator_with_base@Urandom_access_iterator_tag@std@@Umemsentinel@@HPBU3@ABU3@V_Iterator_base_aux@2@@std@@QAE@XZ 0040ea20 f i mem.obj
 0001:0000da30       ?max_size@?$allocator@Umemsentinel@@@std@@QBEIXZ 0040ea30 f i mem.obj
 0001:0000da40       ??8?$_Vector_const_iterator@Umemsentinel@@V?$allocator@Umemsentinel@@@std@@@std@@QBE_NABV01@@Z 0040ea40 f i mem.obj
 0001:0000da70       ??Y?$_Vector_const_iterator@Umemsentinel@@V?$allocator@Umemsentinel@@@std@@@std@@QAEAAV01@H@Z 0040ea70 f i mem.obj
 0001:0000dac0       ??$?0Umemsentinel@@@?$allocator@V_Aux_cont@std@@@std@@QAE@ABV?$allocator@Umemsentinel@@@1@@Z 0040eac0 f i mem.obj
 0001:0000dad0       ??$_Allocate@Umemsentinel@@@std@@YAPAUmemsentinel@@IPAU1@@Z 0040ead0 f i mem.obj
 0001:0000db30       ??$_Iter_random@PAUmemsentinel@@PAU1@@std@@YA?AUrandom_access_iterator_tag@0@ABQAUmemsentinel@@0@Z 0040eb30 f i mem.obj
 0001:0000db40       ??$_Ptr_cat@PAUmemsentinel@@PAU1@@std@@YA?AU_Nonscalar_ptr_iterator_tag@0@AAPAUmemsentinel@@0@Z 0040eb40 f i mem.obj
 0001:0000db50       ??$_Fill@PAUmemsentinel@@U1@@std@@YAXPAUmemsentinel@@0ABU1@@Z 0040eb50 f i mem.obj
 0001:0000db90       ??$_Move_cat@PAUmemsentinel@@@std@@YA?AU_Undefined_move_tag@0@ABQAUmemsentinel@@@Z 0040eb90 f i mem.obj
 0001:0000dba0       ??$_Checked_base@PAUmemsentinel@@@std@@YAPAUmemsentinel@@AAPAU1@U_Unchanged_checked_iterator_base_type_tag@0@@Z 0040eba0 f i mem.obj
 0001:0000dbb0       ??$_Copy_opt@PAUmemsentinel@@PAU1@Uforward_iterator_tag@std@@@std@@YAPAUmemsentinel@@PAU1@00Uforward_iterator_tag@0@U_Nonscalar_ptr_iterator_tag@0@U_Range_checked_iterator_tag@0@@Z 0040ebb0 f i mem.obj
 0001:0000dbf0       ??$_Construct@Umemsentinel@@U1@@std@@YAXPAUmemsentinel@@ABU1@@Z 0040ebf0 f i mem.obj
 0001:0000dc20       ??$_Destroy@Umemsentinel@@@std@@YAXPAUmemsentinel@@@Z 0040ec20 f i mem.obj
 0001:0000dc30       ??$_Copy_backward_opt@PAUmemsentinel@@PAU1@Uforward_iterator_tag@std@@@std@@YAPAUmemsentinel@@PAU1@00Uforward_iterator_tag@0@U_Nonscalar_ptr_iterator_tag@0@U_Range_checked_iterator_tag@0@@Z 0040ec30 f i mem.obj
 0001:0000dc80       ??1?$_Container_base_aux_alloc_real@V?$allocator@Umemsentinel@@@std@@@std@@IAE@XZ 0040ec80 f i mem.obj
 0001:0000dc90       ??D?$_Vector_iterator@Umemsentinel@@V?$allocator@Umemsentinel@@@std@@@std@@QBEAAUmemsentinel@@XZ 0040ec90 f i mem.obj
 0001:0000dcc0       ??E?$_Vector_iterator@Umemsentinel@@V?$allocator@Umemsentinel@@@std@@@std@@QAEAAV01@XZ 0040ecc0 f i mem.obj
 0001:0000dcf0       ?max_size@?$vector@Umemsentinel@@V?$allocator@Umemsentinel@@@std@@@std@@QBEIXZ 0040ecf0 f i mem.obj
 0001:0000dd00       ?allocate@?$allocator@Umemsentinel@@@std@@QAEPAUmemsentinel@@I@Z 0040ed00 f i mem.obj
 0001:0000dd20       ??9?$_Vector_const_iterator@Umemsentinel@@V?$allocator@Umemsentinel@@@std@@@std@@QBE_NABV01@@Z 0040ed20 f i mem.obj
 0001:0000dd50       ??0?$_Ranit@Umemsentinel@@HPBU1@ABU1@@std@@QAE@XZ 0040ed50 f i mem.obj
 0001:0000dd60       ??Y?$_Vector_iterator@Umemsentinel@@V?$allocator@Umemsentinel@@@std@@@std@@QAEAAV01@H@Z 0040ed60 f i mem.obj
 0001:0000dd80       ??$_Checked_base@PAUmemsentinel@@@std@@YAPAUmemsentinel@@AAPAU1@@Z 0040ed80 f i mem.obj
 0001:0000dd90       ??$_Copy_opt@PAUmemsentinel@@PAU1@@std@@YAPAUmemsentinel@@PAU1@00Urandom_access_iterator_tag@0@U_Nonscalar_ptr_iterator_tag@0@U_Range_checked_iterator_tag@0@@Z 0040ed90 f i mem.obj
 0001:0000ddf0       ?construct@?$allocator@Umemsentinel@@@std@@QAEXPAUmemsentinel@@ABU3@@Z 0040edf0 f i mem.obj
 0001:0000de30       ?destroy@?$allocator@Umemsentinel@@@std@@QAEXPAUmemsentinel@@@Z 0040ee30 f i mem.obj
 0001:0000de40       ??$_Copy_backward_opt@PAUmemsentinel@@PAU1@@std@@YAPAUmemsentinel@@PAU1@00Urandom_access_iterator_tag@0@U_Nonscalar_ptr_iterator_tag@0@U_Range_checked_iterator_tag@0@@Z 0040ee40 f i mem.obj
 0001:0000dea0       ??$_Uninit_copy@PAUmemsentinel@@PAU1@V?$allocator@Umemsentinel@@@std@@@std@@YAPAUmemsentinel@@PAU1@00AAV?$allocator@Umemsentinel@@@0@U_Nonscalar_ptr_iterator_tag@0@U_Range_checked_iterator_tag@0@@Z 0040eea0 f i mem.obj
 0001:0000def0       ??C?$_Vector_iterator@Umemsentinel@@V?$allocator@Umemsentinel@@@std@@@std@@QBEPAUmemsentinel@@XZ 0040eef0 f i mem.obj
 0001:0000df20       ??E?$_Vector_iterator@Umemsentinel@@V?$allocator@Umemsentinel@@@std@@@std@@QAE?AV01@H@Z 0040ef20 f i mem.obj
 0001:0000df60       ??1?$_Vector_val@Umemsentinel@@V?$allocator@Umemsentinel@@@std@@@std@@QAE@XZ 0040ef60 f i mem.obj
 0001:0000df70       ??0?$_Container_base_aux_alloc_real@V?$allocator@Umemsentinel@@@std@@@std@@IAE@V?$allocator@Umemsentinel@@@1@@Z 0040ef70 f i mem.obj
 0001:0000dfa0       ??H?$_Vector_iterator@Umemsentinel@@V?$allocator@Umemsentinel@@@std@@@std@@QBE?AV01@H@Z 0040efa0 f i mem.obj
 0001:0000dff0       ??0?$_Vector_const_iterator@Umemsentinel@@V?$allocator@Umemsentinel@@@std@@@std@@QAE@PAUmemsentinel@@PBV_Container_base_aux@1@@Z 0040eff0 f i mem.obj
 0001:0000e030       ??$unchecked_copy@PAUmemsentinel@@PAU1@@stdext@@YAPAUmemsentinel@@PAU1@00@Z 0040f030 f i mem.obj
 0001:0000e090       ??$fill@PAUmemsentinel@@U1@@std@@YAXPAUmemsentinel@@0ABU1@@Z 0040f090 f i mem.obj
 0001:0000e0a0       ??$_Uninit_fill_n@PAUmemsentinel@@IU1@V?$allocator@Umemsentinel@@@std@@@std@@YAXPAUmemsentinel@@IABU1@AAV?$allocator@Umemsentinel@@@0@U_Nonscalar_ptr_iterator_tag@0@U_Range_checked_iterator_tag@0@@Z 0040f0a0 f i mem.obj
 0001:0000e0f0       ??$_Destroy_range@V?$allocator@Umemsentinel@@@std@@@std@@YAXPAUmemsentinel@@0AAV?$allocator@Umemsentinel@@@0@U_Nonscalar_ptr_iterator_tag@0@@Z 0040f0f0 f i mem.obj
 0001:0000e100       ??$_Move_backward_opt@PAUmemsentinel@@PAU1@Urandom_access_iterator_tag@std@@U_Undefined_move_tag@3@@std@@YAPAUmemsentinel@@PAU1@00Urandom_access_iterator_tag@0@U_Undefined_move_tag@0@U_Range_checked_iterator_tag@0@@Z 0040f100 f i mem.obj
 0001:0000e130       ??$unchecked_uninitialized_copy@PAUmemsentinel@@PAU1@V?$allocator@Umemsentinel@@@std@@@stdext@@YAPAUmemsentinel@@PAU1@00AAV?$allocator@Umemsentinel@@@std@@@Z 0040f130 f i mem.obj
 0001:0000e160       ??0?$_Vector_val@Umemsentinel@@V?$allocator@Umemsentinel@@@std@@@std@@IAE@V?$allocator@Umemsentinel@@@1@@Z 0040f160 f i mem.obj
 0001:0000e190       ??0?$_Vector_iterator@Umemsentinel@@V?$allocator@Umemsentinel@@@std@@@std@@QAE@PAUmemsentinel@@PBV_Container_base_aux@1@@Z 0040f190 f i mem.obj
 0001:0000e1d0       ?_Make_iter@?$vector@Umemsentinel@@V?$allocator@Umemsentinel@@@std@@@std@@QBE?AV?$_Vector_iterator@Umemsentinel@@V?$allocator@Umemsentinel@@@std@@@2@V?$_Vector_const_iterator@Umemsentinel@@V?$allocator@Umemsentinel@@@std@@@2@@Z 0040f1d0 f i mem.obj
 0001:0000e210       ??$unchecked_uninitialized_fill_n@PAUmemsentinel@@IU1@V?$allocator@Umemsentinel@@@std@@@stdext@@YAXPAUmemsentinel@@IABU1@AAV?$allocator@Umemsentinel@@@std@@@Z 0040f210 f i mem.obj
 0001:0000e240       ??$_Destroy_range@V?$allocator@Umemsentinel@@@std@@@std@@YAXPAUmemsentinel@@0AAV?$allocator@Umemsentinel@@@0@@Z 0040f240 f i mem.obj
 0001:0000e250       ??$_Unchecked_move_backward@PAUmemsentinel@@PAU1@@stdext@@YAPAUmemsentinel@@PAU1@00@Z 0040f250 f i mem.obj
 0001:0000e280       ??$_Uninit_move@PAUmemsentinel@@PAU1@V?$allocator@Umemsentinel@@@std@@U_Undefined_move_tag@3@@std@@YAPAUmemsentinel@@PAU1@00AAV?$allocator@Umemsentinel@@@0@U_Undefined_move_tag@0@U_Range_checked_iterator_tag@0@@Z 0040f280 f i mem.obj
 0001:0000e2b0       ?begin@?$vector@Umemsentinel@@V?$allocator@Umemsentinel@@@std@@@std@@QAE?AV?$_Vector_iterator@Umemsentinel@@V?$allocator@Umemsentinel@@@std@@@2@XZ 0040f2b0 f i mem.obj
 0001:0000e2e0       ?end@?$vector@Umemsentinel@@V?$allocator@Umemsentinel@@@std@@@std@@QAE?AV?$_Vector_iterator@Umemsentinel@@V?$allocator@Umemsentinel@@@std@@@2@XZ 0040f2e0 f i mem.obj
 0001:0000e310       ?_Ufill@?$vector@Umemsentinel@@V?$allocator@Umemsentinel@@@std@@@std@@IAEPAUmemsentinel@@PAU3@IABU3@@Z 0040f310 f i mem.obj
 0001:0000e350       ?_Destroy@?$vector@Umemsentinel@@V?$allocator@Umemsentinel@@@std@@@std@@IAEXPAUmemsentinel@@0@Z 0040f350 f i mem.obj
 0001:0000e360       ??$_Unchecked_uninitialized_move@PAUmemsentinel@@PAU1@V?$allocator@Umemsentinel@@@std@@@stdext@@YAPAUmemsentinel@@PAU1@00AAV?$allocator@Umemsentinel@@@std@@@Z 0040f360 f i mem.obj
 0001:0000e390       ?_mem_sentinel_free@@YA_NPADPAX0H@Z 0040f390 f   mem.obj
 0001:0000e5e0       ?_mem_free@@YAXPAXPADH@Z   0040f5e0 f   mem.obj
 0001:0000e620       ?erase@?$vector@Umemsentinel@@V?$allocator@Umemsentinel@@@std@@@std@@QAE?AV?$_Vector_iterator@Umemsentinel@@V?$allocator@Umemsentinel@@@std@@@2@V?$_Vector_const_iterator@Umemsentinel@@V?$allocator@Umemsentinel@@@std@@@2@0@Z 0040f620 f i mem.obj
 0001:0000e6a0       ?_Tidy@?$vector@Umemsentinel@@V?$allocator@Umemsentinel@@@std@@@std@@IAEXXZ 0040f6a0 f i mem.obj
 0001:0000e6d0       ??$_Umove@PAUmemsentinel@@@?$vector@Umemsentinel@@V?$allocator@Umemsentinel@@@std@@@std@@IAEPAUmemsentinel@@PAU2@00@Z 0040f6d0 f i mem.obj
 0001:0000e700       ??1?$vector@Umemsentinel@@V?$allocator@Umemsentinel@@@std@@@std@@QAE@XZ 0040f700 f i mem.obj
 0001:0000e740       ?clear@?$vector@Umemsentinel@@V?$allocator@Umemsentinel@@@std@@@std@@QAEXXZ 0040f740 f i mem.obj
 0001:0000e780       ?_Xlen@?$vector@Umemsentinel@@V?$allocator@Umemsentinel@@@std@@@std@@KAXXZ 0040f780 f i mem.obj
 0001:0000e800       ?Mem_Init@@YAXXZ           0040f800 f   mem.obj
 0001:0000e8b0       ?Mem_Shutdown@@YAXXZ       0040f8b0 f   mem.obj
 0001:0000ea80       ?_Buy@?$vector@Umemsentinel@@V?$allocator@Umemsentinel@@@std@@@std@@IAE_NI@Z 0040fa80 f i mem.obj
 0001:0000ead0       ?_Insert_n@?$vector@Umemsentinel@@V?$allocator@Umemsentinel@@@std@@@std@@IAEXV?$_Vector_const_iterator@Umemsentinel@@V?$allocator@Umemsentinel@@@std@@@2@IABUmemsentinel@@@Z 0040fad0 f i mem.obj
 0001:0000ed90       ??0?$vector@Umemsentinel@@V?$allocator@Umemsentinel@@@std@@@std@@QAE@XZ 0040fd90 f i mem.obj
 0001:0000edf0       ?insert@?$vector@Umemsentinel@@V?$allocator@Umemsentinel@@@std@@@std@@QAE?AV?$_Vector_iterator@Umemsentinel@@V?$allocator@Umemsentinel@@@std@@@2@V?$_Vector_const_iterator@Umemsentinel@@V?$allocator@Umemsentinel@@@std@@@2@ABUmemsentinel@@@Z 0040fdf0 f i mem.obj
 0001:0000eec0       ?push_back@?$vector@Umemsentinel@@V?$allocator@Umemsentinel@@@std@@@std@@QAEXABUmemsentinel@@@Z 0040fec0 f i mem.obj
 0001:0000ef60       ?_mem_sentinel@@YAXPADPAXI0H@Z 0040ff60 f   mem.obj
 0001:0000f150       ?_mem_alloc@@YAPAXIPADH@Z  00410150 f   mem.obj
 0001:0000f1d0       ?OptionEnum@@YAHPBDPAUOptionNum@@H0@Z 004101d0 f   options.obj
 0001:0000f220       ?OptionBoolean@@YA_NPBD@Z  00410220 f   options.obj
 0001:0000f2a0       ?OptionScaler@@YA?AW4SCALER@@PBD@Z 004102a0 f   options.obj
 0001:0000f370       ?LoadOptions@@YAXPAD@Z     00410370 f   options.obj
 0001:0000f790       ?capacity@?$vector@UCompareOption@@V?$allocator@UCompareOption@@@std@@@std@@QBEIXZ 00410790 f i options.obj
 0001:0000f7c0       ?size@?$vector@UCompareOption@@V?$allocator@UCompareOption@@@std@@@std@@QBEIXZ 004107c0 f i options.obj
 0001:0000f7e0       ??G?$_Vector_const_iterator@UCompareOption@@V?$allocator@UCompareOption@@@std@@@std@@QBEHABV01@@Z 004107e0 f i options.obj
 0001:0000f820       ??Y?$_Vector_const_iterator@UCompareOption@@V?$allocator@UCompareOption@@@std@@@std@@QAEAAV01@H@Z 00410820 f i options.obj
 0001:0000f880       ??$_Iter_random@PAUCompareOption@@PAU1@@std@@YA?AUrandom_access_iterator_tag@0@ABQAUCompareOption@@0@Z 00410880 f i options.obj
 0001:0000f890       ??$_Move_cat@PAUCompareOption@@@std@@YA?AU_Undefined_move_tag@0@ABQAUCompareOption@@@Z 00410890 f i options.obj
 0001:0000f8a0       ??$_Checked_base@PAUCompareOption@@@std@@YAPAUCompareOption@@AAPAU1@U_Unchanged_checked_iterator_base_type_tag@0@@Z 004108a0 f i options.obj
 0001:0000f8b0       ??Y?$_Vector_iterator@UCompareOption@@V?$allocator@UCompareOption@@@std@@@std@@QAEAAV01@H@Z 004108b0 f i options.obj
 0001:0000f8d0       ??$_Checked_base@PAUCompareOption@@@std@@YAPAUCompareOption@@AAPAU1@@Z 004108d0 f i options.obj
 0001:0000f8e0       ??H?$_Vector_iterator@UCompareOption@@V?$allocator@UCompareOption@@@std@@@std@@QBE?AV01@H@Z 004108e0 f i options.obj
 0001:0000f920       ??0CompareOption@@QAE@XZ   00410920 f i options.obj
 0001:0000f940       ??0CompareOption@@QAE@ABU0@@Z 00410940 f i options.obj
 0001:0000f9c0       ??$_Construct@UCompareOption@@U1@@std@@YAXPAUCompareOption@@ABU1@@Z 004109c0 f i options.obj
 0001:0000fa20       ??4CompareOption@@QAEAAU0@ABU0@@Z 00410a20 f i options.obj
 0001:0000fa50       ?construct@?$allocator@UCompareOption@@@std@@QAEXPAUCompareOption@@ABU3@@Z 00410a50 f i options.obj
 0001:0000fa70       ??$_Copy_backward_opt@PAUCompareOption@@PAU1@Uforward_iterator_tag@std@@@std@@YAPAUCompareOption@@PAU1@00Uforward_iterator_tag@0@U_Nonscalar_ptr_iterator_tag@0@U_Range_checked_iterator_tag@0@@Z 00410a70 f i options.obj
 0001:0000fac0       ??$_Uninit_copy@PAUCompareOption@@PAU1@V?$allocator@UCompareOption@@@std@@@std@@YAPAUCompareOption@@PAU1@00AAV?$allocator@UCompareOption@@@0@U_Nonscalar_ptr_iterator_tag@0@U_Range_checked_iterator_tag@0@@Z 00410ac0 f i options.obj
 0001:0000fb70       ??$_Uninit_fill_n@PAUCompareOption@@IU1@V?$allocator@UCompareOption@@@std@@@std@@YAXPAUCompareOption@@IABU1@AAV?$allocator@UCompareOption@@@0@U_Nonscalar_ptr_iterator_tag@0@U_Range_checked_iterator_tag@0@@Z 00410b70 f i options.obj
 0001:0000fc10       ??$_Fill@PAUCompareOption@@U1@@std@@YAXPAUCompareOption@@0ABU1@@Z 00410c10 f i options.obj
 0001:0000fc50       ??$_Copy_backward_opt@PAUCompareOption@@PAU1@@std@@YAPAUCompareOption@@PAU1@00Urandom_access_iterator_tag@0@U_Nonscalar_ptr_iterator_tag@0@U_Range_checked_iterator_tag@0@@Z 00410c50 f i options.obj
 0001:0000fcc0       ??$unchecked_uninitialized_copy@PAUCompareOption@@PAU1@V?$allocator@UCompareOption@@@std@@@stdext@@YAPAUCompareOption@@PAU1@00AAV?$allocator@UCompareOption@@@std@@@Z 00410cc0 f i options.obj
 0001:0000fcf0       ??$unchecked_uninitialized_fill_n@PAUCompareOption@@IU1@V?$allocator@UCompareOption@@@std@@@stdext@@YAXPAUCompareOption@@IABU1@AAV?$allocator@UCompareOption@@@std@@@Z 00410cf0 f i options.obj
 0001:0000fd20       ??$fill@PAUCompareOption@@U1@@std@@YAXPAUCompareOption@@0ABU1@@Z 00410d20 f i options.obj
 0001:0000fd30       ??$_Move_backward_opt@PAUCompareOption@@PAU1@Urandom_access_iterator_tag@std@@U_Undefined_move_tag@3@@std@@YAPAUCompareOption@@PAU1@00Urandom_access_iterator_tag@0@U_Undefined_move_tag@0@U_Range_checked_iterator_tag@0@@Z 00410d30 f i options.obj
 0001:0000fd60       ??$_Uninit_move@PAUCompareOption@@PAU1@V?$allocator@UCompareOption@@@std@@U_Undefined_move_tag@3@@std@@YAPAUCompareOption@@PAU1@00AAV?$allocator@UCompareOption@@@0@U_Undefined_move_tag@0@U_Range_checked_iterator_tag@0@@Z 00410d60 f i options.obj
 0001:0000fd90       ?_Ufill@?$vector@UCompareOption@@V?$allocator@UCompareOption@@@std@@@std@@IAEPAUCompareOption@@PAU3@IABU3@@Z 00410d90 f i options.obj
 0001:0000fdd0       ??$_Unchecked_move_backward@PAUCompareOption@@PAU1@@stdext@@YAPAUCompareOption@@PAU1@00@Z 00410dd0 f i options.obj
 0001:0000fe00       ??$_Unchecked_uninitialized_move@PAUCompareOption@@PAU1@V?$allocator@UCompareOption@@@std@@@stdext@@YAPAUCompareOption@@PAU1@00AAV?$allocator@UCompareOption@@@std@@@Z 00410e00 f i options.obj
 0001:0000fe30       ??$_Umove@PAUCompareOption@@@?$vector@UCompareOption@@V?$allocator@UCompareOption@@@std@@@std@@IAEPAUCompareOption@@PAU2@00@Z 00410e30 f i options.obj
 0001:0000fe60       ?_Insert_n@?$vector@UCompareOption@@V?$allocator@UCompareOption@@@std@@@std@@IAEXV?$_Vector_const_iterator@UCompareOption@@V?$allocator@UCompareOption@@@std@@@2@IABUCompareOption@@@Z 00410e60 f i options.obj
 0001:000101a0       ?insert@?$vector@UCompareOption@@V?$allocator@UCompareOption@@@std@@@std@@QAE?AV?$_Vector_iterator@UCompareOption@@V?$allocator@UCompareOption@@@std@@@2@V?$_Vector_const_iterator@UCompareOption@@V?$allocator@UCompareOption@@@std@@@2@ABUCompareOption@@@Z 004111a0 f i options.obj
 0001:00010260       ?push_back@?$vector@UCompareOption@@V?$allocator@UCompareOption@@@std@@@std@@QAEXABUCompareOption@@@Z 00411260 f i options.obj
 0001:00010310       ?OptionFCList@@YA_NPAV?$vector@UCompareOption@@V?$allocator@UCompareOption@@@std@@@std@@PBD1@Z 00411310 f   options.obj
 0001:00010580       _scale2x_8_def_whole       00411580 f   scale2x.obj
 0001:000106f0       _scale2x_8_def_border      004116f0 f   scale2x.obj
 0001:000107d0       _scale2x_8_def_center      004117d0 f   scale2x.obj
 0001:00010900       _scale2x_16_def_whole      00411900 f   scale2x.obj
 0001:00010af0       _scale2x_16_def_border     00411af0 f   scale2x.obj
 0001:00010c20       _scale2x_16_def_center     00411c20 f   scale2x.obj
 0001:00010db0       _scale2x_32_def_whole      00411db0 f   scale2x.obj
 0001:00010f20       _scale2x_32_def_border     00411f20 f   scale2x.obj
 0001:00011000       _scale2x_32_def_center     00412000 f   scale2x.obj
 0001:00011130       _scale2x_8_def             00412130 f   scale2x.obj
 0001:00011170       _scale2x_16_def            00412170 f   scale2x.obj
 0001:000111b0       _scale2x_32_def            004121b0 f   scale2x.obj
 0001:000111f0       _scale2x3_8_def            004121f0 f   scale2x.obj
 0001:00011240       _scale2x3_16_def           00412240 f   scale2x.obj
 0001:00011290       _scale2x3_32_def           00412290 f   scale2x.obj
 0001:000112e0       _scale2x4_8_def            004122e0 f   scale2x.obj
 0001:00011340       _scale2x4_16_def           00412340 f   scale2x.obj
 0001:000113a0       _scale2x4_32_def           004123a0 f   scale2x.obj
 0001:00011400       _scale3x_8_def_whole       00412400 f   scale2x.obj
 0001:00011760       _scale3x_8_def_border      00412760 f   scale2x.obj
 0001:000118a0       _scale3x_8_def_center      004128a0 f   scale2x.obj
 0001:000119f0       _scale3x_16_def_whole      004129f0 f   scale2x.obj
 0001:00011e60       _scale3x_16_def_border     00412e60 f   scale2x.obj
 0001:00012020       _scale3x_16_def_center     00413020 f   scale2x.obj
 0001:000121e0       _scale3x_32_def_whole      004131e0 f   scale2x.obj
 0001:00012530       _scale3x_32_def_border     00413530 f   scale2x.obj
 0001:00012670       _scale3x_32_def_center     00413670 f   scale2x.obj
 0001:000127c0       _scale3x_8_def             004137c0 f   scale2x.obj
 0001:00012810       _scale3x_16_def            00413810 f   scale2x.obj
 0001:00012860       _scale3x_32_def            00413860 f   scale2x.obj
 0001:000128b0       _stage_scale2x             004138b0 f   scale2x.obj
 0001:00012970       _stage_scale2x3            00413970 f   scale2x.obj
 0001:00012a10       _stage_scale2x4            00413a10 f   scale2x.obj
 0001:00012ac0       _stage_scale3x             00413ac0 f   scale2x.obj
 0001:00012b60       _stage_scale4x             00413b60 f   scale2x.obj
 0001:00012bb0       _scale2x                   00413bb0 f   scale2x.obj
 0001:00012c70       _scale2x3                  00413c70 f   scale2x.obj
 0001:00012d60       _scale2x4                  00413d60 f   scale2x.obj
 0001:00012e80       _scale3x                   00413e80 f   scale2x.obj
 0001:00012f70       _scale4x_buf               00413f70 f   scale2x.obj
 0001:000132e0       _scale4x                   004142e0 f   scale2x.obj
 0001:00013340       ?sxErrorString@@YAPADH@Z   00414340 f   scale2x.obj
 0001:00013380       ?sxCheck@@YAHIEII@Z        00414380 f   scale2x.obj
 0001:000133f0       ?sxScale@@YAXIPAXIPBXIEII@Z 004143f0 f   scale2x.obj
 0001:000135f0       _fabsf                     004145f0 f i tex.obj
 0001:00013600       _ceilf                     00414600 f i tex.obj
 0001:00013620       ?ceil@@YAMM@Z              00414620 f i tex.obj
 0001:00013640       ?fabs@@YAMM@Z              00414640 f i tex.obj
 0001:00013650       ?findCodec@@YAPAUTexCodec_s@@PBD_N@Z 00414650 f   tex.obj
 0001:000136a0       ?UseCodec@@YAXPAUTexCodec_s@@@Z 004146a0 f   tex.obj
 0001:00013770       ?findTool@@YAPAUTexTool_s@@PBD_N@Z 00414770 f   tex.obj
 0001:000137c0       ?findFormat@@YAPAUTexFormat_s@@PBD_N@Z 004147c0 f   tex.obj
 0001:00013810       ?compressedTextureSize@@YAIPAULoadedImage_s@@PAUTexFormat_s@@_N2@Z 00414810 f   tex.obj
 0001:00013940       ?findContainer@@YAPAUTexContainer_s@@PBD_N@Z 00414940 f   tex.obj
 0001:00013990       ?RegisterContainer@@YAXPAUTexContainer_s@@@Z 00414990 f   tex.obj
 0001:00013a70       ?findContainerForFile@@YAPAUTexContainer_s@@PADPAEI@Z 00414a70 f   tex.obj
 0001:00013bd0       ?findProfile@@YA?AW4texprofile@@PAD@Z 00414bd0 f   tex.obj
 0001:00013c20       ?profileName@@YAPADW4texprofile@@@Z 00414c20 f   tex.obj
 0001:00013c50       ?TexDecompress_Decompress@@YAXPAUTexDecodeTask_s@@_NPAULoadedImage_s@@@Z 00414c50 f   tex.obj
 0001:00014280       ?TexDecompress@@YAPAEPAUTexEncodeTask_s@@PAI@Z 00415280 f   tex.obj
 0001:00014330       ?TexDecompress@@YA_NPAD@Z  00415330 f   tex.obj
 0001:00014400       ?TexCompress_ToolOption@@YAXPAUTexTool_s@@PBD111H@Z 00415400 f   tex.obj
 0001:00014430       ?TexCompress_PrintCodecs@@YAXXZ 00415430 f   tex.obj
 0001:00014480       ?TexCompress_PrintTools@@YAXXZ 00415480 f   tex.obj
 0001:000144d0       ?TexCompress_PrintContainers@@YAXXZ 004154d0 f   tex.obj
 0001:00014520       ?TexCompress_Help@@YAXXZ   00415520 f   tex.obj
 0001:00014550       ??A?$vector@UFS_File@@V?$allocator@UFS_File@@@std@@@std@@QAEAAUFS_File@@I@Z 00415550 f i tex.obj
 0001:00014590       ??M?$_Vector_const_iterator@PAUTexTool_s@@V?$allocator@PAUTexTool_s@@@std@@@std@@QBE_NABV01@@Z 00415590 f i tex.obj
 0001:000145c0       ??P?$_Vector_const_iterator@PAUTexTool_s@@V?$allocator@PAUTexTool_s@@@std@@@std@@QBE_NABV01@@Z 004155c0 f i tex.obj
 0001:000145f0       ??M?$_Vector_const_iterator@PAUTexFormat_s@@V?$allocator@PAUTexFormat_s@@@std@@@std@@QBE_NABV01@@Z 004155f0 f i tex.obj
 0001:00014620       ??P?$_Vector_const_iterator@PAUTexFormat_s@@V?$allocator@PAUTexFormat_s@@@std@@@std@@QBE_NABV01@@Z 00415620 f i tex.obj
 0001:00014650       ?size@?$vector@V?$basic_string@DU?$char_traits@D@std@@V?$allocator@D@2@@std@@V?$allocator@V?$basic_string@DU?$char_traits@D@std@@V?$allocator@D@2@@std@@@2@@std@@QBEIXZ 00415650 f i tex.obj
 0001:00014670       ??M?$_Vector_const_iterator@V?$basic_string@DU?$char_traits@D@std@@V?$allocator@D@2@@std@@V?$allocator@V?$basic_string@DU?$char_traits@D@std@@V?$allocator@D@2@@std@@@2@@std@@QBE_NABV01@@Z 00415670 f i tex.obj
 0001:000146a0       ?capacity@?$vector@PAUTexFormat_s@@V?$allocator@PAUTexFormat_s@@@std@@@std@@QBEIXZ 004156a0 f i tex.obj
 0001:000146c0       ?size@?$vector@PAUTexFormat_s@@V?$allocator@PAUTexFormat_s@@@std@@@std@@QBEIXZ 004156c0 f i tex.obj
 0001:000146d0       ?capacity@?$vector@PAUTexTool_s@@V?$allocator@PAUTexTool_s@@@std@@@std@@QBEIXZ 004156d0 f i tex.obj
 0001:000146f0       ?size@?$vector@PAUTexTool_s@@V?$allocator@PAUTexTool_s@@@std@@@std@@QBEIXZ 004156f0 f i tex.obj
 0001:00014700       ??D?$_Vector_const_iterator@PAUTexTool_s@@V?$allocator@PAUTexTool_s@@@std@@@std@@QBEABQAUTexTool_s@@XZ 00415700 f i tex.obj
 0001:00014730       ??D?$_Vector_const_iterator@PAUTexFormat_s@@V?$allocator@PAUTexFormat_s@@@std@@@std@@QBEABQAUTexFormat_s@@XZ 00415730 f i tex.obj
 0001:00014760       ?capacity@?$vector@V?$basic_string@DU?$char_traits@D@std@@V?$allocator@D@2@@std@@V?$allocator@V?$basic_string@DU?$char_traits@D@std@@V?$allocator@D@2@@std@@@2@@std@@QBEIXZ 00415760 f i tex.obj
 0001:00014790       ??0?$allocator@V?$basic_string@DU?$char_traits@D@std@@V?$allocator@D@2@@std@@@std@@QAE@XZ 00415790 f i tex.obj
 0001:000147a0       ??0?$_Iterator_with_base@Urandom_access_iterator_tag@std@@PAUTexTool_s@@HPBQAU3@ABQAU3@V_Iterator_base_aux@2@@std@@QAE@XZ 004157a0 f i tex.obj
 0001:000147b0       ??0?$_Iterator_with_base@Urandom_access_iterator_tag@std@@PAUTexFormat_s@@HPBQAU3@ABQAU3@V_Iterator_base_aux@2@@std@@QAE@XZ 004157b0 f i tex.obj
 0001:000147c0       ??E?$_Vector_const_iterator@PAUTexTool_s@@V?$allocator@PAUTexTool_s@@@std@@@std@@QAEAAV01@XZ 004157c0 f i tex.obj
 0001:000147f0       ??G?$_Vector_const_iterator@PAUTexTool_s@@V?$allocator@PAUTexTool_s@@@std@@@std@@QBEHABV01@@Z 004157f0 f i tex.obj
 0001:00014820       ??E?$_Vector_const_iterator@PAUTexFormat_s@@V?$allocator@PAUTexFormat_s@@@std@@@std@@QAEAAV01@XZ 00415820 f i tex.obj
 0001:00014850       ??G?$_Vector_const_iterator@PAUTexFormat_s@@V?$allocator@PAUTexFormat_s@@@std@@@std@@QBEHABV01@@Z 00415850 f i tex.obj
 0001:00014880       ??0?$allocator@V?$basic_string@DU?$char_traits@D@std@@V?$allocator@D@2@@std@@@std@@QAE@ABV01@@Z 00415880 f i tex.obj
 0001:00014890       ?deallocate@?$allocator@V?$basic_string@DU?$char_traits@D@std@@V?$allocator@D@2@@std@@@std@@QAEXPAV?$basic_string@DU?$char_traits@D@std@@V?$allocator@D@2@@2@I@Z 00415890 f i tex.obj
 0001:000148a0       ??D?$_Vector_const_iterator@V?$basic_string@DU?$char_traits@D@std@@V?$allocator@D@2@@std@@V?$allocator@V?$basic_string@DU?$char_traits@D@std@@V?$allocator@D@2@@std@@@2@@std@@QBEABV?$basic_string@DU?$char_traits@D@std@@V?$allocator@D@2@@1@XZ 004158a0 f i tex.obj
 0001:000148d0       ??E?$_Vector_const_iterator@V?$basic_string@DU?$char_traits@D@std@@V?$allocator@D@2@@std@@V?$allocator@V?$basic_string@DU?$char_traits@D@std@@V?$allocator@D@2@@std@@@2@@std@@QAEAAV01@XZ 004158d0 f i tex.obj
 0001:00014900       ??G?$_Vector_const_iterator@V?$basic_string@DU?$char_traits@D@std@@V?$allocator@D@2@@std@@V?$allocator@V?$basic_string@DU?$char_traits@D@std@@V?$allocator@D@2@@std@@@2@@std@@QBEHABV01@@Z 00415900 f i tex.obj
 0001:00014940       ??0?$_Iterator_with_base@Urandom_access_iterator_tag@std@@V?$basic_string@DU?$char_traits@D@std@@V?$allocator@D@2@@2@HPBV32@ABV32@V_Iterator_base_aux@2@@std@@QAE@XZ 00415940 f i tex.obj
 0001:00014950       ?max_size@?$allocator@V?$basic_string@DU?$char_traits@D@std@@V?$allocator@D@2@@std@@@std@@QBEIXZ 00415950 f i tex.obj
 0001:00014960       ??8?$_Vector_const_iterator@V?$basic_string@DU?$char_traits@D@std@@V?$allocator@D@2@@std@@V?$allocator@V?$basic_string@DU?$char_traits@D@std@@V?$allocator@D@2@@std@@@2@@std@@QBE_NABV01@@Z 00415960 f i tex.obj
 0001:00014990       ??8?$_Vector_const_iterator@UFS_File@@V?$allocator@UFS_File@@@std@@@std@@QBE_NABV01@@Z 00415990 f i tex.obj
 0001:000149c0       ??8?$_Vector_const_iterator@UCompareOption@@V?$allocator@UCompareOption@@@std@@@std@@QBE_NABV01@@Z 004159c0 f i tex.obj
 0001:000149f0       ??Y?$_Vector_const_iterator@PAUTexTool_s@@V?$allocator@PAUTexTool_s@@@std@@@std@@QAEAAV01@H@Z 004159f0 f i tex.obj
 0001:00014a40       ??Y?$_Vector_const_iterator@PAUTexFormat_s@@V?$allocator@PAUTexFormat_s@@@std@@@std@@QAEAAV01@H@Z 00415a40 f i tex.obj
 0001:00014a90       ??Y?$_Vector_const_iterator@V?$basic_string@DU?$char_traits@D@std@@V?$allocator@D@2@@std@@V?$allocator@V?$basic_string@DU?$char_traits@D@std@@V?$allocator@D@2@@std@@@2@@std@@QAEAAV01@H@Z 00415a90 f i tex.obj
 0001:00014af0       ??$?0V?$basic_string@DU?$char_traits@D@std@@V?$allocator@D@2@@std@@@?$allocator@V_Aux_cont@std@@@std@@QAE@ABV?$allocator@V?$basic_string@DU?$char_traits@D@std@@V?$allocator@D@2@@std@@@1@@Z 00415af0 f i tex.obj
 0001:00014b00       ??$_Allocate@V?$basic_string@DU?$char_traits@D@std@@V?$allocator@D@2@@std@@@std@@YAPAV?$basic_string@DU?$char_traits@D@std@@V?$allocator@D@2@@0@IPAV10@@Z 00415b00 f i tex.obj
 0001:00014b70       ??$_Iter_random@PAV?$basic_string@DU?$char_traits@D@std@@V?$allocator@D@2@@std@@PAV12@@std@@YA?AUrandom_access_iterator_tag@0@ABQAV?$basic_string@DU?$char_traits@D@std@@V?$allocator@D@2@@0@0@Z 00415b70 f i tex.obj
 0001:00014b80       ??$_Ptr_cat@PAV?$basic_string@DU?$char_traits@D@std@@V?$allocator@D@2@@std@@PAV12@@std@@YA?AU_Nonscalar_ptr_iterator_tag@0@AAPAV?$basic_string@DU?$char_traits@D@std@@V?$allocator@D@2@@0@0@Z 00415b80 f i tex.obj
 0001:00014b90       ??$_Fill@PAPAUTexFormat_s@@PAU1@@std@@YAXPAPAUTexFormat_s@@0ABQAU1@@Z 00415b90 f i tex.obj
 0001:00014bb0       ??$_Iter_random@PAPAUTexFormat_s@@PAPAU1@@std@@YA?AUrandom_access_iterator_tag@0@ABQAPAUTexFormat_s@@0@Z 00415bb0 f i tex.obj
 0001:00014bc0       ??$_Move_cat@PAPAUTexFormat_s@@@std@@YA?AU_Undefined_move_tag@0@ABQAPAUTexFormat_s@@@Z 00415bc0 f i tex.obj
 0001:00014bd0       ??$_Fill@PAPAUTexTool_s@@PAU1@@std@@YAXPAPAUTexTool_s@@0ABQAU1@@Z 00415bd0 f i tex.obj
 0001:00014bf0       ??$_Iter_random@PAPAUTexTool_s@@PAPAU1@@std@@YA?AUrandom_access_iterator_tag@0@ABQAPAUTexTool_s@@0@Z 00415bf0 f i tex.obj
 0001:00014c00       ??$_Move_cat@PAPAUTexTool_s@@@std@@YA?AU_Undefined_move_tag@0@ABQAPAUTexTool_s@@@Z 00415c00 f i tex.obj
 0001:00014c10       ??$_Move_cat@PAV?$basic_string@DU?$char_traits@D@std@@V?$allocator@D@2@@std@@@std@@YA?AU_Swap_move_tag@0@ABQAV?$basic_string@DU?$char_traits@D@std@@V?$allocator@D@2@@0@@Z 00415c10 f i tex.obj
 0001:00014c20       ??$_Checked_base@PAV?$basic_string@DU?$char_traits@D@std@@V?$allocator@D@2@@std@@@std@@YAPAV?$basic_string@DU?$char_traits@D@std@@V?$allocator@D@2@@0@AAPAV10@U_Unchanged_checked_iterator_base_type_tag@0@@Z 00415c20 f i tex.obj
 0001:00014c30       ??$_Checked_base@PAPAUTexFormat_s@@@std@@YAPAPAUTexFormat_s@@AAPAPAU1@U_Unchanged_checked_iterator_base_type_tag@0@@Z 00415c30 f i tex.obj
 0001:00014c40       ??$_Copy_backward_opt@PAPAUTexFormat_s@@PAPAU1@Urandom_access_iterator_tag@std@@@std@@YAPAPAUTexFormat_s@@PAPAU1@00Urandom_access_iterator_tag@0@U_Scalar_ptr_iterator_tag@0@U_Range_checked_iterator_tag@0@@Z 00415c40 f i tex.obj
 0001:00014c70       ??$_Checked_base@PAPAUTexTool_s@@@std@@YAPAPAUTexTool_s@@AAPAPAU1@U_Unchanged_checked_iterator_base_type_tag@0@@Z 00415c70 f i tex.obj
 0001:00014c80       ??$_Copy_backward_opt@PAPAUTexTool_s@@PAPAU1@Urandom_access_iterator_tag@std@@@std@@YAPAPAUTexTool_s@@PAPAU1@00Urandom_access_iterator_tag@0@U_Scalar_ptr_iterator_tag@0@U_Range_checked_iterator_tag@0@@Z 00415c80 f i tex.obj
 0001:00014cb0       ??$_Iter_cat@PAPAUTexFormat_s@@@std@@YA?AUrandom_access_iterator_tag@0@ABQAPAUTexFormat_s@@@Z 00415cb0 f i tex.obj
 0001:00014cc0       ??$_Iter_cat@PAPAUTexTool_s@@@std@@YA?AUrandom_access_iterator_tag@0@ABQAPAUTexTool_s@@@Z 00415cc0 f i tex.obj
 0001:00014cd0       ??$_Fill_n@PAPAUTexFormat_s@@IPAU1@@std@@YAXPAPAUTexFormat_s@@IABQAU1@U_Range_checked_iterator_tag@0@@Z 00415cd0 f i tex.obj
 0001:00014cf0       ??$_Fill_n@PAPAUTexTool_s@@IPAU1@@std@@YAXPAPAUTexTool_s@@IABQAU1@U_Range_checked_iterator_tag@0@@Z 00415cf0 f i tex.obj
 0001:00014d10       ??$_Uninit_copy@PAPAUTexFormat_s@@PAPAU1@V?$allocator@PAUTexFormat_s@@@std@@@std@@YAPAPAUTexFormat_s@@PAPAU1@00AAV?$allocator@PAUTexFormat_s@@@0@U_Scalar_ptr_iterator_tag@0@U_Range_checked_iterator_tag@0@@Z 00415d10 f i tex.obj
 0001:00014d50       ??$_Uninit_copy@PAPAUTexTool_s@@PAPAU1@V?$allocator@PAUTexTool_s@@@std@@@std@@YAPAPAUTexTool_s@@PAPAU1@00AAV?$allocator@PAUTexTool_s@@@0@U_Scalar_ptr_iterator_tag@0@U_Range_checked_iterator_tag@0@@Z 00415d50 f i tex.obj
 0001:00014d90       ??$?8DD@std@@YA_NABV?$allocator@D@0@0@Z 00415d90 f i tex.obj
 0001:00014da0       ??D?$_Vector_iterator@PAUTexTool_s@@V?$allocator@PAUTexTool_s@@@std@@@std@@QBEAAPAUTexTool_s@@XZ 00415da0 f i tex.obj
 0001:00014dd0       ??D?$_Vector_iterator@PAUTexFormat_s@@V?$allocator@PAUTexFormat_s@@@std@@@std@@QBEAAPAUTexFormat_s@@XZ 00415dd0 f i tex.obj
 0001:00014e00       ??E?$_Vector_iterator@PAUTexTool_s@@V?$allocator@PAUTexTool_s@@@std@@@std@@QAEAAV01@XZ 00415e00 f i tex.obj
 0001:00014e30       ??E?$_Vector_iterator@PAUTexFormat_s@@V?$allocator@PAUTexFormat_s@@@std@@@std@@QAEAAV01@XZ 00415e30 f i tex.obj
 0001:00014e60       ??1?$_Container_base_aux_alloc_real@V?$allocator@V?$basic_string@DU?$char_traits@D@std@@V?$allocator@D@2@@std@@@std@@@std@@IAE@XZ 00415e60 f i tex.obj
 0001:00014e70       ??D?$_Vector_iterator@V?$basic_string@DU?$char_traits@D@std@@V?$allocator@D@2@@std@@V?$allocator@V?$basic_string@DU?$char_traits@D@std@@V?$allocator@D@2@@std@@@2@@std@@QBEAAV?$basic_string@DU?$char_traits@D@std@@V?$allocator@D@2@@1@XZ 00415e70 f i tex.obj
 0001:00014ea0       ??E?$_Vector_iterator@V?$basic_string@DU?$char_traits@D@std@@V?$allocator@D@2@@std@@V?$allocator@V?$basic_string@DU?$char_traits@D@std@@V?$allocator@D@2@@std@@@2@@std@@QAEAAV01@XZ 00415ea0 f i tex.obj
 0001:00014ed0       ??0?$_Ranit@PAUTexTool_s@@HPBQAU1@ABQAU1@@std@@QAE@XZ 00415ed0 f i tex.obj
 0001:00014ee0       ??0?$_Ranit@PAUTexFormat_s@@HPBQAU1@ABQAU1@@std@@QAE@XZ 00415ee0 f i tex.obj
 0001:00014ef0       ??0?$_Vector_const_iterator@PAUTexTool_s@@V?$allocator@PAUTexTool_s@@@std@@@std@@QAE@PAPAUTexTool_s@@PBV_Container_base_aux@1@@Z 00415ef0 f i tex.obj
 0001:00014f30       ??0?$_Vector_const_iterator@PAUTexFormat_s@@V?$allocator@PAUTexFormat_s@@@std@@@std@@QAE@PAPAUTexFormat_s@@PBV_Container_base_aux@1@@Z 00415f30 f i tex.obj
 0001:00014f70       ?max_size@?$vector@V?$basic_string@DU?$char_traits@D@std@@V?$allocator@D@2@@std@@V?$allocator@V?$basic_string@DU?$char_traits@D@std@@V?$allocator@D@2@@std@@@2@@std@@QBEIXZ 00415f70 f i tex.obj
 0001:00014f80       ?allocate@?$allocator@V?$basic_string@DU?$char_traits@D@std@@V?$allocator@D@2@@std@@@std@@QAEPAV?$basic_string@DU?$char_traits@D@std@@V?$allocator@D@2@@2@I@Z 00415f80 f i tex.obj
 0001:00014fa0       ??9?$_Vector_const_iterator@V?$basic_string@DU?$char_traits@D@std@@V?$allocator@D@2@@std@@V?$allocator@V?$basic_string@DU?$char_traits@D@std@@V?$allocator@D@2@@std@@@2@@std@@QBE_NABV01@@Z 00415fa0 f i tex.obj
 0001:00014fd0       ??9?$_Vector_const_iterator@UFS_File@@V?$allocator@UFS_File@@@std@@@std@@QBE_NABV01@@Z 00415fd0 f i tex.obj
 0001:00015000       ??9?$_Vector_const_iterator@UCompareOption@@V?$allocator@UCompareOption@@@std@@@std@@QBE_NABV01@@Z 00416000 f i tex.obj
 0001:00015030       ??0?$_Ranit@V?$basic_string@DU?$char_traits@D@std@@V?$allocator@D@2@@std@@HPBV12@ABV12@@std@@QAE@XZ 00416030 f i tex.obj
 0001:00015040       ??Y?$_Vector_iterator@PAUTexTool_s@@V?$allocator@PAUTexTool_s@@@std@@@std@@QAEAAV01@H@Z 00416040 f i tex.obj
 0001:00015090       ??Y?$_Vector_iterator@PAUTexFormat_s@@V?$allocator@PAUTexFormat_s@@@std@@@std@@QAEAAV01@H@Z 00416090 f i tex.obj
 0001:000150e0       ??Y?$_Vector_iterator@V?$basic_string@DU?$char_traits@D@std@@V?$allocator@D@2@@std@@V?$allocator@V?$basic_string@DU?$char_traits@D@std@@V?$allocator@D@2@@std@@@2@@std@@QAEAAV01@H@Z 004160e0 f i tex.obj
 0001:00015100       ??$_Checked_base@PAV?$basic_string@DU?$char_traits@D@std@@V?$allocator@D@2@@std@@@std@@YAPAV?$basic_string@DU?$char_traits@D@std@@V?$allocator@D@2@@0@AAPAV10@@Z 00416100 f i tex.obj
 0001:00015110       ??$_Checked_base@PAPAUTexFormat_s@@@std@@YAPAPAUTexFormat_s@@AAPAPAU1@@Z 00416110 f i tex.obj
 0001:00015120       ??$_Move_backward_opt@PAPAUTexFormat_s@@PAPAU1@Urandom_access_iterator_tag@std@@U_Undefined_move_tag@3@@std@@YAPAPAUTexFormat_s@@PAPAU1@00Urandom_access_iterator_tag@0@U_Undefined_move_tag@0@U_Range_checked_iterator_tag@0@@Z 00416120 f i tex.obj
 0001:00015150       ??$_Checked_base@PAPAUTexTool_s@@@std@@YAPAPAUTexTool_s@@AAPAPAU1@@Z 00416150 f i tex.obj
 0001:00015160       ??$_Move_backward_opt@PAPAUTexTool_s@@PAPAU1@Urandom_access_iterator_tag@std@@U_Undefined_move_tag@3@@std@@YAPAPAUTexTool_s@@PAPAU1@00Urandom_access_iterator_tag@0@U_Undefined_move_tag@0@U_Range_checked_iterator_tag@0@@Z 00416160 f i tex.obj
 0001:00015190       ??$_Fill_n@PAPAUTexFormat_s@@IPAU1@@std@@YAXPAPAUTexFormat_s@@IABQAU1@Urandom_access_iterator_tag@0@U_Range_checked_iterator_tag@0@@Z 00416190 f i tex.obj
 0001:000151b0       ??$_Fill_n@PAPAUTexTool_s@@IPAU1@@std@@YAXPAPAUTexTool_s@@IABQAU1@Urandom_access_iterator_tag@0@U_Range_checked_iterator_tag@0@@Z 004161b0 f i tex.obj
 0001:000151d0       ??$unchecked_uninitialized_copy@PAPAUTexFormat_s@@PAPAU1@V?$allocator@PAUTexFormat_s@@@std@@@stdext@@YAPAPAUTexFormat_s@@PAPAU1@00AAV?$allocator@PAUTexFormat_s@@@std@@@Z 004161d0 f i tex.obj
 0001:00015210       ??$unchecked_uninitialized_copy@PAPAUTexTool_s@@PAPAU1@V?$allocator@PAUTexTool_s@@@std@@@stdext@@YAPAPAUTexTool_s@@PAPAU1@00AAV?$allocator@PAUTexTool_s@@@std@@@Z 00416210 f i tex.obj
 0001:00015250       ?TexCompress_MainThread@@YAXPAUThreadData@@@Z 00416250 f   tex.obj
 0001:00015710       ??E?$_Vector_iterator@PAUTexTool_s@@V?$allocator@PAUTexTool_s@@@std@@@std@@QAE?AV01@H@Z 00416710 f i tex.obj
 0001:00015750       ??E?$_Vector_iterator@PAUTexFormat_s@@V?$allocator@PAUTexFormat_s@@@std@@@std@@QAE?AV01@H@Z 00416750 f i tex.obj
 0001:00015790       ??C?$_Vector_iterator@V?$basic_string@DU?$char_traits@D@std@@V?$allocator@D@2@@std@@V?$allocator@V?$basic_string@DU?$char_traits@D@std@@V?$allocator@D@2@@std@@@2@@std@@QBEPAV?$basic_string@DU?$char_traits@D@std@@V?$allocator@D@2@@1@XZ 00416790 f i tex.obj
 0001:000157c0       ??E?$_Vector_iterator@V?$basic_string@DU?$char_traits@D@std@@V?$allocator@D@2@@std@@V?$allocator@V?$basic_string@DU?$char_traits@D@std@@V?$allocator@D@2@@std@@@2@@std@@QAE?AV01@H@Z 004167c0 f i tex.obj
 0001:00015800       ??1?$_Vector_val@V?$basic_string@DU?$char_traits@D@std@@V?$allocator@D@2@@std@@V?$allocator@V?$basic_string@DU?$char_traits@D@std@@V?$allocator@D@2@@std@@@2@@std@@QAE@XZ 00416800 f i tex.obj
 0001:00015810       ??0?$_Vector_iterator@PAUTexTool_s@@V?$allocator@PAUTexTool_s@@@std@@@std@@QAE@PAPAUTexTool_s@@PBV_Container_base_aux@1@@Z 00416810 f i tex.obj
 0001:00015850       ??0?$_Vector_const_iterator@PAUTexTool_s@@V?$allocator@PAUTexTool_s@@@std@@@std@@QAE@XZ 00416850 f i tex.obj
 0001:00015860       ??0?$_Vector_iterator@PAUTexFormat_s@@V?$allocator@PAUTexFormat_s@@@std@@@std@@QAE@PAPAUTexFormat_s@@PBV_Container_base_aux@1@@Z 00416860 f i tex.obj
 0001:000158a0       ??0?$_Vector_const_iterator@PAUTexFormat_s@@V?$allocator@PAUTexFormat_s@@@std@@@std@@QAE@XZ 004168a0 f i tex.obj
 0001:000158b0       ??H?$_Vector_iterator@PAUTexTool_s@@V?$allocator@PAUTexTool_s@@@std@@@std@@QBE?AV01@H@Z 004168b0 f i tex.obj
 0001:00015900       ??H?$_Vector_iterator@PAUTexFormat_s@@V?$allocator@PAUTexFormat_s@@@std@@@std@@QBE?AV01@H@Z 00416900 f i tex.obj
 0001:00015950       ??0?$_Container_base_aux_alloc_real@V?$allocator@V?$basic_string@DU?$char_traits@D@std@@V?$allocator@D@2@@std@@@std@@@std@@IAE@V?$allocator@V?$basic_string@DU?$char_traits@D@std@@V?$allocator@D@2@@std@@@1@@Z 00416950 f i tex.obj
 0001:00015980       ??H?$_Vector_iterator@V?$basic_string@DU?$char_traits@D@std@@V?$allocator@D@2@@std@@V?$allocator@V?$basic_string@DU?$char_traits@D@std@@V?$allocator@D@2@@std@@@2@@std@@QBE?AV01@H@Z 00416980 f i tex.obj
 0001:000159c0       ??0?$_Vector_const_iterator@V?$basic_string@DU?$char_traits@D@std@@V?$allocator@D@2@@std@@V?$allocator@V?$basic_string@DU?$char_traits@D@std@@V?$allocator@D@2@@std@@@2@@std@@QAE@PAV?$basic_string@DU?$char_traits@D@std@@V?$allocator@D@2@@1@PBV_Container_base_aux@1@@Z 004169c0 f i tex.obj
 0001:00015a00       ??$fill@PAPAUTexFormat_s@@PAU1@@std@@YAXPAPAUTexFormat_s@@0ABQAU1@@Z 00416a00 f i tex.obj
 0001:00015a20       ??$_Unchecked_move_backward@PAPAUTexFormat_s@@PAPAU1@@stdext@@YAPAPAUTexFormat_s@@PAPAU1@00@Z 00416a20 f i tex.obj
 0001:00015a50       ??$fill@PAPAUTexTool_s@@PAU1@@std@@YAXPAPAUTexTool_s@@0ABQAU1@@Z 00416a50 f i tex.obj
 0001:00015a70       ??$_Unchecked_move_backward@PAPAUTexTool_s@@PAPAU1@@stdext@@YAPAPAUTexTool_s@@PAPAU1@00@Z 00416a70 f i tex.obj
 0001:00015aa0       ??$unchecked_fill_n@PAPAUTexFormat_s@@IPAU1@@stdext@@YAXPAPAUTexFormat_s@@IABQAU1@@Z 00416aa0 f i tex.obj
 0001:00015ac0       ??$unchecked_fill_n@PAPAUTexTool_s@@IPAU1@@stdext@@YAXPAPAUTexTool_s@@IABQAU1@@Z 00416ac0 f i tex.obj
 0001:00015ae0       ??$_Uninit_move@PAPAUTexFormat_s@@PAPAU1@V?$allocator@PAUTexFormat_s@@@std@@U_Undefined_move_tag@3@@std@@YAPAPAUTexFormat_s@@PAPAU1@00AAV?$allocator@PAUTexFormat_s@@@0@U_Undefined_move_tag@0@U_Range_checked_iterator_tag@0@@Z 00416ae0 f i tex.obj
 0001:00015b20       ??$_Uninit_move@PAPAUTexTool_s@@PAPAU1@V?$allocator@PAUTexTool_s@@@std@@U_Undefined_move_tag@3@@std@@YAPAPAUTexTool_s@@PAPAU1@00AAV?$allocator@PAUTexTool_s@@@0@U_Undefined_move_tag@0@U_Range_checked_iterator_tag@0@@Z 00416b20 f i tex.obj
 0001:00015b60       ?begin@?$vector@PAUTexFormat_s@@V?$allocator@PAUTexFormat_s@@@std@@@std@@QAE?AV?$_Vector_iterator@PAUTexFormat_s@@V?$allocator@PAUTexFormat_s@@@std@@@2@XZ 00416b60 f i tex.obj
 0001:00015b90       ?end@?$vector@PAUTexFormat_s@@V?$allocator@PAUTexFormat_s@@@std@@@std@@QAE?AV?$_Vector_iterator@PAUTexFormat_s@@V?$allocator@PAUTexFormat_s@@@std@@@2@XZ 00416b90 f i tex.obj
 0001:00015bc0       ?begin@?$vector@PAUTexTool_s@@V?$allocator@PAUTexTool_s@@@std@@@std@@QAE?AV?$_Vector_iterator@PAUTexTool_s@@V?$allocator@PAUTexTool_s@@@std@@@2@XZ 00416bc0 f i tex.obj
 0001:00015bf0       ?end@?$vector@PAUTexTool_s@@V?$allocator@PAUTexTool_s@@@std@@@std@@QAE?AV?$_Vector_iterator@PAUTexTool_s@@V?$allocator@PAUTexTool_s@@@std@@@2@XZ 00416bf0 f i tex.obj
 0001:00015c20       ??0?$_Vector_iterator@PAUTexTool_s@@V?$allocator@PAUTexTool_s@@@std@@@std@@QAE@XZ 00416c20 f i tex.obj
 0001:00015c30       ??0?$_Vector_iterator@PAUTexFormat_s@@V?$allocator@PAUTexFormat_s@@@std@@@std@@QAE@XZ 00416c30 f i tex.obj
 0001:00015c40       ??0?$_Vector_val@V?$basic_string@DU?$char_traits@D@std@@V?$allocator@D@2@@std@@V?$allocator@V?$basic_string@DU?$char_traits@D@std@@V?$allocator@D@2@@std@@@2@@std@@IAE@V?$allocator@V?$basic_string@DU?$char_traits@D@std@@V?$allocator@D@2@@std@@@1@@Z 00416c40 f i tex.obj
 0001:00015c70       ??0?$_Vector_iterator@V?$basic_string@DU?$char_traits@D@std@@V?$allocator@D@2@@std@@V?$allocator@V?$basic_string@DU?$char_traits@D@std@@V?$allocator@D@2@@std@@@2@@std@@QAE@PAV?$basic_string@DU?$char_traits@D@std@@V?$allocator@D@2@@1@PBV_Container_base_aux@1@@Z 00416c70 f i tex.obj
 0001:00015cb0       ?_Make_iter@?$vector@V?$basic_string@DU?$char_traits@D@std@@V?$allocator@D@2@@std@@V?$allocator@V?$basic_string@DU?$char_traits@D@std@@V?$allocator@D@2@@std@@@2@@std@@QBE?AV?$_Vector_iterator@V?$basic_string@DU?$char_traits@D@std@@V?$allocator@D@2@@std@@V?$allocator@V?$basic_string@DU?$char_traits@D@std@@V?$allocator@D@2@@std@@@2@@2@V?$_Vector_const_iterator@V?$basic_string@DU?$char_traits@D@std@@V?$allocator@D@2@@std@@V?$allocator@V?$basic_string@DU?$char_traits@D@std@@V?$allocator@D@2@@std@@@2@@2@@Z 00416cb0 f i tex.obj
 0001:00015cf0       ??$_Uninit_fill_n@PAPAUTexFormat_s@@IPAU1@V?$allocator@PAUTexFormat_s@@@std@@@std@@YAXPAPAUTexFormat_s@@IABQAU1@AAV?$allocator@PAUTexFormat_s@@@0@U_Scalar_ptr_iterator_tag@0@U_Range_checked_iterator_tag@0@@Z 00416cf0 f i tex.obj
 0001:00015d10       ??$_Uninit_fill_n@PAPAUTexTool_s@@IPAU1@V?$allocator@PAUTexTool_s@@@std@@@std@@YAXPAPAUTexTool_s@@IABQAU1@AAV?$allocator@PAUTexTool_s@@@0@U_Scalar_ptr_iterator_tag@0@U_Range_checked_iterator_tag@0@@Z 00416d10 f i tex.obj
 0001:00015d30       ??$_Unchecked_uninitialized_move@PAPAUTexFormat_s@@PAPAU1@V?$allocator@PAUTexFormat_s@@@std@@@stdext@@YAPAPAUTexFormat_s@@PAPAU1@00AAV?$allocator@PAUTexFormat_s@@@std@@@Z 00416d30 f i tex.obj
 0001:00015d70       ??$_Unchecked_uninitialized_move@PAPAUTexTool_s@@PAPAU1@V?$allocator@PAUTexTool_s@@@std@@@stdext@@YAPAPAUTexTool_s@@PAPAU1@00AAV?$allocator@PAUTexTool_s@@@std@@@Z 00416d70 f i tex.obj
 0001:00015db0       ??_G?$basic_string@DU?$char_traits@D@std@@V?$allocator@D@2@@std@@QAEPAXI@Z 00416db0 f i tex.obj
 0001:00015df0       ?findFormatByFourCC@@YA_NKPAPAUTexCodec_s@@PAPAUTexFormat_s@@@Z 00416df0 f   tex.obj
 0001:00015ec0       ?TexCompress@@YAXPAUTexEncodeTask_s@@@Z 00416ec0 f   tex.obj
 0001:00016320       ?TexCompress_WorkerThread@@YAXPAUThreadData@@@Z 00417320 f   tex.obj
 0001:000169e0       ?TexCompress_CodecOption@@YAXPAUTexCodec_s@@PBD111H@Z 004179e0 f   tex.obj
 0001:00016ea0       ?TexCompress_Load@@YAXXZ   00417ea0 f   tex.obj
 0001:000173c0       ?begin@?$vector@V?$basic_string@DU?$char_traits@D@std@@V?$allocator@D@2@@std@@V?$allocator@V?$basic_string@DU?$char_traits@D@std@@V?$allocator@D@2@@std@@@2@@std@@QAE?AV?$_Vector_iterator@V?$basic_string@DU?$char_traits@D@std@@V?$allocator@D@2@@std@@V?$allocator@V?$basic_string@DU?$char_traits@D@std@@V?$allocator@D@2@@std@@@2@@2@XZ 004183c0 f i tex.obj
 0001:000173f0       ?end@?$vector@V?$basic_string@DU?$char_traits@D@std@@V?$allocator@D@2@@std@@V?$allocator@V?$basic_string@DU?$char_traits@D@std@@V?$allocator@D@2@@std@@@2@@std@@QAE?AV?$_Vector_iterator@V?$basic_string@DU?$char_traits@D@std@@V?$allocator@D@2@@std@@V?$allocator@V?$basic_string@DU?$char_traits@D@std@@V?$allocator@D@2@@std@@@2@@2@XZ 004183f0 f i tex.obj
 0001:00017420       ?_Make_iter@?$vector@UFS_File@@V?$allocator@UFS_File@@@std@@@std@@QBE?AV?$_Vector_iterator@UFS_File@@V?$allocator@UFS_File@@@std@@@2@V?$_Vector_const_iterator@UFS_File@@V?$allocator@UFS_File@@@std@@@2@@Z 00418420 f i tex.obj
 0001:00017460       ?_Make_iter@?$vector@UCompareOption@@V?$allocator@UCompareOption@@@std@@@std@@QBE?AV?$_Vector_iterator@UCompareOption@@V?$allocator@UCompareOption@@@std@@@2@V?$_Vector_const_iterator@UCompareOption@@V?$allocator@UCompareOption@@@std@@@2@@Z 00418460 f i tex.obj
 0001:000174a0       ??$unchecked_uninitialized_fill_n@PAPAUTexFormat_s@@IPAU1@V?$allocator@PAUTexFormat_s@@@std@@@stdext@@YAXPAPAUTexFormat_s@@IABQAU1@AAV?$allocator@PAUTexFormat_s@@@std@@@Z 004184a0 f i tex.obj
 0001:000174c0       ??$unchecked_uninitialized_fill_n@PAPAUTexTool_s@@IPAU1@V?$allocator@PAUTexTool_s@@@std@@@stdext@@YAXPAPAUTexTool_s@@IABQAU1@AAV?$allocator@PAUTexTool_s@@@std@@@Z 004184c0 f i tex.obj
 0001:000174e0       ??$_Umove@PAPAUTexFormat_s@@@?$vector@PAUTexFormat_s@@V?$allocator@PAUTexFormat_s@@@std@@@std@@IAEPAPAUTexFormat_s@@PAPAU2@00@Z 004184e0 f i tex.obj
 0001:00017520       ??$_Umove@PAPAUTexTool_s@@@?$vector@PAUTexTool_s@@V?$allocator@PAUTexTool_s@@@std@@@std@@IAEPAPAUTexTool_s@@PAPAU2@00@Z 00418520 f i tex.obj
 0001:00017560       ??$_Destroy@V?$basic_string@DU?$char_traits@D@std@@V?$allocator@D@2@@std@@@std@@YAXPAV?$basic_string@DU?$char_traits@D@std@@V?$allocator@D@2@@0@@Z 00418560 f i tex.obj
 0001:00017590       ?_Ufill@?$vector@PAUTexFormat_s@@V?$allocator@PAUTexFormat_s@@@std@@@std@@IAEPAPAUTexFormat_s@@PAPAU3@IABQAU3@@Z 00418590 f i tex.obj
 0001:000175c0       ?_Ufill@?$vector@PAUTexTool_s@@V?$allocator@PAUTexTool_s@@@std@@@std@@IAEPAPAUTexTool_s@@PAPAU3@IABQAU3@@Z 004185c0 f i tex.obj
 0001:000175f0       ?destroy@?$allocator@V?$basic_string@DU?$char_traits@D@std@@V?$allocator@D@2@@std@@@std@@QAEXPAV?$basic_string@DU?$char_traits@D@std@@V?$allocator@D@2@@2@@Z 004185f0 f i tex.obj
 0001:00017620       ??$_Copy_opt@PAV?$basic_string@DU?$char_traits@D@std@@V?$allocator@D@2@@std@@PAV12@Uforward_iterator_tag@2@@std@@YAPAV?$basic_string@DU?$char_traits@D@std@@V?$allocator@D@2@@0@PAV10@00Uforward_iterator_tag@0@U_Nonscalar_ptr_iterator_tag@0@U_Range_checked_iterator_tag@0@@Z 00418620 f i tex.obj
 0001:00017660       ??$_Construct@V?$basic_string@DU?$char_traits@D@std@@V?$allocator@D@2@@std@@V12@@std@@YAXPAV?$basic_string@DU?$char_traits@D@std@@V?$allocator@D@2@@0@ABV10@@Z 00418660 f i tex.obj
 0001:000176d0       ?swap@?$basic_string@DU?$char_traits@D@std@@V?$allocator@D@2@@std@@QAEXAAV12@@Z 004186d0 f i tex.obj
 0001:00017750       ?_Xlen@?$vector@V?$basic_string@DU?$char_traits@D@std@@V?$allocator@D@2@@std@@V?$allocator@V?$basic_string@DU?$char_traits@D@std@@V?$allocator@D@2@@std@@@2@@std@@KAXXZ 00418750 f i tex.obj
 0001:000177d0       ??$_Copy_opt@PAV?$basic_string@DU?$char_traits@D@std@@V?$allocator@D@2@@std@@PAV12@@std@@YAPAV?$basic_string@DU?$char_traits@D@std@@V?$allocator@D@2@@0@PAV10@00Urandom_access_iterator_tag@0@U_Nonscalar_ptr_iterator_tag@0@U_Range_checked_iterator_tag@0@@Z 004187d0 f i tex.obj
 0001:00017830       ??$_Destroy_range@V?$allocator@V?$basic_string@DU?$char_traits@D@std@@V?$allocator@D@2@@std@@@std@@@std@@YAXPAV?$basic_string@DU?$char_traits@D@std@@V?$allocator@D@2@@0@0AAV?$allocator@V?$basic_string@DU?$char_traits@D@std@@V?$allocator@D@2@@std@@@0@U_Nonscalar_ptr_iterator_tag@0@@Z 00418830 f i tex.obj
 0001:00017870       ??$_Fill@PAV?$basic_string@DU?$char_traits@D@std@@V?$allocator@D@2@@std@@V12@@std@@YAXPAV?$basic_string@DU?$char_traits@D@std@@V?$allocator@D@2@@0@0ABV10@@Z 00418870 f i tex.obj
 0001:000178a0       ?construct@?$allocator@V?$basic_string@DU?$char_traits@D@std@@V?$allocator@D@2@@std@@@std@@QAEXPAV?$basic_string@DU?$char_traits@D@std@@V?$allocator@D@2@@2@ABV32@@Z 004188a0 f i tex.obj
 0001:000178c0       ??$_Copy_opt@PAUFS_File@@PAU1@Uforward_iterator_tag@std@@@std@@YAPAUFS_File@@PAU1@00Uforward_iterator_tag@0@U_Nonscalar_ptr_iterator_tag@0@U_Range_checked_iterator_tag@0@@Z 004188c0 f i tex.obj
 0001:00017900       ??$_Copy_opt@PAUCompareOption@@PAU1@Uforward_iterator_tag@std@@@std@@YAPAUCompareOption@@PAU1@00Uforward_iterator_tag@0@U_Nonscalar_ptr_iterator_tag@0@U_Range_checked_iterator_tag@0@@Z 00418900 f i tex.obj
 0001:00017950       ??$swap@DU?$char_traits@D@std@@V?$allocator@D@2@@std@@YAXAAV?$basic_string@DU?$char_traits@D@std@@V?$allocator@D@2@@0@0@Z 00418950 f i tex.obj
 0001:00017960       ?TexCompress_Option@@YAXPBD0000H@Z 00418960 f   tex.obj
 0001:000180e0       ?_Buy@?$vector@V?$basic_string@DU?$char_traits@D@std@@V?$allocator@D@2@@std@@V?$allocator@V?$basic_string@DU?$char_traits@D@std@@V?$allocator@D@2@@std@@@2@@std@@IAE_NI@Z 004190e0 f i tex.obj
 0001:00018140       ?_Insert_n@?$vector@PAUTexFormat_s@@V?$allocator@PAUTexFormat_s@@@std@@@std@@IAEXV?$_Vector_const_iterator@PAUTexFormat_s@@V?$allocator@PAUTexFormat_s@@@std@@@2@IABQAUTexFormat_s@@@Z 00419140 f i tex.obj
 0001:000182c0       ?_Insert_n@?$vector@PAUTexTool_s@@V?$allocator@PAUTexTool_s@@@std@@@std@@IAEXV?$_Vector_const_iterator@PAUTexTool_s@@V?$allocator@PAUTexTool_s@@@std@@@2@IABQAUTexTool_s@@@Z 004192c0 f i tex.obj
 0001:00018440       ??$unchecked_copy@PAV?$basic_string@DU?$char_traits@D@std@@V?$allocator@D@2@@std@@PAV12@@stdext@@YAPAV?$basic_string@DU?$char_traits@D@std@@V?$allocator@D@2@@std@@PAV12@00@Z 00419440 f i tex.obj
 0001:00018470       ??$_Destroy_range@V?$allocator@V?$basic_string@DU?$char_traits@D@std@@V?$allocator@D@2@@std@@@std@@@std@@YAXPAV?$basic_string@DU?$char_traits@D@std@@V?$allocator@D@2@@0@0AAV?$allocator@V?$basic_string@DU?$char_traits@D@std@@V?$allocator@D@2@@std@@@0@@Z 00419470 f i tex.obj
 0001:00018490       ??$fill@PAV?$basic_string@DU?$char_traits@D@std@@V?$allocator@D@2@@std@@V12@@std@@YAXPAV?$basic_string@DU?$char_traits@D@std@@V?$allocator@D@2@@0@0ABV10@@Z 00419490 f i tex.obj
 0001:000184c0       ??$_Copy_opt@PAUFS_File@@PAU1@@std@@YAPAUFS_File@@PAU1@00Urandom_access_iterator_tag@0@U_Nonscalar_ptr_iterator_tag@0@U_Range_checked_iterator_tag@0@@Z 004194c0 f i tex.obj
 0001:00018520       ??$_Copy_opt@PAUCompareOption@@PAU1@@std@@YAPAUCompareOption@@PAU1@00Urandom_access_iterator_tag@0@U_Nonscalar_ptr_iterator_tag@0@U_Range_checked_iterator_tag@0@@Z 00419520 f i tex.obj
 0001:00018580       ??$_Uninit_fill_n@PAV?$basic_string@DU?$char_traits@D@std@@V?$allocator@D@2@@std@@IV12@V?$allocator@V?$basic_string@DU?$char_traits@D@std@@V?$allocator@D@2@@std@@@2@@std@@YAXPAV?$basic_string@DU?$char_traits@D@std@@V?$allocator@D@2@@0@IABV10@AAV?$allocator@V?$basic_string@DU?$char_traits@D@std@@V?$allocator@D@2@@std@@@0@U_Nonscalar_ptr_iterator_tag@0@U_Range_checked_iterator_tag@0@@Z 00419580 f i tex.obj
 0001:00018630       ??$_Uninit_move@PAV?$basic_string@DU?$char_traits@D@std@@V?$allocator@D@2@@std@@PAV12@V?$allocator@V?$basic_string@DU?$char_traits@D@std@@V?$allocator@D@2@@std@@@2@@std@@YAPAV?$basic_string@DU?$char_traits@D@std@@V?$allocator@D@2@@0@PAV10@00AAV?$allocator@V?$basic_string@DU?$char_traits@D@std@@V?$allocator@D@2@@std@@@0@U_Swap_move_tag@0@U_Range_checked_iterator_tag@0@@Z 00419630 f i tex.obj
 0001:00018720       ??$_Move_backward_opt@PAV?$basic_string@DU?$char_traits@D@std@@V?$allocator@D@2@@std@@PAV12@Uforward_iterator_tag@2@@std@@YAPAV?$basic_string@DU?$char_traits@D@std@@V?$allocator@D@2@@0@PAV10@00Uforward_iterator_tag@0@U_Swap_move_tag@0@U_Range_checked_iterator_tag@0@@Z 00419720 f i tex.obj
 0001:00018760       ??0?$vector@V?$basic_string@DU?$char_traits@D@std@@V?$allocator@D@2@@std@@V?$allocator@V?$basic_string@DU?$char_traits@D@std@@V?$allocator@D@2@@std@@@2@@std@@QAE@XZ 00419760 f i tex.obj
 0001:000187c0       ?insert@?$vector@PAUTexFormat_s@@V?$allocator@PAUTexFormat_s@@@std@@@std@@QAE?AV?$_Vector_iterator@PAUTexFormat_s@@V?$allocator@PAUTexFormat_s@@@std@@@2@V?$_Vector_const_iterator@PAUTexFormat_s@@V?$allocator@PAUTexFormat_s@@@std@@@2@ABQAUTexFormat_s@@@Z 004197c0 f i tex.obj
 0001:00018870       ?insert@?$vector@PAUTexTool_s@@V?$allocator@PAUTexTool_s@@@std@@@std@@QAE?AV?$_Vector_iterator@PAUTexTool_s@@V?$allocator@PAUTexTool_s@@@std@@@2@V?$_Vector_const_iterator@PAUTexTool_s@@V?$allocator@PAUTexTool_s@@@std@@@2@ABQAUTexTool_s@@@Z 00419870 f i tex.obj
 0001:00018920       ?_Destroy@?$vector@V?$basic_string@DU?$char_traits@D@std@@V?$allocator@D@2@@std@@V?$allocator@V?$basic_string@DU?$char_traits@D@std@@V?$allocator@D@2@@std@@@2@@std@@IAEXPAV?$basic_string@DU?$char_traits@D@std@@V?$allocator@D@2@@2@0@Z 00419920 f i tex.obj
 0001:00018940       ??$unchecked_copy@PAUFS_File@@PAU1@@stdext@@YAPAUFS_File@@PAU1@00@Z 00419940 f i tex.obj
 0001:00018970       ??$unchecked_copy@PAUCompareOption@@PAU1@@stdext@@YAPAUCompareOption@@PAU1@00@Z 00419970 f i tex.obj
 0001:000189a0       ??$unchecked_uninitialized_fill_n@PAV?$basic_string@DU?$char_traits@D@std@@V?$allocator@D@2@@std@@IV12@V?$allocator@V?$basic_string@DU?$char_traits@D@std@@V?$allocator@D@2@@std@@@2@@stdext@@YAXPAV?$basic_string@DU?$char_traits@D@std@@V?$allocator@D@2@@std@@IABV12@AAV?$allocator@V?$basic_string@DU?$char_traits@D@std@@V?$allocator@D@2@@std@@@2@@Z 004199a0 f i tex.obj
 0001:000189d0       ??$_Unchecked_uninitialized_move@PAV?$basic_string@DU?$char_traits@D@std@@V?$allocator@D@2@@std@@PAV12@V?$allocator@V?$basic_string@DU?$char_traits@D@std@@V?$allocator@D@2@@std@@@2@@stdext@@YAPAV?$basic_string@DU?$char_traits@D@std@@V?$allocator@D@2@@std@@PAV12@00AAV?$allocator@V?$basic_string@DU?$char_traits@D@std@@V?$allocator@D@2@@std@@@2@@Z 004199d0 f i tex.obj
 0001:00018a00       ??$_Move_backward_opt@PAV?$basic_string@DU?$char_traits@D@std@@V?$allocator@D@2@@std@@PAV12@@std@@YAPAV?$basic_string@DU?$char_traits@D@std@@V?$allocator@D@2@@0@PAV10@00Urandom_access_iterator_tag@0@U_Swap_move_tag@0@U_Range_checked_iterator_tag@0@@Z 00419a00 f i tex.obj
 0001:00018a60       ?push_back@?$vector@PAUTexFormat_s@@V?$allocator@PAUTexFormat_s@@@std@@@std@@QAEXABQAUTexFormat_s@@@Z 00419a60 f i tex.obj
 0001:00018ad0       ?push_back@?$vector@PAUTexTool_s@@V?$allocator@PAUTexTool_s@@@std@@@std@@QAEXABQAUTexTool_s@@@Z 00419ad0 f i tex.obj
 0001:00018b40       ?erase@?$vector@V?$basic_string@DU?$char_traits@D@std@@V?$allocator@D@2@@std@@V?$allocator@V?$basic_string@DU?$char_traits@D@std@@V?$allocator@D@2@@std@@@2@@std@@QAE?AV?$_Vector_iterator@V?$basic_string@DU?$char_traits@D@std@@V?$allocator@D@2@@std@@V?$allocator@V?$basic_string@DU?$char_traits@D@std@@V?$allocator@D@2@@std@@@2@@2@V?$_Vector_const_iterator@V?$basic_string@DU?$char_traits@D@std@@V?$allocator@D@2@@std@@V?$allocator@V?$basic_string@DU?$char_traits@D@std@@V?$allocator@D@2@@std@@@2@@2@0@Z 00419b40 f i tex.obj
 0001:00018bf0       ?_Tidy@?$vector@V?$basic_string@DU?$char_traits@D@std@@V?$allocator@D@2@@std@@V?$allocator@V?$basic_string@DU?$char_traits@D@std@@V?$allocator@D@2@@std@@@2@@std@@IAEXXZ 00419bf0 f i tex.obj
 0001:00018c40       ?_Ufill@?$vector@V?$basic_string@DU?$char_traits@D@std@@V?$allocator@D@2@@std@@V?$allocator@V?$basic_string@DU?$char_traits@D@std@@V?$allocator@D@2@@std@@@2@@std@@IAEPAV?$basic_string@DU?$char_traits@D@std@@V?$allocator@D@2@@2@PAV32@IABV32@@Z 00419c40 f i tex.obj
 0001:00018c80       ??$_Umove@PAV?$basic_string@DU?$char_traits@D@std@@V?$allocator@D@2@@std@@@?$vector@V?$basic_string@DU?$char_traits@D@std@@V?$allocator@D@2@@std@@V?$allocator@V?$basic_string@DU?$char_traits@D@std@@V?$allocator@D@2@@std@@@2@@std@@IAEPAV?$basic_string@DU?$char_traits@D@std@@V?$allocator@D@2@@1@PAV21@00@Z 00419c80 f i tex.obj
 0001:00018cb0       ??$_Unchecked_move_backward@PAV?$basic_string@DU?$char_traits@D@std@@V?$allocator@D@2@@std@@PAV12@@stdext@@YAPAV?$basic_string@DU?$char_traits@D@std@@V?$allocator@D@2@@std@@PAV12@00@Z 00419cb0 f i tex.obj
 0001:00018ce0       ?RegisterCodec@@YAXPAUTexCodec_s@@@Z 00419ce0 f   tex.obj
 0001:000190c0       ??1?$vector@V?$basic_string@DU?$char_traits@D@std@@V?$allocator@D@2@@std@@V?$allocator@V?$basic_string@DU?$char_traits@D@std@@V?$allocator@D@2@@std@@@2@@std@@QAE@XZ 0041a0c0 f i tex.obj
 0001:00019110       ?clear@?$vector@V?$basic_string@DU?$char_traits@D@std@@V?$allocator@D@2@@std@@V?$allocator@V?$basic_string@DU?$char_traits@D@std@@V?$allocator@D@2@@std@@@2@@std@@QAEXXZ 0041a110 f i tex.obj
 0001:00019150       ?erase@?$vector@UFS_File@@V?$allocator@UFS_File@@@std@@@std@@QAE?AV?$_Vector_iterator@UFS_File@@V?$allocator@UFS_File@@@std@@@2@V?$_Vector_const_iterator@UFS_File@@V?$allocator@UFS_File@@@std@@@2@0@Z 0041a150 f i tex.obj
 0001:00019210       ?erase@?$vector@UCompareOption@@V?$allocator@UCompareOption@@@std@@@std@@QAE?AV?$_Vector_iterator@UCompareOption@@V?$allocator@UCompareOption@@@std@@@2@V?$_Vector_const_iterator@UCompareOption@@V?$allocator@UCompareOption@@@std@@@2@0@Z 0041a210 f i tex.obj
 0001:000192c0       ?_Insert_n@?$vector@V?$basic_string@DU?$char_traits@D@std@@V?$allocator@D@2@@std@@V?$allocator@V?$basic_string@DU?$char_traits@D@std@@V?$allocator@D@2@@std@@@2@@std@@IAEXV?$_Vector_const_iterator@V?$basic_string@DU?$char_traits@D@std@@V?$allocator@D@2@@std@@V?$allocator@V?$basic_string@DU?$char_traits@D@std@@V?$allocator@D@2@@std@@@2@@2@IABV?$basic_string@DU?$char_traits@D@std@@V?$allocator@D@2@@2@@Z 0041a2c0 f i tex.obj
 0001:000195d0       ?clear@?$vector@UFS_File@@V?$allocator@UFS_File@@@std@@@std@@QAEXXZ 0041a5d0 f i tex.obj
 0001:00019610       ?clear@?$vector@UCompareOption@@V?$allocator@UCompareOption@@@std@@@std@@QAEXXZ 0041a610 f i tex.obj
 0001:00019650       ?insert@?$vector@V?$basic_string@DU?$char_traits@D@std@@V?$allocator@D@2@@std@@V?$allocator@V?$basic_string@DU?$char_traits@D@std@@V?$allocator@D@2@@std@@@2@@std@@QAE?AV?$_Vector_iterator@V?$basic_string@DU?$char_traits@D@std@@V?$allocator@D@2@@std@@V?$allocator@V?$basic_string@DU?$char_traits@D@std@@V?$allocator@D@2@@std@@@2@@2@V?$_Vector_const_iterator@V?$basic_string@DU?$char_traits@D@std@@V?$allocator@D@2@@std@@V?$allocator@V?$basic_string@DU?$char_traits@D@std@@V?$allocator@D@2@@std@@@2@@2@ABV?$basic_string@DU?$char_traits@D@std@@V?$allocator@D@2@@2@@Z 0041a650 f i tex.obj
 0001:00019710       ?RegisterTool@@YAXPAUTexTool_s@@PAUTexCodec_s@@@Z 0041a710 f   tex.obj
 0001:00019990       ?RegisterFormat@@YAXPAUTexFormat_s@@PAUTexTool_s@@@Z 0041a990 f   tex.obj
 0001:00019c10       ?TexCompress_Init@@YAXXZ   0041ac10 f   tex.obj
 0001:0001a450       ?push_back@?$vector@V?$basic_string@DU?$char_traits@D@std@@V?$allocator@D@2@@std@@V?$allocator@V?$basic_string@DU?$char_traits@D@std@@V?$allocator@D@2@@std@@@2@@std@@QAEXABV?$basic_string@DU?$char_traits@D@std@@V?$allocator@D@2@@2@@Z 0041b450 f i tex.obj
 0001:0001a500       ?TexMain@@YAHHPAPAD@Z      0041b500 f   tex.obj
 0001:0001aec0       ?GetWorkForThread@@YAHPAUThreadData@@@Z 0041bec0 f   thread.obj
 0001:0001af10       ?Thread_Init@@YAXXZ        0041bf10 f   thread.obj
 0001:0001af40       ?Thread_Shutdown@@YAXXZ    0041bf40 f   thread.obj
 0001:0001af50       ?ParallelThreads@@YANHHPAXP6AXPAUThreadData@@@Z2@Z 0041bf50 f   thread.obj
 0001:0001b1b0       ?ATITC_Init@@YAXXZ         0041c1b0 f   tool_atitc.obj
 0001:0001b260       ?ATITC_Option@@YAXPBD000H@Z 0041c260 f   tool_atitc.obj
 0001:0001b3a0       ?ATITC_Load@@YAXXZ         0041c3a0 f   tool_atitc.obj
 0001:0001b3f0       ?ATITC_Version@@YAPBDXZ    0041c3f0 f   tool_atitc.obj
 0001:0001b410       ?AtiCompressData@@YA?AW4ATI_TC_ERROR@@PAUATI_TC_Texture@@0PAEHHPAUATI_TC_CompressOptions@@W4ATI_TC_FORMAT@@H@Z 0041c410 f   tool_atitc.obj
 0001:0001b480       ?ATITC_Compress@@YA_NPAUTexEncodeTask_s@@@Z 0041c480 f   tool_atitc.obj
 0001:0001b780       ??1TexTool_s@@QAE@XZ       0041c780 f i tool_atitc.obj
 0001:0001b7c0       ?ToolBGRA_Init@@YAXXZ      0041c7c0 f   tool_bgra.obj
 0001:0001b800       ?ToolBGRA_Option@@YAXPBD000H@Z 0041c800 f   tool_bgra.obj
 0001:0001b810       ?ToolBGRA_Load@@YAXXZ      0041c810 f   tool_bgra.obj
 0001:0001b820       ?ToolBGRA_Version@@YAPBDXZ 0041c820 f   tool_bgra.obj
 0001:0001b840       ?PackBGRAData@@YAIPAUTexEncodeTask_s@@PAE1HH@Z 0041c840 f   tool_bgra.obj
 0001:0001b950       ?ToolBGRA_Compress@@YA_NPAUTexEncodeTask_s@@@Z 0041c950 f   tool_bgra.obj
 0001:0001b9b0       ?clear@crn_comp_params@@QAEXXZ 0041c9b0 f i tool_crunch.obj
 0001:0001ba70       ?set_flag@crn_comp_params@@QAEXW4crn_comp_flags@@_N@Z 0041ca70 f i tool_crunch.obj
 0001:0001ba90       ?Crunch_Init@@YAXXZ        0041ca90 f   tool_crunch.obj
 0001:0001bb20       ?Crunch_Option@@YAXPBD000H@Z 0041cb20 f   tool_crunch.obj
 0001:0001bcc0       ?Crunch_Load@@YAXXZ        0041ccc0 f   tool_crunch.obj
 0001:0001bd40       ?Crunch_Version@@YAPBDXZ   0041cd40 f   tool_crunch.obj
 0001:0001bd60       ??0crn_comp_params@@QAE@XZ 0041cd60 f i tool_crunch.obj
 0001:0001bd70       ?Crunch_CompressSingleImage@@YAIPAEPAUTexEncodeTask_s@@HH0@Z 0041cd70 f   tool_crunch.obj
 0001:0001bfa0       ?Crunch_Compress@@YA_NPAUTexEncodeTask_s@@@Z 0041cfa0 f   tool_crunch.obj
 0001:0001c010       ?ETCPack_Init@@YAXXZ       0041d010 f   tool_etcpack.obj
 0001:0001c090       ?ETCPack_Option@@YAXPBD000H@Z 0041d090 f   tool_etcpack.obj
 0001:0001c1c0       ?ETCPack_Load@@YAXXZ       0041d1c0 f   tool_etcpack.obj
 0001:0001c1d0       ?ETCPack_Version@@YAPBDXZ  0041d1d0 f   tool_etcpack.obj
 0001:0001c1e0       ?ETCPack_PrescaleImage@@YAXPAUTexEncodeTask_s@@PAPAEPAH21PA_NH@Z 0041d1e0 f   tool_etcpack.obj
 0001:0001c3f0       ?ETCPack_Free@@YAXPAE0_N@Z 0041d3f0 f   tool_etcpack.obj
 0001:0001c5d0       ?ETCPack_Compress@@YA_NPAUTexEncodeTask_s@@@Z 0041d5d0 f   tool_etcpack.obj
 0001:0001c640       ?GimpDDS_Init@@YAXXZ       0041d640 f   tool_gimp.obj
 0001:0001c6d0       ?GimpDDS_Option@@YAXPBD000H@Z 0041d6d0 f   tool_gimp.obj
 0001:0001c7e0       ?GimpDDS_Load@@YAXXZ       0041d7e0 f   tool_gimp.obj
 0001:0001c8f0       ?GimpDDS_Version@@YAPBDXZ  0041d8f0 f   tool_gimp.obj
 0001:0001c910       ?GimpGetCompressedSize@@YAIHHHHHH@Z 0041d910 f   tool_gimp.obj
 0001:0001c9c0       ?GimpDDS_CompressSingleImage@@YAHPAE0HHPAUgimpdds_options_s@@@Z 0041d9c0 f   tool_gimp.obj
 0001:0001cb10       ?GimpDDS_Compress@@YA_NPAUTexEncodeTask_s@@@Z 0041db10 f   tool_gimp.obj
 0001:0001cc30       ??0rgba_t@@QAE@XZ          0041dc30 f i tool_nvdxtlib.obj
 0001:0001cc40       ??0fpPixel@@QAE@XZ         0041dc40 f i tool_nvdxtlib.obj
 0001:0001cc50       ?GetDXTCVersion@@YAPADXZ   0041dc50 f i tool_nvdxtlib.obj
 0001:0001cc60       ??0nvNormalMap@@QAE@XZ     0041dc60 f i tool_nvdxtlib.obj
 0001:0001cca0       ?SetDefaultOptions@nvCompressionOptions@@QAEXXZ 0041dca0 f i tool_nvdxtlib.obj
 0001:0001d060       ?SetQuality@nvCompressionOptions@@QAEXW4nvQualitySetting@@M@Z 0041e060 f i tool_nvdxtlib.obj
 0001:0001d070       ?DoNotGenerateMIPMaps@nvCompressionOptions@@QAEXXZ 0041e070 f i tool_nvdxtlib.obj
 0001:0001d080       ?SetTextureFormat@nvCompressionOptions@@QAEXW4nvTextureTypes@@W4nvTextureFormats@@@Z 0041e080 f i tool_nvdxtlib.obj
 0001:0001d0a0       ?NvDXTLib_Init@@YAXXZ      0041e0a0 f   tool_nvdxtlib.obj
 0001:0001d120       ?NvDXTLib_Option@@YAXPBD000H@Z 0041e120 f   tool_nvdxtlib.obj
 0001:0001d260       ?NvDXTLib_Load@@YAXXZ      0041e260 f   tool_nvdxtlib.obj
 0001:0001d2b0       ?NvDXTLib_Version@@YAPBDXZ 0041e2b0 f   tool_nvdxtlib.obj
 0001:0001d2c0       ?NvDXTLib_WriteDDS@@YA?AW4NV_ERROR_CODE@@PBXIPBUMIPMapData@@PAX@Z 0041e2c0 f   tool_nvdxtlib.obj
 0001:0001d2f0       ??0nvCompressionOptions@@QAE@XZ 0041e2f0 f i tool_nvdxtlib.obj
 0001:0001d330       ?NvDXTLib_Compress@@YA_NPAUTexEncodeTask_s@@@Z 0041e330 f   tool_nvdxtlib.obj
 0001:0001d580       __tcsncpy                  0041e580 f i unzip.obj
 0001:0001d590       __tcsstr                   0041e590 f i unzip.obj
 0001:0001d5a0       ?inflate_flush@@YAHPAUinflate_blocks_state@@PAUz_stream_s@@H@Z 0041e5a0 f   unzip.obj
 0001:0001d6a0       ?inflate_codes_new@@YAPAUinflate_codes_state@@IIPBUinflate_huft_s@@0PAUz_stream_s@@@Z 0041e6a0 f   unzip.obj
 0001:0001d6e0       ?inflate_codes_free@@YAXPAUinflate_codes_state@@PAUz_stream_s@@@Z 0041e6e0 f   unzip.obj
 0001:0001d700       ?inflate_blocks_reset@@YAXPAUinflate_blocks_state@@PAUz_stream_s@@PAK@Z 0041e700 f   unzip.obj
 0001:0001d780       ?inflate_blocks_new@@YAPAUinflate_blocks_state@@PAUz_stream_s@@P6AKKPBEI@ZI@Z 0041e780 f   unzip.obj
 0001:0001d830       ?inflate_blocks_free@@YAHPAUinflate_blocks_state@@PAUz_stream_s@@@Z 0041e830 f   unzip.obj
 0001:0001d870       ?huft_build@@YAHPAIIIPBI1PAPAUinflate_huft_s@@0PAU1@00@Z 0041e870 f   unzip.obj
 0001:0001dd10       ?inflate_trees_bits@@YAHPAI0PAPAUinflate_huft_s@@PAU1@PAUz_stream_s@@@Z 0041ed10 f   unzip.obj
 0001:0001ddb0       ?inflate_trees_dynamic@@YAHIIPAI00PAPAUinflate_huft_s@@1PAU1@PAUz_stream_s@@@Z 0041edb0 f   unzip.obj
 0001:0001df30       ?inflate_trees_fixed@@YAHPAI0PAPBUinflate_huft_s@@1PAUz_stream_s@@@Z 0041ef30 f   unzip.obj
 0001:0001df60       ?inflate_fast@@YAHIIPBUinflate_huft_s@@0PAUinflate_blocks_state@@PAUz_stream_s@@@Z 0041ef60 f   unzip.obj
 0001:0001e2d0       ?get_crc_table@@YAPBKXZ    0041f2d0 f   unzip.obj
 0001:0001e2e0       ?ucrc32@@YAKKPBEI@Z        0041f2e0 f   unzip.obj
 0001:0001e3f0       ?Uupdate_keys@@YAXPAKD@Z   0041f3f0 f   unzip.obj
 0001:0001e440       ?Udecrypt_byte@@YADPAK@Z   0041f440 f   unzip.obj
 0001:0001e460       ?zdecode@@YADPAKD@Z        0041f460 f   unzip.obj
 0001:0001e4d0       ?adler32@@YAKKPBEI@Z       0041f4d0 f   unzip.obj
 0001:0001e610       ?zlibVersion@@YAPBDXZ      0041f610 f   unzip.obj
 0001:0001e620       ?zError@@YAPBDH@Z          0041f620 f   unzip.obj
 0001:0001e640       ?zcalloc@@YAPAXPAXII@Z     0041f640 f   unzip.obj
 0001:0001e660       ?zcfree@@YAXPAX0@Z         0041f660 f   unzip.obj
 0001:0001e670       ?inflateReset@@YAHPAUz_stream_s@@@Z 0041f670 f   unzip.obj
 0001:0001e6c0       ?inflateEnd@@YAHPAUz_stream_s@@@Z 0041f6c0 f   unzip.obj
 0001:0001e710       ?inflateInit2@@YAHPAUz_stream_s@@@Z 0041f710 f   unzip.obj
 0001:0001e7c0       ?lufopen@@YAPAULUFILE@@PAXIKPAK@Z 0041f7c0 f   unzip.obj
 0001:0001e8e0       ?lufclose@@YAHPAULUFILE@@@Z 0041f8e0 f   unzip.obj
 0001:0001e910       ?luferror@@YAHPAULUFILE@@@Z 0041f910 f   unzip.obj
 0001:0001e930       ?luftell@@YAJPAULUFILE@@@Z 0041f930 f   unzip.obj
 0001:0001e960       ?lufseek@@YAHPAULUFILE@@JH@Z 0041f960 f   unzip.obj
 0001:0001e9f0       ?lufread@@YAIPAXIIPAULUFILE@@@Z 0041f9f0 f   unzip.obj
 0001:0001ea70       ?unzlocal_getByte@@YAHPAULUFILE@@PAH@Z 0041fa70 f   unzip.obj
 0001:0001eab0       ?unzlocal_getShort@@YAHPAULUFILE@@PAK@Z 0041fab0 f   unzip.obj
 0001:0001eb50       ?unzlocal_getLong@@YAHPAULUFILE@@PAK@Z 0041fb50 f   unzip.obj
 0001:0001ec60       ?strcmpcasenosensitive_internal@@YAHPBD0@Z 0041fc60 f   unzip.obj
 0001:0001ecc0       ?unzStringFileNameCompare@@YAHPBD0H@Z 0041fcc0 f   unzip.obj
 0001:0001ed10       ?unzlocal_SearchCentralDir@@YAKPAULUFILE@@@Z 0041fd10 f   unzip.obj
 0001:0001eea0       ?unzGetGlobalInfo@@YAHPAUunz_s@@PAUunz_global_info_s@@@Z 0041fea0 f   unzip.obj
 0001:0001eec0       ?unzlocal_DosDateToTmuDate@@YAXKPAUtm_unz_s@@@Z 0041fec0 f   unzip.obj
 0001:0001ef10       ?unzlocal_GetCurrentFileInfoInternal@@YAHPAUunz_s@@PAUunz_file_info_s@@PAUunz_file_info_internal_s@@PADKPAXK3K@Z 0041ff10 f   unzip.obj
 0001:0001f2d0       ?unzGetCurrentFileInfo@@YAHPAUunz_s@@PAUunz_file_info_s@@PADKPAXK2K@Z 004202d0 f   unzip.obj
 0001:0001f310       ?unzGoToFirstFile@@YAHPAUunz_s@@@Z 00420310 f   unzip.obj
 0001:0001f360       ?unzGoToNextFile@@YAHPAUunz_s@@@Z 00420360 f   unzip.obj
 0001:0001f3c0       ?unzLocateFile@@YAHPAUunz_s@@PBDH@Z 004203c0 f   unzip.obj
 0001:0001f500       ?unzlocal_CheckCurrentFileCoherencyHeader@@YAHPAUunz_s@@PAIPAK1@Z 00420500 f   unzip.obj
 0001:0001f6f0       ?unztell@@YAJPAUunz_s@@@Z  004206f0 f   unzip.obj
 0001:0001f710       ?unzeof@@YAHPAUunz_s@@@Z   00420710 f   unzip.obj
 0001:0001f730       ?unzGetLocalExtrafield@@YAHPAUunz_s@@PAXI@Z 00420730 f   unzip.obj
 0001:0001f7d0       ?unzCloseCurrentFile@@YAHPAUunz_s@@@Z 004207d0 f   unzip.obj
 0001:0001f850       ?unzGetGlobalComment@@YAHPAUunz_s@@PADK@Z 00420850 f   unzip.obj
 0001:0001f8e0       ?timet2filetime@@YA?AU_FILETIME@@I@Z 004208e0 f   unzip.obj
 0001:0001f910       ?dosdatetime2filetime@@YA?AU_FILETIME@@GG@Z 00420910 f   unzip.obj
 0001:0001f990       ??0TUnzip@@QAE@PBD@Z       00420990 f i unzip.obj
 0001:0001fa00       ??1TUnzip@@QAE@XZ          00420a00 f i unzip.obj
 0001:0001fa40       ?SetUnzipBaseDir@TUnzip@@QAEKPBD@Z 00420a40 f   unzip.obj
 0001:0001faa0       ?Get@TUnzip@@QAEKHPAUZIPENTRY@@@Z 00420aa0 f   unzip.obj
 0001:0001fff0       ?Find@TUnzip@@QAEKPBD_NPAHPAUZIPENTRY@@@Z 00420ff0 f   unzip.obj
 0001:000200d0       ?EnsureDirectory@@YAXPBD0@Z 004210d0 f   unzip.obj
 0001:000201e0       ?FormatZipMessageU@@YAIKPADI@Z 004211e0 f   unzip.obj
 0001:000203c0       ??_GTUnzip@@QAEPAXI@Z      004213c0 f i unzip.obj
 0001:00020420       ?GetZipItem@@YAKPAUHZIP__@@HPAUZIPENTRY@@@Z 00421420 f   unzip.obj
 0001:00020470       ?FindZipItem@@YAKPAUHZIP__@@PBD_NPAHPAUZIPENTRY@@@Z 00421470 f   unzip.obj
 0001:000204c0       ?SetUnzipBaseDir@@YAKPAUHZIP__@@PBD@Z 004214c0 f   unzip.obj
 0001:00020500       ?IsZipHandleU@@YA_NPAUHZIP__@@@Z 00421500 f   unzip.obj
 0001:00020520       ?inflate_codes@@YAHPAUinflate_blocks_state@@PAUz_stream_s@@H@Z 00421520 f   unzip.obj
 0001:00020ba0       ?inflate_blocks@@YAHPAUinflate_blocks_state@@PAUz_stream_s@@H@Z 00421ba0 f   unzip.obj
 0001:00021600       ?inflate@@YAHPAUz_stream_s@@H@Z 00422600 f   unzip.obj
 0001:000219b0       ?unzOpenInternal@@YAPAUunz_s@@PAULUFILE@@@Z 004229b0 f   unzip.obj
 0001:00021b50       ?unzClose@@YAHPAUunz_s@@@Z 00422b50 f   unzip.obj
 0001:00021ba0       ?unzOpenCurrentFile@@YAHPAUunz_s@@PBD@Z 00422ba0 f   unzip.obj
 0001:00021d30       ?unzReadCurrentFile@@YAHPAUunz_s@@PAXIPA_N@Z 00422d30 f   unzip.obj
 0001:00021fb0       ?Open@TUnzip@@QAEKPAXIK@Z  00422fb0 f   unzip.obj
 0001:00022090       ?Unzip@TUnzip@@QAEKHPAXIK@Z 00423090 f   unzip.obj
 0001:00022470       ?Close@TUnzip@@QAEKXZ      00423470 f   unzip.obj
 0001:000224a0       ?OpenZipInternal@@YAPAUHZIP__@@PAXIKPBD@Z 004234a0 f   unzip.obj
 0001:000225a0       ?OpenZipHandle@@YAPAUHZIP__@@PAXPBD@Z 004235a0 f   unzip.obj
 0001:000225c0       ?OpenZip@@YAPAUHZIP__@@PBD0@Z 004235c0 f   unzip.obj
 0001:000225e0       ?OpenZip@@YAPAUHZIP__@@PAXIPBD@Z 004235e0 f   unzip.obj
 0001:00022600       ?UnzipItemInternal@@YAKPAUHZIP__@@HPAXIK@Z 00423600 f   unzip.obj
 0001:00022650       ?UnzipItemHandle@@YAKPAUHZIP__@@HPAX@Z 00423650 f   unzip.obj
 0001:00022690       ?UnzipItem@@YAKPAUHZIP__@@HPBD@Z 00423690 f   unzip.obj
 0001:00022990       ?UnzipItem@@YAKPAUHZIP__@@HPAXI@Z 00423990 f   unzip.obj
 0001:000229e0       ?CloseZipU@@YAKPAUHZIP__@@@Z 004239e0 f   unzip.obj
 0001:00022a60       __tcsicmp                  00423a60 f i zip.obj
 0001:00022a70       ??0TTreeState@@QAE@XZ      00423a70 f   zip.obj
 0001:00022b60       ??0TDeflateState@@QAE@XZ   00423b60 f i zip.obj
 0001:00022b70       ?Assert@@YAXAAUTState@@_NPBD@Z 00423b70 f   zip.obj
 0001:00022b90       ?Trace@@YAXPBDZZ           00423b90 f   zip.obj
 0001:00022ba0       ?Tracec@@YAX_NPBDZZ        00423ba0 f   zip.obj
 0001:00022bb0       ?init_block@@YAXAAUTState@@@Z 00423bb0 f   zip.obj
 0001:00022c40       ?pqdownheap@@YAXAAUTState@@PAUct_data@@H@Z 00423c40 f   zip.obj
 0001:00022d10       ?gen_bitlen@@YAXAAUTState@@PAUtree_desc@@@Z 00423d10 f   zip.obj
 0001:00022f50       ?scan_tree@@YAXAAUTState@@PAUct_data@@H@Z 00423f50 f   zip.obj
 0001:00023030       ?ct_tally@@YAHAAUTState@@HH@Z 00424030 f   zip.obj
 0001:00023230       ?set_file_type@@YAXAAUTState@@@Z 00424230 f   zip.obj
 0001:000232e0       ?bi_init@@YAXAAUTState@@PADIH@Z 004242e0 f   zip.obj
 0001:00023320       ?send_bits@@YAXAAUTState@@HH@Z 00424320 f   zip.obj
 0001:000233d0       ?bi_reverse@@YAIIH@Z       004243d0 f   zip.obj
 0001:00023400       ?bi_windup@@YAXAAUTState@@@Z 00424400 f   zip.obj
 0001:000234f0       ?copy_block@@YAXAAUTState@@PADIH@Z 004244f0 f   zip.obj
 0001:00023640       ?longest_match@@YAHAAUTState@@I@Z 00424640 f   zip.obj
 0001:000237e0       ?fill_window@@YAXAAUTState@@@Z 004247e0 f   zip.obj
 0001:00023920       ?putlocal@@YAHPAUzlist@@P6AIPAXPBDI@Z1@Z 00424920 f   zip.obj
 0001:00023ba0       ?putextended@@YAHPAUzlist@@P6AIPAXPBDI@Z1@Z 00424ba0 f   zip.obj
 0001:00023ce0       ?putcentral@@YAHPAUzlist@@P6AIPAXPBDI@Z1@Z 00424ce0 f   zip.obj
 0001:000240a0       ?putend@@YAHHKKIPADP6AIPAXPBDI@Z1@Z 004250a0 f   zip.obj
 0001:00024250       ?crc32@@YAKKPBEI@Z         00425250 f   zip.obj
 0001:00024360       ?update_keys@@YAXPAKD@Z    00425360 f   zip.obj
 0001:000243b0       ?decrypt_byte@@YADPAK@Z    004253b0 f   zip.obj
 0001:000243d0       ?zencode@@YADPAKD@Z        004253d0 f   zip.obj
 0001:00024440       ?HasZipSuffix@@YA_NPBD@Z   00425440 f   zip.obj
 0001:00024510       ?filetime2timet@@YA_JU_FILETIME@@@Z 00425510 f   zip.obj
 0001:00024540       ?filetime2dosdatetime@@YAXU_FILETIME@@PAG1@Z 00425540 f   zip.obj
 0001:000245b0       ?GetFileInfo@@YAKPAXPAKPAJPAUiztimes@@1@Z 004255b0 f   zip.obj
 0001:000247b0       ??0TZip@@QAE@PBD@Z         004257b0 f i zip.obj
 0001:00024830       ??1TZip@@QAE@XZ            00425830 f i zip.obj
 0001:00024880       ?Create@TZip@@QAEKPAXIK@Z  00425880 f   zip.obj
 0001:000249d0       ?write@TZip@@QAEIPBDI@Z    004259d0 f   zip.obj
 0001:00024ac0       ?oseek@TZip@@QAE_NI@Z      00425ac0 f   zip.obj
 0001:00024b20       ?GetMemoryWritten@TZip@@QAEKXZ 00425b20 f   zip.obj
 0001:00024b30       ?open_handle@TZip@@QAEKPAXI@Z 00425b30 f   zip.obj
 0001:00024c80       ?open_mem@TZip@@QAEKPAXI@Z 00425c80 f   zip.obj
 0001:00024d70       ?open_dir@TZip@@QAEKXZ     00425d70 f   zip.obj
 0001:00024e30       ?read@TZip@@QAEIPADI@Z     00425e30 f   zip.obj
 0001:00024ef0       ?iclose@TZip@@QAEKXZ       00425ef0 f   zip.obj
 0001:00024f50       ??0TState@@QAE@XZ          00425f50 f i zip.obj
 0001:00024f70       ?istore@TZip@@QAEKXZ       00425f70 f   zip.obj
 0001:00024fd0       ?FormatZipMessageZ@@YAIKPADI@Z 00425fd0 f   zip.obj
 0001:000251a0       ??_GTZip@@QAEPAXI@Z        004261a0 f i zip.obj
 0001:00025200       ?ZipGetMemoryWritten@@YAIPAUHZIP__@@@Z 00426200 f   zip.obj
 0001:00025230       ?IsZipHandleZ@@YA_NPAUHZIP__@@@Z 00426230 f   zip.obj
 0001:00025250       ?gen_codes@@YAXAAUTState@@PAUct_data@@H@Z 00426250 f   zip.obj
 0001:00025310       ?build_tree@@YAXAAUTState@@PAUtree_desc@@@Z 00426310 f   zip.obj
 0001:00025500       ?send_tree@@YAXAAUTState@@PAUct_data@@H@Z 00426500 f   zip.obj
 0001:00025670       ?build_bl_tree@@YAHAAUTState@@@Z 00426670 f   zip.obj
 0001:00025740       ?send_all_trees@@YAXAAUTState@@HHH@Z 00426740 f   zip.obj
 0001:00025810       ?compress_block@@YAXAAUTState@@PAUct_data@@1@Z 00426810 f   zip.obj
 0001:00025970       ?lm_init@@YAXAAUTState@@HPAG@Z 00426970 f   zip.obj
 0001:00025ac0       ?sflush@TZip@@SAIPAXPBDPAI@Z 00426ac0 f   zip.obj
 0001:00025af0       ?swrite@TZip@@SAIPAXPBDI@Z 00426af0 f   zip.obj
 0001:00025b10       ?open_file@TZip@@QAEKPBD@Z 00426b10 f   zip.obj
 0001:00025ba0       ?sread@TZip@@SAIAAUTState@@PADI@Z 00426ba0 f   zip.obj
 0001:00025bc0       ?AddCentral@TZip@@QAEKXZ   00426bc0 f   zip.obj
 0001:00025c90       ?CreateZipInternal@@YAPAUHZIP__@@PAXIKPBD@Z 00426c90 f   zip.obj
 0001:00025d90       ?CreateZipHandle@@YAPAUHZIP__@@PAXPBD@Z 00426d90 f   zip.obj
 0001:00025db0       ?CreateZip@@YAPAUHZIP__@@PBD0@Z 00426db0 f   zip.obj
 0001:00025dd0       ?CreateZip@@YAPAUHZIP__@@PAXIPBD@Z 00426dd0 f   zip.obj
 0001:00025df0       ?ct_init@@YAXAAUTState@@PAG@Z 00426df0 f   zip.obj
 0001:000260d0       ?flush_block@@YAKAAUTState@@PADKH@Z 004270d0 f   zip.obj
 0001:00026290       ?deflate_fast@@YAKAAUTState@@@Z 00427290 f   zip.obj
 0001:000264d0       ?deflate@@YAKAAUTState@@@Z 004274d0 f   zip.obj
 0001:000267d0       ?GetMemory@TZip@@QAEKPAPAXPAK@Z 004277d0 f   zip.obj
 0001:00026820       ?Close@TZip@@QAEKXZ        00427820 f   zip.obj
 0001:00026880       ?ideflate@TZip@@QAEKPAUzlist@@@Z 00427880 f   zip.obj
 0001:00026990       ?Add@TZip@@QAEKPBDPAXIK@Z  00427990 f   zip.obj
 0001:000270b0       ?ZipAddInternal@@YAKPAUHZIP__@@PBDPAXIK@Z 004280b0 f   zip.obj
 0001:00027100       ?ZipAdd@@YAKPAUHZIP__@@PBD1@Z 00428100 f   zip.obj
 0001:00027140       ?ZipAdd@@YAKPAUHZIP__@@PBDPAXI@Z 00428140 f   zip.obj
 0001:00027190       ?ZipAddHandle@@YAKPAUHZIP__@@PBDPAX@Z 00428190 f   zip.obj
 0001:000271d0       ?ZipAddHandle@@YAKPAUHZIP__@@PBDPAXI@Z 004281d0 f   zip.obj
 0001:00027220       ?ZipAddFolder@@YAKPAUHZIP__@@PBD@Z 00428220 f   zip.obj
 0001:00027260       ?ZipGetMemory@@YAKPAUHZIP__@@PAPAXPAK@Z 00428260 f   zip.obj
 0001:000272c0       ?CloseZipZ@@YAKPAUHZIP__@@@Z 004282c0 f   zip.obj
 0001:000273a0       ??0?$vtype2@M@@QAE@MM@Z    004283a0 f i astc_averages_and_directions.obj
 0001:000273c0       ??0?$vtype2@M@@QAE@ABV0@@Z 004283c0 f i astc_averages_and_directions.obj
 0001:000273e0       ??0?$vtype3@M@@QAE@MMM@Z   004283e0 f i astc_averages_and_directions.obj
 0001:00027400       ??0?$vtype3@M@@QAE@ABV0@@Z 00428400 f i astc_averages_and_directions.obj
 0001:00027420       ??0?$vtype4@M@@QAE@MMMM@Z  00428420 f i astc_averages_and_directions.obj
 0001:00027440       ??0?$vtype4@M@@QAE@ABV0@@Z 00428440 f i astc_averages_and_directions.obj
 0001:00027460       ??0?$vtype4_yzw_ref@M@@QAE@PAV?$vtype4@M@@@Z 00428460 f i astc_averages_and_directions.obj
 0001:00027470       ??0?$vtype4_xzw_ref@M@@QAE@PAV?$vtype4@M@@@Z 00428470 f i astc_averages_and_directions.obj
 0001:00027480       ??0?$vtype4_xyw_ref@M@@QAE@PAV?$vtype4@M@@@Z 00428480 f i astc_averages_and_directions.obj
 0001:00027490       ??0?$vtype4_xyz_ref@M@@QAE@PAV?$vtype4@M@@@Z 00428490 f i astc_averages_and_directions.obj
 0001:000274a0       ??0?$vtype3_xyz_ref@M@@QAE@PAV?$vtype3@M@@@Z 004284a0 f i astc_averages_and_directions.obj
 0001:000274b0       ??0?$vtype4_zw_ref@M@@QAE@PAV?$vtype4@M@@@Z 004284b0 f i astc_averages_and_directions.obj
 0001:000274c0       ??0?$vtype4_yz_ref@M@@QAE@PAV?$vtype4@M@@@Z 004284c0 f i astc_averages_and_directions.obj
 0001:000274d0       ??0?$vtype4_xz_ref@M@@QAE@PAV?$vtype4@M@@@Z 004284d0 f i astc_averages_and_directions.obj
 0001:000274e0       ??0?$vtype4_xy_ref@M@@QAE@PAV?$vtype4@M@@@Z 004284e0 f i astc_averages_and_directions.obj
 0001:000274f0       ??0?$vtype3_yz_ref@M@@QAE@PAV?$vtype3@M@@@Z 004284f0 f i astc_averages_and_directions.obj
 0001:00027500       ??0?$vtype3_xz_ref@M@@QAE@PAV?$vtype3@M@@@Z 00428500 f i astc_averages_and_directions.obj
 0001:00027510       ??0?$vtype3_xy_ref@M@@QAE@PAV?$vtype3@M@@@Z 00428510 f i astc_averages_and_directions.obj
 0001:00027520       ??0?$vtype2_xy_ref@M@@QAE@PAV?$vtype2@M@@@Z 00428520 f i astc_averages_and_directions.obj
 0001:00027530       ??0?$vtype2@M@@QAE@ABU?$vtype4_zw_ref@M@@@Z 00428530 f i astc_averages_and_directions.obj
 0001:00027550       ??0?$vtype2@M@@QAE@ABU?$vtype4_yz_ref@M@@@Z 00428550 f i astc_averages_and_directions.obj
 0001:00027570       ??0?$vtype2@M@@QAE@ABU?$vtype4_xz_ref@M@@@Z 00428570 f i astc_averages_and_directions.obj
 0001:00027590       ??0?$vtype2@M@@QAE@ABU?$vtype4_xy_ref@M@@@Z 00428590 f i astc_averages_and_directions.obj
 0001:000275b0       ??0?$vtype2@M@@QAE@ABU?$vtype3_yz_ref@M@@@Z 004285b0 f i astc_averages_and_directions.obj
 0001:000275d0       ??0?$vtype2@M@@QAE@ABU?$vtype3_xz_ref@M@@@Z 004285d0 f i astc_averages_and_directions.obj
 0001:000275f0       ??0?$vtype2@M@@QAE@ABU?$vtype3_xy_ref@M@@@Z 004285f0 f i astc_averages_and_directions.obj
 0001:00027610       ??0?$vtype2@M@@QAE@ABU?$vtype2_xy_ref@M@@@Z 00428610 f i astc_averages_and_directions.obj
 0001:00027630       ??0?$vtype3@M@@QAE@ABU?$vtype4_yzw_ref@M@@@Z 00428630 f i astc_averages_and_directions.obj
 0001:00027650       ??0?$vtype3@M@@QAE@ABU?$vtype4_xzw_ref@M@@@Z 00428650 f i astc_averages_and_directions.obj
 0001:00027670       ??0?$vtype3@M@@QAE@ABU?$vtype4_xyw_ref@M@@@Z 00428670 f i astc_averages_and_directions.obj
 0001:00027690       ??0?$vtype3@M@@QAE@ABU?$vtype4_xyz_ref@M@@@Z 00428690 f i astc_averages_and_directions.obj
 0001:000276b0       ??0?$vtype3@M@@QAE@ABU?$vtype3_xyz_ref@M@@@Z 004286b0 f i astc_averages_and_directions.obj
 0001:000279d0       ??0processed_line2@@QAE@ABU0@@Z 004289d0 f i astc_averages_and_directions.obj
 0001:00027a00       ??0processed_line3@@QAE@ABU0@@Z 00428a00 f i astc_averages_and_directions.obj
 0001:00027a40       ??0processed_line4@@QAE@ABU0@@Z 00428a40 f i astc_averages_and_directions.obj
 0001:00027a90       ?xy@?$vtype2@M@@QAE?AU?$vtype2_xy_ref@M@@XZ 00428a90 f i astc_averages_and_directions.obj
 0001:00027aa0       ?xy@?$vtype3@M@@QAE?AU?$vtype3_xy_ref@M@@XZ 00428aa0 f i astc_averages_and_directions.obj
 0001:00027ab0       ?xz@?$vtype3@M@@QAE?AU?$vtype3_xz_ref@M@@XZ 00428ab0 f i astc_averages_and_directions.obj
 0001:00027ac0       ?yz@?$vtype3@M@@QAE?AU?$vtype3_yz_ref@M@@XZ 00428ac0 f i astc_averages_and_directions.obj
 0001:00027ad0       ?xyz@?$vtype3@M@@QAE?AU?$vtype3_xyz_ref@M@@XZ 00428ad0 f i astc_averages_and_directions.obj
 0001:00027ae0       ?xy@?$vtype4@M@@QAE?AU?$vtype4_xy_ref@M@@XZ 00428ae0 f i astc_averages_and_directions.obj
 0001:00027af0       ?xz@?$vtype4@M@@QAE?AU?$vtype4_xz_ref@M@@XZ 00428af0 f i astc_averages_and_directions.obj
 0001:00027b00       ?yz@?$vtype4@M@@QAE?AU?$vtype4_yz_ref@M@@XZ 00428b00 f i astc_averages_and_directions.obj
 0001:00027b10       ?zw@?$vtype4@M@@QAE?AU?$vtype4_zw_ref@M@@XZ 00428b10 f i astc_averages_and_directions.obj
 0001:00027b20       ?xyz@?$vtype4@M@@QAE?AU?$vtype4_xyz_ref@M@@XZ 00428b20 f i astc_averages_and_directions.obj
 0001:00027b30       ?xyw@?$vtype4@M@@QAE?AU?$vtype4_xyw_ref@M@@XZ 00428b30 f i astc_averages_and_directions.obj
 0001:00027b40       ?xzw@?$vtype4@M@@QAE?AU?$vtype4_xzw_ref@M@@XZ 00428b40 f i astc_averages_and_directions.obj
 0001:00027b50       ?yzw@?$vtype4@M@@QAE?AU?$vtype4_yzw_ref@M@@XZ 00428b50 f i astc_averages_and_directions.obj
 0001:00027b60       ?compute_averages_and_directions_rgba@@YAXPBUpartition_info@@PBUimageblock@@PBUerror_weight_block@@PBV?$vtype4@M@@PAV4@4PAV?$vtype3@M@@555@Z 00428b60 f   astc_averages_and_directions.obj
 0001:00028770       ?compute_averages_and_directions_rgb@@YAXPBUpartition_info@@PBUimageblock@@PBUerror_weight_block@@PBV?$vtype4@M@@PAV?$vtype3@M@@4PAV?$vtype2@M@@55@Z 00429770 f   astc_averages_and_directions.obj
 0001:00028fc0       ?compute_averages_and_directions_3_components@@YAXPBUpartition_info@@PBUimageblock@@PBUerror_weight_block@@PBV?$vtype3@M@@HHHPAV4@4@Z 00429fc0 f   astc_averages_and_directions.obj
 0001:000298a0       ?compute_averages_and_directions_2_components@@YAXPBUpartition_info@@PBUimageblock@@PBUerror_weight_block@@PBV?$vtype2@M@@HHPAV4@4@Z 0042a8a0 f   astc_averages_and_directions.obj
 0001:0002a180       ?compute_error_squared_rg@@YAMPBUpartition_info@@PBUimageblock@@PBUerror_weight_block@@PBUprocessed_line2@@PAM@Z 0042b180 f   astc_averages_and_directions.obj
 0001:0002a520       ?compute_error_squared_rb@@YAMPBUpartition_info@@PBUimageblock@@PBUerror_weight_block@@PBUprocessed_line2@@PAM@Z 0042b520 f   astc_averages_and_directions.obj
 0001:0002a8c0       ?compute_error_squared_gb@@YAMPBUpartition_info@@PBUimageblock@@PBUerror_weight_block@@PBUprocessed_line2@@PAM@Z 0042b8c0 f   astc_averages_and_directions.obj
 0001:0002ac60       ?compute_error_squared_ra@@YAMPBUpartition_info@@PBUimageblock@@PBUerror_weight_block@@PBUprocessed_line2@@PAM@Z 0042bc60 f   astc_averages_and_directions.obj
 0001:0002b000       ?compute_error_squared_gba@@YAMPBUpartition_info@@PBUimageblock@@PBUerror_weight_block@@PBUprocessed_line3@@PAM@Z 0042c000 f   astc_averages_and_directions.obj
 0001:0002b4a0       ?compute_error_squared_rba@@YAMPBUpartition_info@@PBUimageblock@@PBUerror_weight_block@@PBUprocessed_line3@@PAM@Z 0042c4a0 f   astc_averages_and_directions.obj
 0001:0002b950       ?compute_error_squared_rga@@YAMPBUpartition_info@@PBUimageblock@@PBUerror_weight_block@@PBUprocessed_line3@@PAM@Z 0042c950 f   astc_averages_and_directions.obj
 0001:0002be00       ?compute_error_squared_rgb@@YAMPBUpartition_info@@PBUimageblock@@PBUerror_weight_block@@PBUprocessed_line3@@PAM@Z 0042ce00 f   astc_averages_and_directions.obj
 0001:0002c2b0       ?compute_error_squared_rgba@@YAMPBUpartition_info@@PBUimageblock@@PBUerror_weight_block@@PBUprocessed_line4@@PAM@Z 0042d2b0 f   astc_averages_and_directions.obj
 0001:0002c860       ?compute_error_squared_rgb_single_partition@@YAMHHHHPBUpartition_info@@PBUimageblock@@PBUerror_weight_block@@PBUprocessed_line3@@@Z 0042d860 f   astc_averages_and_directions.obj
 0001:0002ca50       ?get_2d_percentile_table@@YAPBMHH@Z 0042da50 f   astc_block_sizes2.obj
 0001:0002ccc0       ?get_3d_percentile_table@@YAPBMHHH@Z 0042dcc0 f   astc_block_sizes2.obj
 0001:0002dab0       ?construct_block_size_descriptor_2d@@YAXHHPAUblock_size_descriptor@@@Z 0042eab0 f   astc_block_sizes2.obj
 0001:0002de10       ?construct_block_size_descriptor_3d@@YAXHHHPAUblock_size_descriptor@@@Z 0042ee10 f   astc_block_sizes2.obj
 0001:0002e1e0       ?get_block_size_descriptor@@YAPBUblock_size_descriptor@@HHH@Z 0042f1e0 f   astc_block_sizes2.obj
 0001:0002e310       ?try_quantize_alpha_delta@@YAHV?$vtype4@M@@0QAHH@Z 0042f310 f   astc_color_quantize.obj
 0001:0002e480       ?try_quantize_luminance_alpha_delta@@YAHV?$vtype4@M@@0QAHH@Z 0042f480 f   astc_color_quantize.obj
 0001:0002e770       ?quantize0@@YAXV?$vtype4@M@@0QAHH@Z 0042f770 f   astc_color_quantize.obj
 0001:0002e850       ?quantize_hdr_luminance_large_range3@@YAXV?$vtype4@M@@0QAHH@Z 0042f850 f   astc_color_quantize.obj
 0001:0002ea00       ?try_quantize_hdr_luminance_small_range3@@YAHV?$vtype4@M@@0QAHH@Z 0042fa00 f   astc_color_quantize.obj
 0001:0002ec10       ?quantize_hdr_alpha3@@YAXMMQAHH@Z 0042fc10 f   astc_color_quantize.obj
 0001:0002ee00       ??0?$vtype4@G@@QAE@XZ      0042fe00 f i astc_color_quantize.obj
 0001:0002ee10       ??0?$vtype4_zyxw_ref@M@@QAE@PAV?$vtype4@M@@@Z 0042fe10 f i astc_color_quantize.obj
 0001:0002ee20       ??0?$vtype4_yxzw_ref@M@@QAE@PAV?$vtype4@M@@@Z 0042fe20 f i astc_color_quantize.obj
 0001:0002ee30       ??0?$vtype4_www_ref@M@@QAE@PAV?$vtype4@M@@@Z 0042fe30 f i astc_color_quantize.obj
 0001:0002ee40       ??0?$vtype3@M@@QAE@ABU?$vtype4_www_ref@M@@@Z 0042fe40 f i astc_color_quantize.obj
 0001:0002ee60       ??0?$vtype4@M@@QAE@ABU?$vtype4_zyxw_ref@M@@@Z 0042fe60 f i astc_color_quantize.obj
 0001:0002ee90       ??0?$vtype4@M@@QAE@ABU?$vtype4_yxzw_ref@M@@@Z 0042fe90 f i astc_color_quantize.obj
 0001:0002eec0       ??4?$vtype4_xyz_ref@M@@QAEAAU0@ABV?$vtype3@M@@@Z 0042fec0 f i astc_color_quantize.obj
 0001:0002ef70       ?quantize_luminance_alpha@@YAXV?$vtype4@M@@0QAHH@Z 0042ff70 f   astc_color_quantize.obj
 0001:0002f2d0       ?www@?$vtype4@M@@QAE?AU?$vtype4_www_ref@M@@XZ 004302d0 f i astc_color_quantize.obj
 0001:0002f2e0       ?yxzw@?$vtype4@M@@QAE?AU?$vtype4_yxzw_ref@M@@XZ 004302e0 f i astc_color_quantize.obj
 0001:0002f2f0       ?zyxw@?$vtype4@M@@QAE?AU?$vtype4_zyxw_ref@M@@XZ 004302f0 f i astc_color_quantize.obj
 0001:0002f300       ?quantize_rgb@@YAXV?$vtype4@M@@0QAHH@Z 00430300 f   astc_color_quantize.obj
 0001:0002f6c0       ?quantize_rgba@@YAXV?$vtype4@M@@0QAHH@Z 004306c0 f   astc_color_quantize.obj
 0001:0002f820       ?try_quantize_rgb_blue_contract@@YAHV?$vtype4@M@@0QAHH@Z 00430820 f   astc_color_quantize.obj
 0001:0002fb30       ?try_quantize_rgba_blue_contract@@YAHV?$vtype4@M@@0QAHH@Z 00430b30 f   astc_color_quantize.obj
 0001:0002fc90       ?try_quantize_rgb_delta@@YAHV?$vtype4@M@@0QAHH@Z 00430c90 f   astc_color_quantize.obj
 0001:000300e0       ?try_quantize_rgb_delta_blue_contract@@YAHV?$vtype4@M@@0QAHH@Z 004310e0 f   astc_color_quantize.obj
 0001:00030540       ?try_quantize_rgba_delta@@YAHV?$vtype4@M@@0QAHH@Z 00431540 f   astc_color_quantize.obj
 0001:000305f0       ?try_quantize_rgba_delta_blue_contract@@YAHV?$vtype4@M@@0QAHH@Z 004315f0 f   astc_color_quantize.obj
 0001:000306a0       ?quantize_rgbs_new@@YAXV?$vtype4@M@@QAHH@Z 004316a0 f   astc_color_quantize.obj
 0001:000308e0       ?quantize_rgbs_alpha_new@@YAXV?$vtype4@M@@00QAHH@Z 004318e0 f   astc_color_quantize.obj
 0001:00030a20       ?quantize_luminance@@YAXV?$vtype4@M@@0QAHH@Z 00431a20 f   astc_color_quantize.obj
 0001:00030bc0       ?quantize_hdr_rgbo3@@YAXV?$vtype4@M@@QAHH@Z 00431bc0 f   astc_color_quantize.obj
 0001:00031530       ?quantize_hdr_rgb3@@YAXV?$vtype4@M@@0QAHH@Z 00432530 f   astc_color_quantize.obj
 0001:00032140       ?quantize_hdr_rgb_ldr_alpha3@@YAXV?$vtype4@M@@0QAHH@Z 00433140 f   astc_color_quantize.obj
 0001:00032290       ?quantize_hdr_rgb_alpha3@@YAXV?$vtype4@M@@0QAHH@Z 00433290 f   astc_color_quantize.obj
 0001:00032310       ?pack_color_endpoints@@YAHW4astc_decode_mode@@V?$vtype4@M@@111V?$vtype2@M@@HPAHH@Z 00433310 f   astc_color_quantize.obj
 0001:00032b40       ?rgb_delta_unpack@@YAHQBHHPAV?$vtype4@G@@1@Z 00433b40 f   astc_color_unquantize.obj
 0001:00032d00       ?rgb_unpack@@YAHQBHHPAV?$vtype4@G@@1@Z 00433d00 f   astc_color_unquantize.obj
 0001:00032e00       ?rgba_unpack@@YAXQBHHPAV?$vtype4@G@@1@Z 00433e00 f   astc_color_unquantize.obj
 0001:00032e80       ?rgba_delta_unpack@@YAXQBHHPAV?$vtype4@G@@1@Z 00433e80 f   astc_color_unquantize.obj
 0001:00032f10       ?hdr_alpha_unpack@@YAXQBHHPAH1@Z 00433f10 f   astc_color_unquantize.obj
 0001:00032ff0       ??0?$vtype4@G@@QAE@GGGG@Z  00433ff0 f i astc_color_unquantize.obj
 0001:00033020       ?rgb_scale_unpack@@YAXQBHHPAV?$vtype4@G@@1@Z 00434020 f   astc_color_unquantize.obj
 0001:000330d0       ?rgb_scale_alpha_unpack@@YAXQBHHPAV?$vtype4@G@@1@Z 004340d0 f   astc_color_unquantize.obj
 0001:00033120       ?luminance_unpack@@YAXQBHHPAV?$vtype4@G@@1@Z 00434120 f   astc_color_unquantize.obj
 0001:000331a0       ?luminance_delta_unpack@@YAXQBHHPAV?$vtype4@G@@1@Z 004341a0 f   astc_color_unquantize.obj
 0001:00033240       ?luminance_alpha_unpack@@YAXQBHHPAV?$vtype4@G@@1@Z 00434240 f   astc_color_unquantize.obj
 0001:000332d0       ?luminance_alpha_delta_unpack@@YAXQBHHPAV?$vtype4@G@@1@Z 004342d0 f   astc_color_unquantize.obj
 0001:000333c0       ?hdr_rgbo_unpack3@@YAXQBHHPAV?$vtype4@G@@1@Z 004343c0 f   astc_color_unquantize.obj
 0001:000336c0       ?hdr_rgb_unpack3@@YAXQBHHPAV?$vtype4@G@@1@Z 004346c0 f   astc_color_unquantize.obj
 0001:00033ad0       ?hdr_rgb_ldr_alpha_unpack3@@YAXQBHHPAV?$vtype4@G@@1@Z 00434ad0 f   astc_color_unquantize.obj
 0001:00033b20       ?hdr_luminance_small_range_unpack@@YAXQBHHPAV?$vtype4@G@@1@Z 00434b20 f   astc_color_unquantize.obj
 0001:00033bf0       ?hdr_luminance_large_range_unpack@@YAXQBHHPAV?$vtype4@G@@1@Z 00434bf0 f   astc_color_unquantize.obj
 0001:00033c90       ?hdr_rgb_hdr_alpha_unpack3@@YAXQBHHPAV?$vtype4@G@@1@Z 00434c90 f   astc_color_unquantize.obj
 0001:00033ce0       ?unpack_color_endpoints@@YAXW4astc_decode_mode@@HHPBHPAH22PAV?$vtype4@G@@3@Z 00434ce0 f   astc_color_unquantize.obj
 0001:00034270       _powf                      00435270 f i astc_compress_symbolic.obj
 0001:00034290       _sqrtf                     00435290 f i astc_compress_symbolic.obj
 0001:000342b0       ?pow@@YAMMM@Z              004352b0 f i astc_compress_symbolic.obj
 0001:000342d0       ?sqrt@@YAMM@Z              004352d0 f i astc_compress_symbolic.obj
 0001:000342f0       ?expand_block_artifact_suppression@@YAXHHHPAUerror_weighting_params@@@Z 004352f0 f   astc_compress_symbolic.obj
 0001:00034440       ??0?$vtype2@M@@QAE@XZ      00435440 f i astc_compress_symbolic.obj
 0001:00034450       ??0?$vtype4@M@@QAE@XZ      00435450 f i astc_compress_symbolic.obj
 0001:00034460       ??0?$vtype4@G@@QAE@ABV0@@Z 00435460 f i astc_compress_symbolic.obj
 0001:00034610       ?realign_weights@@YAHW4astc_decode_mode@@HHHPBUimageblock@@PBUerror_weight_block@@PAUsymbolic_compressed_block@@PAE4@Z 00435610 f   astc_compress_symbolic.obj
 0001:00035cf0       ??0endpoints@@QAE@XZ       00436cf0 f i astc_compress_symbolic.obj
 0001:00036060       ??0mat4@@QAE@XZ            00437060 f i astc_compress_symbolic.obj
 0001:00036070       ?compress_constant_color_block@@YAXHHHPBUimageblock@@PBUerror_weight_block@@PAUsymbolic_compressed_block@@@Z 00437070 f   astc_compress_symbolic.obj
 0001:000366f0       ??0error_weight_block@@QAE@XZ 004376f0 f i astc_compress_symbolic.obj
 0001:00036700       ??0error_weight_block_orig@@QAE@XZ 00437700 f i astc_compress_symbolic.obj
 0001:00036710       ??0endpoints_and_weights@@QAE@XZ 00437710 f i astc_compress_symbolic.obj
 0001:00037770       ?prepare_error_weight_block@@YAMPBUastc_codec_image@@HHHPBUerror_weighting_params@@PBUimageblock@@PAUerror_weight_block@@PAUerror_weight_block_orig@@@Z 00438770 f   astc_compress_symbolic.obj
 0001:00038540       ?prepare_block_statistics@@YAXHHHPBUimageblock@@PBUerror_weight_block@@PAHPAM@Z 00439540 f   astc_compress_symbolic.obj
 0001:000398c0       ?compress_symbolic_block@@YAMPBUastc_codec_image@@W4astc_decode_mode@@HHHPBUerror_weighting_params@@PBUimageblock@@PAUsymbolic_compressed_block@@@Z 0043a8c0 f   astc_compress_symbolic.obj
 0001:0003aa90       ??0?$vtype4@N@@QAE@XZ      0043ba90 f i astc_compute_variance.obj
 0001:0003aaa0       ??0?$vtype4@N@@QAE@NNNN@Z  0043baa0 f i astc_compute_variance.obj
 0001:0003aac0       ??0?$vtype4@N@@QAE@ABV0@@Z 0043bac0 f i astc_compute_variance.obj
 0001:0003e8d0       ?compute_averages_and_variances@@YAXPBUastc_codec_image@@MMHHUswizzlepattern@@@Z 0043f8d0 f   astc_compute_variance.obj
 0001:0003ea30       ?compute_value_of_texel_int@@YAHHPBUdecimation_table@@PBH@Z 0043fa30 f   astc_decompress_symbolic.obj
 0001:0003eaf0       ?compute_imageblock_difference@@YAMHHHPBUimageblock@@0PBUerror_weight_block@@@Z 0043faf0 f   astc_decompress_symbolic.obj
 0001:0003ec70       ??0?$vtype4@H@@QAE@HHHH@Z  0043fc70 f i astc_decompress_symbolic.obj
 0001:0003ec90       ??0?$vtype4@H@@QAE@ABV0@@Z 0043fc90 f i astc_decompress_symbolic.obj
 0001:0003ede0       ?lerp_color_int@@YA?AV?$vtype4@G@@W4astc_decode_mode@@V1@1HHH@Z 0043fde0 f   astc_decompress_symbolic.obj
 0001:0003efa0       ?decompress_symbolic_block@@YAXW4astc_decode_mode@@HHHHHHPBUsymbolic_compressed_block@@PAUimageblock@@@Z 0043ffa0 f   astc_decompress_symbolic.obj
 0001:0003f5f0       ?merge_endpoints@@YAXPBUendpoints@@0HPAU1@@Z 004405f0 f   astc_encoding_choice_error.obj
 0001:0003f900       ??0?$vtype3@M@@QAE@XZ      00440900 f i astc_encoding_choice_error.obj
 0001:0003f9d0       ??0line3@@QAE@XZ           004409d0 f i astc_encoding_choice_error.obj
 0001:0003f9e0       ??0processed_line3@@QAE@XZ 004409e0 f i astc_encoding_choice_error.obj
 0001:0003f9f0       ?compute_encoding_choice_errors@@YAXHHHPBUimageblock@@PBUpartition_info@@PBUerror_weight_block@@HPAUencoding_choice_errors@@@Z 004409f0 f   astc_encoding_choice_error.obj
 0001:00041750       ?imageblock_uses_alpha@@YAHHHHPBUimageblock@@@Z 00442750 f   astc_find_best_partitioning.obj
 0001:000420e0       ?compute_partition_error_color_weightings@@YAXHHHPBUerror_weight_block@@PBUpartition_info@@QAV?$vtype4@M@@2@Z 004430e0 f   astc_find_best_partitioning.obj
 0001:00042750       ??0line4@@QAE@XZ           00443750 f i astc_find_best_partitioning.obj
 0001:00042760       ??0processed_line4@@QAE@XZ 00443760 f i astc_find_best_partitioning.obj
 0001:00042770       ??0line2@@QAE@XZ           00443770 f i astc_find_best_partitioning.obj
 0001:00042780       ??0processed_line2@@QAE@XZ 00443780 f i astc_find_best_partitioning.obj
 0001:00042790       ?find_best_partitionings@@YAXHHHHHPBUimageblock@@PBUerror_weight_block@@HPAH22@Z 00443790 f   astc_find_best_partitioning.obj
 0001:00047cc0       ?compute_value_of_texel_flt@@YAMHPBUdecimation_table@@PBM@Z 00448cc0 f   astc_ideal_endpoints_and_weights.obj
 0001:00047d50       ?compute_two_error_changes_from_perturbing_weight_infill@@YAXPBUendpoints_and_weights@@PBUdecimation_table@@PAMHMM22@Z 00448d50 f   astc_ideal_endpoints_and_weights.obj
 0001:00047fa0       ?compute_error_of_weight_set@@YAMPBUendpoints_and_weights@@PBUdecimation_table@@PBM@Z 00448fa0 f   astc_ideal_endpoints_and_weights.obj
 0001:00048220       ?compute_ideal_weights_for_decimation_table@@YAXPBUendpoints_and_weights@@PBUdecimation_table@@PAM2@Z 00449220 f   astc_ideal_endpoints_and_weights.obj
 0001:00048a50       ??__G@YGXPAX0IHP6EPAX00@Z@Z 00449a50 f i astc_ideal_endpoints_and_weights.obj
 0001:00048a90       ??0?$vtype4@M@@QAE@ABV?$vtype3@M@@M@Z 00449a90 f i astc_ideal_endpoints_and_weights.obj
 0001:00049330       ??0line2@@QAE@ABU0@@Z      0044a330 f i astc_ideal_endpoints_and_weights.obj
 0001:00049350       ??0line3@@QAE@ABU0@@Z      0044a350 f i astc_ideal_endpoints_and_weights.obj
 0001:00049380       ??0line4@@QAE@ABU0@@Z      0044a380 f i astc_ideal_endpoints_and_weights.obj
 0001:000493c0       ??0mat2@@QAE@XZ            0044a3c0 f i astc_ideal_endpoints_and_weights.obj
 0001:000493d0       ??0mat4@@QAE@ABU0@@Z       0044a3d0 f i astc_ideal_endpoints_and_weights.obj
 0001:000493f0       ??0mat2@@QAE@ABU0@@Z       0044a3f0 f i astc_ideal_endpoints_and_weights.obj
 0001:0004bc80       ?compute_endpoints_and_ideal_weights_1_plane@@YAXHHHPBUpartition_info@@PBUimageblock@@PBUerror_weight_block@@PAUendpoints_and_weights@@@Z 0044cc80 f   astc_ideal_endpoints_and_weights.obj
 0001:0004bd00       ?compute_endpoints_and_ideal_weights_2_planes@@YAXHHHPBUpartition_info@@PBUimageblock@@PBUerror_weight_block@@HPAUendpoints_and_weights@@3@Z 0044cd00 f   astc_ideal_endpoints_and_weights.obj
 0001:0004bed0       ?recompute_ideal_colors@@YAXHHHHPAUendpoints@@PAV?$vtype4@M@@1PAV?$vtype2@M@@PBE3HPBUpartition_info@@PBUdecimation_table@@PBUimageblock@@PBUerror_weight_block@@@Z 0044ced0 f   astc_ideal_endpoints_and_weights.obj
 0001:0004f7f0       ?compute_ideal_quantized_weights_for_decimation_table@@YAXPBUendpoints_and_weights@@PBUdecimation_table@@MMPBMPAMPAEH@Z 004507f0 f   astc_ideal_endpoints_and_weights.obj
 0001:00050170       _frexpf                    00451170 f i astc_image_load_store.obj
 0001:00050190       ?frexp@@YAMMPAH@Z          00451190 f i astc_image_load_store.obj
 0001:000501b0       ?destroy_image@@YAXPAUastc_codec_image@@@Z 004511b0 f   astc_image_load_store.obj
 0001:00050220       ?allocate_image@@YAPAUastc_codec_image@@HHHHH@Z 00451220 f   astc_image_load_store.obj
 0001:000504d0       ?initialize_image@@YAXPAUastc_codec_image@@@Z 004514d0 f   astc_image_load_store.obj
 0001:00050610       ?fill_image_padding_area@@YAXPAUastc_codec_image@@@Z 00451610 f   astc_image_load_store.obj
 0001:00050960       ?determine_image_channels@@YAHPBUastc_codec_image@@@Z 00451960 f   astc_image_load_store.obj
 0001:00050aa0       ?float_to_lns@@YAMM@Z      00451aa0 f   astc_image_load_store.obj
 0001:00050bb0       ?lns_to_sf16@@YAGG@Z       00451bb0 f   astc_image_load_store.obj
 0001:00050c10       ?unorm16_to_sf16@@YAGG@Z   00451c10 f   astc_image_load_store.obj
 0001:00050c70       ?imageblock_initialize_deriv_from_work_and_orig@@YAXPAUimageblock@@H@Z 00451c70 f   astc_image_load_store.obj
 0001:00050f80       ?imageblock_initialize_work_from_orig@@YAXPAUimageblock@@H@Z 00451f80 f   astc_image_load_store.obj
 0001:00051070       ?imageblock_initialize_orig_from_work@@YAXPAUimageblock@@H@Z 00452070 f   astc_image_load_store.obj
 0001:00051500       ?write_imageblock@@YAXPAUastc_codec_image@@PBUimageblock@@HHHHHHUswizzlepattern@@@Z 00452500 f   astc_image_load_store.obj
 0001:00051da0       ?update_imageblock_flags@@YAXPAUimageblock@@HHH@Z 00452da0 f   astc_image_load_store.obj
 0001:00051f50       ?clampx@@YANN@Z            00452f50 f   astc_image_load_store.obj
 0001:00051f90       ?xlog2@@YANN@Z             00452f90 f   astc_image_load_store.obj
 0001:00051fc0       ?mpsnr_operator@@YANNH@Z   00452fc0 f   astc_image_load_store.obj
 0001:00052030       ?mpsnr_sumdiff@@YANNNHH@Z  00453030 f   astc_image_load_store.obj
 0001:000520a0       ?astc_codec_load_image@@YAPAUastc_codec_image@@PBDHPAH@Z 004530a0 f   astc_image_load_store.obj
 0001:000523d0       ?get_output_filename_enforced_bitness@@YAHPBD@Z 004533d0 f   astc_image_load_store.obj
 0001:00052550       ?astc_codec_store_image@@YAHPBUastc_codec_image@@PBDHPAPBD@Z 00453550 f   astc_image_load_store.obj
 0001:000528c0       ??0?$vtype3@N@@QAE@NNN@Z   004538c0 f i astc_image_load_store.obj
 0001:000528e0       ??0?$vtype4@N@@QAE@ABV?$vtype3@N@@N@Z 004538e0 f i astc_image_load_store.obj
 0001:00052900       ??0?$vtype4_xyz_ref@N@@QAE@PAV?$vtype4@N@@@Z 00453900 f i astc_image_load_store.obj
 0001:00052910       ??0?$vtype3@N@@QAE@ABU?$vtype4_xyz_ref@N@@@Z 00453910 f i astc_image_load_store.obj
 0001:000529e0       ?fetch_imageblock@@YAXPBUastc_codec_image@@PAUimageblock@@HHHHHHUswizzlepattern@@@Z 004539e0 f   astc_image_load_store.obj
 0001:00053270       ?xyz@?$vtype4@N@@QAE?AU?$vtype4_xyz_ref@N@@XZ 00454270 f i astc_image_load_store.obj
 0001:00053280       ?compute_error_metrics@@YAXHHPBUastc_codec_image@@0HH@Z 00454280 f   astc_image_load_store.obj
 0001:000540f0       ?find_number_of_bits_trits_quints@@YAXHPAH00@Z 004550f0 f   astc_integer_sequence.obj
 0001:000542e0       ?encode_ise@@YAXHHPBEPAEH@Z 004552e0 f   astc_integer_sequence.obj
 0001:000545d0       ?decode_ise@@YAXHHPBEPAEH@Z 004555d0 f   astc_integer_sequence.obj
 0001:00054890       ?compute_ise_bitcount@@YAHHW4quantization_method@@@Z 00455890 f   astc_integer_sequence.obj
 0001:00055040       ?count_partition_mismatch_bits@@YAXHHHHQB_KQAH@Z 00456040 f   astc_kmeans_partitioning.obj
 0001:00055270       ?get_partition_ordering_by_mismatch_bits@@YAXQBHQAH@Z 00456270 f   astc_kmeans_partitioning.obj
 0001:000553f0       ?kpp_initialize@@YAXHHHHPBUimageblock@@PAV?$vtype4@M@@@Z 004563f0 f   astc_kmeans_partitioning.obj
 0001:00055ef0       ?basic_kmeans_assign_pass@@YAXHHHHPBUimageblock@@PBV?$vtype4@M@@PAH@Z 00456ef0 f   astc_kmeans_partitioning.obj
 0001:00056190       ?basic_kmeans_update@@YAXHHHHPBUimageblock@@PBHPAV?$vtype4@M@@@Z 00457190 f   astc_kmeans_partitioning.obj
 0001:00056820       ?kmeans_compute_partition_ordering@@YAXHHHHPBUimageblock@@PAH@Z 00457820 f   astc_kmeans_partitioning.obj
 0001:00057750       ?u32_byterev@@YAKK@Z       00458750 f   astc_ktx_dds.obj
 0001:000579b0       ?load_ktx_uncompressed_image@@YAPAUastc_codec_image@@PBDHPAH@Z 004589b0 f   astc_ktx_dds.obj
 0001:000581a0       ?store_ktx_uncompressed_image@@YAHPBUastc_codec_image@@PBDH@Z 004591a0 f   astc_ktx_dds.obj
 0001:00058a00       ?load_dds_uncompressed_image@@YAPAUastc_codec_image@@PBDHPAH@Z 00459a00 f   astc_ktx_dds.obj
 0001:00059040       ?store_dds_uncompressed_image@@YAHPBUastc_codec_image@@PBDH@Z 0045a040 f   astc_ktx_dds.obj
 0001:00059af0       ?hash52@@YAKK@Z            0045aaf0 f   astc_partition_tables.obj
 0001:00059b30       ?select_partition@@YAHHHHHHH@Z 0045ab30 f   astc_partition_tables.obj
 0001:00059e30       ?generate_one_partition_table@@YAXHHHHHPAUpartition_info@@@Z 0045ae30 f   astc_partition_tables.obj
 0001:0005a130       ?get_partition_table@@YAPBUpartition_info@@HHHH@Z 0045b130 f   astc_partition_tables.obj
 0001:0005ba40       ?determine_optimal_set_of_endpoint_formats_to_use@@YAXHHHPBUpartition_info@@PBUimageblock@@PBUerror_weight_block@@PBUendpoints@@HPBHPBMQAY03HQAH77@Z 0045ca40 f   astc_pick_best_endpoint_format.obj
 0001:0005c100       ?build_quantization_mode_table@@YAXXZ 0045d100 f   astc_quantization.obj
 0001:0005c1a0       ?load_image_with_stb@@YAPAUastc_codec_image@@PBDHPAH@Z 0045d1a0 f   astc_stb_tga.obj
 0001:0005c460       ?load_tga_image@@YAPAUastc_codec_image@@PBDHPAH@Z 0045d460 f   astc_stb_tga.obj
 0001:0005ce50       ?store_tga_image@@YAHPBUastc_codec_image@@PBDH@Z 0045de50 f   astc_stb_tga.obj
 0001:0005d460       ?bitrev8@@YAHH@Z           0045e460 f   astc_symbolic_physical.obj
 0001:0005d4a0       ?symbolic_to_physical@@YA?AUphysical_compressed_block@@HHHPBUsymbolic_compressed_block@@@Z 0045e4a0 f   astc_symbolic_physical.obj
 0001:0005d970       ?physical_to_symbolic@@YAXHHHUphysical_compressed_block@@PAUsymbolic_compressed_block@@@Z 0045e970 f   astc_symbolic_physical.obj
 0001:0005dfd0       ?pthread_create@@YAHPAPAXPBHP6APAXPAX@Z2@Z 0045efd0 f   astc_toplevel.obj
 0001:0005e000       ?pthread_join@@YAHPAXPAPAX@Z 0045f000 f   astc_toplevel.obj
 0001:0005e010       ?get_time@@YANXZ           0045f010 f   astc_toplevel.obj
 0001:0005e070       ?astc_codec_unlink@@YAHPBD@Z 0045f070 f   astc_toplevel.obj
 0001:0005e090       ?get_number_of_cpus@@YAIXZ 0045f090 f   astc_toplevel.obj
 0001:0005e0b0       ?astc_codec_internal_error@@YAXPBDH@Z 0045f0b0 f   astc_toplevel.obj
 0001:0005e0d0       ?load_astc_file@@YAPAUastc_codec_image@@PBDHW4astc_decode_mode@@Uswizzlepattern@@@Z 0045f0d0 f   astc_toplevel.obj
 0001:0005e480       ?encode_astc_image_threadfunc@@YAPAXPAX@Z 0045f480 f   astc_toplevel.obj
 0001:0005e800       ?encode_astc_image@@YAXPBUastc_codec_image@@PAU1@HHHPBUerror_weighting_params@@W4astc_decode_mode@@Uswizzlepattern@@4PAEHH@Z 0045f800 f   astc_toplevel.obj
 0001:0005e9c0       ?store_astc_file@@YAXPBUastc_codec_image@@PBDHHHPBUerror_weighting_params@@W4astc_decode_mode@@Uswizzlepattern@@H@Z 0045f9c0 f   astc_toplevel.obj
 0001:0005eb70       ?pack_and_unpack_astc_image@@YAPAUastc_codec_image@@PBU1@HHHPBUerror_weighting_params@@W4astc_decode_mode@@Uswizzlepattern@@3HH@Z 0045fb70 f   astc_toplevel.obj
 0001:0005ec40       ?find_closest_blockdim_2d@@YAXMPAH0@Z 0045fc40 f   astc_toplevel.obj
 0001:0005eff0       ?find_closest_blockdim_3d@@YAXMPAH00@Z 0045fff0 f   astc_toplevel.obj
 0001:0005f4d0       ?compare_two_files@@YAXPBD0HH@Z 004604d0 f   astc_toplevel.obj
 0001:0005f590       ?test_inappropriate_extended_precision@@YAXXZ 00460590 f   astc_toplevel.obj
 0001:0005f5d0       ?dump_image@@YAXPAUastc_codec_image@@@Z 004605d0 f   astc_toplevel.obj
 0001:0005f6d0       _atan2f                    004606d0 f i astc_weight_align.obj
 0001:0005f6f0       ?atan2@@YAMMM@Z            004606f0 f i astc_weight_align.obj
 0001:0005f710       ?prepare_angular_tables@@YAXXZ 00460710 f   astc_weight_align.obj
 0001:0005f800       ?compute_angular_offsets@@YAXHPBM0HPAM@Z 00460800 f   astc_weight_align.obj
 0001:0005fa40       ?compute_lowest_and_highest_weight@@YAXHPBM0H0PAC1PAM22@Z 00460a40 f   astc_weight_align.obj
 0001:0005ff80       ?compute_angular_endpoints_for_quantization_levels@@YAXHPBM0HQAM1@Z 00460f80 f   astc_weight_align.obj
 0001:00060650       ?compute_angular_endpoints_1plane@@YAXMPBUblock_size_descriptor@@PBM1QAM2@Z 00461650 f   astc_weight_align.obj
 0001:00060800       ?compute_angular_endpoints_2planes@@YAXMPBUblock_size_descriptor@@PBM1QAM222@Z 00461800 f   astc_weight_align.obj
 0001:00060ac0       _acosf                     00461ac0 f i mathlib.obj
 0001:00060ae0       ?acos@@YAMM@Z              00461ae0 f i mathlib.obj
 0001:00060b80       ?cbrt@@YANN@Z              00461b80 f   mathlib.obj
 0001:00060bb0       ?inversesqrt@@YAMM@Z       00461bb0 f   mathlib.obj
 0001:00060bd0       ?acospi@@YAMM@Z            00461bd0 f   mathlib.obj
 0001:00060bf0       ?sinpi@@YAMM@Z             00461bf0 f   mathlib.obj
 0001:00060c10       ?cospi@@YAMM@Z             00461c10 f   mathlib.obj
 0001:00060c30       ?nan@@YAMH@Z               00461c30 f   mathlib.obj
 0001:00060c50       ?fmax@@YAMMM@Z             00461c50 f   mathlib.obj
 0001:00060c90       ?fmin@@YAMMM@Z             00461c90 f   mathlib.obj
 0001:00060cd0       ?trace@@YAMUmat2@@@Z       00461cd0 f   mathlib.obj
 0001:00060cf0       ?trace@@YAMUmat3@@@Z       00461cf0 f   mathlib.obj
 0001:00060d10       ?trace@@YAMUmat4@@@Z       00461d10 f   mathlib.obj
 0001:00060d30       ??0?$vtype4@M@@QAE@ABV?$vtype2@M@@0@Z 00461d30 f i mathlib.obj
 0001:00060d60       ??0?$vtype3_yzx_ref@M@@QAE@PAV?$vtype3@M@@@Z 00461d60 f i mathlib.obj
 0001:00060d70       ??0?$vtype3_zxy_ref@M@@QAE@PAV?$vtype3@M@@@Z 00461d70 f i mathlib.obj
 0001:00060d80       ??0?$vtype4_zwxy_ref@M@@QAE@PAV?$vtype4@M@@@Z 00461d80 f i mathlib.obj
 0001:00060d90       ??0?$vtype4_zxy_ref@M@@QAE@PAV?$vtype4@M@@@Z 00461d90 f i mathlib.obj
 0001:00060da0       ??0?$vtype4_yzx_ref@M@@QAE@PAV?$vtype4@M@@@Z 00461da0 f i mathlib.obj
 0001:00060db0       ??0?$vtype4_wz_ref@M@@QAE@PAV?$vtype4@M@@@Z 00461db0 f i mathlib.obj
 0001:00060dc0       ??0?$vtype4_wy_ref@M@@QAE@PAV?$vtype4@M@@@Z 00461dc0 f i mathlib.obj
 0001:00060dd0       ??0?$vtype4_wx_ref@M@@QAE@PAV?$vtype4@M@@@Z 00461dd0 f i mathlib.obj
 0001:00060de0       ??0?$vtype4_zy_ref@M@@QAE@PAV?$vtype4@M@@@Z 00461de0 f i mathlib.obj
 0001:00060df0       ??0?$vtype4_zx_ref@M@@QAE@PAV?$vtype4@M@@@Z 00461df0 f i mathlib.obj
 0001:00060e00       ??0?$vtype4_yw_ref@M@@QAE@PAV?$vtype4@M@@@Z 00461e00 f i mathlib.obj
 0001:00060e10       ??0?$vtype4_yx_ref@M@@QAE@PAV?$vtype4@M@@@Z 00461e10 f i mathlib.obj
 0001:00060e20       ??0?$vtype4_xw_ref@M@@QAE@PAV?$vtype4@M@@@Z 00461e20 f i mathlib.obj
 0001:00060e30       ??0?$vtype3_zy_ref@M@@QAE@PAV?$vtype3@M@@@Z 00461e30 f i mathlib.obj
 0001:00060e40       ??0?$vtype3_zx_ref@M@@QAE@PAV?$vtype3@M@@@Z 00461e40 f i mathlib.obj
 0001:00060e50       ??0?$vtype3_yx_ref@M@@QAE@PAV?$vtype3@M@@@Z 00461e50 f i mathlib.obj
 0001:00060e60       ??0?$vtype2_yy_ref@M@@QAE@PAV?$vtype2@M@@@Z 00461e60 f i mathlib.obj
 0001:00060e70       ??0?$vtype2_yx_ref@M@@QAE@PAV?$vtype2@M@@@Z 00461e70 f i mathlib.obj
 0001:00060e80       ??0?$vtype2@M@@QAE@ABU?$vtype4_wz_ref@M@@@Z 00461e80 f i mathlib.obj
 0001:00060ea0       ??0?$vtype2@M@@QAE@ABU?$vtype4_wy_ref@M@@@Z 00461ea0 f i mathlib.obj
 0001:00060ec0       ??0?$vtype2@M@@QAE@ABU?$vtype4_wx_ref@M@@@Z 00461ec0 f i mathlib.obj
 0001:00060ee0       ??0?$vtype2@M@@QAE@ABU?$vtype4_zy_ref@M@@@Z 00461ee0 f i mathlib.obj
 0001:00060f00       ??0?$vtype2@M@@QAE@ABU?$vtype4_zx_ref@M@@@Z 00461f00 f i mathlib.obj
 0001:00060f20       ??0?$vtype2@M@@QAE@ABU?$vtype4_yw_ref@M@@@Z 00461f20 f i mathlib.obj
 0001:00060f40       ??0?$vtype2@M@@QAE@ABU?$vtype4_yx_ref@M@@@Z 00461f40 f i mathlib.obj
 0001:00060f60       ??0?$vtype2@M@@QAE@ABU?$vtype4_xw_ref@M@@@Z 00461f60 f i mathlib.obj
 0001:00060f80       ??0?$vtype2@M@@QAE@ABU?$vtype3_zy_ref@M@@@Z 00461f80 f i mathlib.obj
 0001:00060fa0       ??0?$vtype2@M@@QAE@ABU?$vtype3_zx_ref@M@@@Z 00461fa0 f i mathlib.obj
 0001:00060fc0       ??0?$vtype2@M@@QAE@ABU?$vtype3_yx_ref@M@@@Z 00461fc0 f i mathlib.obj
 0001:00060fe0       ??0?$vtype2@M@@QAE@ABU?$vtype2_yy_ref@M@@@Z 00461fe0 f i mathlib.obj
 0001:00061000       ??0?$vtype2@M@@QAE@ABU?$vtype2_yx_ref@M@@@Z 00462000 f i mathlib.obj
 0001:00061020       ??0?$vtype3@M@@QAE@ABU?$vtype4_zxy_ref@M@@@Z 00462020 f i mathlib.obj
 0001:00061040       ??0?$vtype3@M@@QAE@ABU?$vtype4_yzx_ref@M@@@Z 00462040 f i mathlib.obj
 0001:00061060       ??0?$vtype3@M@@QAE@ABU?$vtype3_zxy_ref@M@@@Z 00462060 f i mathlib.obj
 0001:00061080       ??0?$vtype3@M@@QAE@ABU?$vtype3_yzx_ref@M@@@Z 00462080 f i mathlib.obj
 0001:000610a0       ??0?$vtype4@M@@QAE@ABU?$vtype4_zwxy_ref@M@@@Z 004620a0 f i mathlib.obj
 0001:000610d0       ??4?$vtype4_xw_ref@M@@QAEAAU0@ABV?$vtype2@M@@@Z 004620d0 f i mathlib.obj
 0001:00061440       ?fmax@@YA?AV?$vtype2@M@@V1@0@Z 00462440 f   mathlib.obj
 0001:00061500       ?fmax@@YA?AV?$vtype3@M@@V1@0@Z 00462500 f   mathlib.obj
 0001:000615e0       ?fmax@@YA?AV?$vtype4@M@@V1@0@Z 004625e0 f   mathlib.obj
 0001:00061710       ?fmin@@YA?AV?$vtype2@M@@V1@0@Z 00462710 f   mathlib.obj
 0001:000617d0       ?fmin@@YA?AV?$vtype3@M@@V1@0@Z 004627d0 f   mathlib.obj
 0001:000618b0       ?fmin@@YA?AV?$vtype4@M@@V1@0@Z 004628b0 f   mathlib.obj
 0001:000619e0       ?length@@YAMV?$vtype2@M@@@Z 004629e0 f   mathlib.obj
 0001:00061a10       ?length@@YAMV?$vtype3@M@@@Z 00462a10 f   mathlib.obj
 0001:00061a40       ?length@@YAMV?$vtype4@M@@@Z 00462a40 f   mathlib.obj
 0001:00061a80       ?length_sqr@@YAMV?$vtype2@M@@@Z 00462a80 f   mathlib.obj
 0001:00061aa0       ?length_sqr@@YAMV?$vtype3@M@@@Z 00462aa0 f   mathlib.obj
 0001:00061ac0       ?length_sqr@@YAMV?$vtype4@M@@@Z 00462ac0 f   mathlib.obj
 0001:00061af0       ?distance@@YAMV?$vtype2@M@@0@Z 00462af0 f   mathlib.obj
 0001:00061b30       ?distance@@YAMV?$vtype3@M@@0@Z 00462b30 f   mathlib.obj
 0001:00061b90       ?distance@@YAMV?$vtype4@M@@0@Z 00462b90 f   mathlib.obj
 0001:00061c00       ?distance_sqr@@YAMV?$vtype2@M@@0@Z 00462c00 f   mathlib.obj
 0001:00061c40       ?distance_sqr@@YAMV?$vtype3@M@@0@Z 00462c40 f   mathlib.obj
 0001:00061c90       ?distance_sqr@@YAMV?$vtype4@M@@0@Z 00462c90 f   mathlib.obj
 0001:00061cf0       ?normalize@@YA?AV?$vtype2@M@@V1@@Z 00462cf0 f   mathlib.obj
 0001:00061d30       ?normalize@@YA?AV?$vtype3@M@@V1@@Z 00462d30 f   mathlib.obj
 0001:00061d80       ?normalize@@YA?AV?$vtype4@M@@V1@@Z 00462d80 f   mathlib.obj
 0001:00061df0       ??0mat3@@QAE@ABU0@@Z       00462df0 f i mathlib.obj
 0001:00061e10       ?solve_monic@@YA?AV?$vtype3@M@@V1@@Z 00462e10 f   mathlib.obj
 0001:000621e0       ?transform@@YA?AV?$vtype2@M@@Umat2@@V1@@Z 004631e0 f   mathlib.obj
 0001:00062210       ?transform@@YA?AV?$vtype3@M@@Umat3@@V1@@Z 00463210 f   mathlib.obj
 0001:00062280       ?transform@@YA?AV?$vtype4@M@@Umat4@@V1@@Z 00463280 f   mathlib.obj
 0001:00062330       ??0mat3@@QAE@XZ            00463330 f i mathlib.obj
 0001:00062340       ??D@YA?AUmat2@@U0@0@Z      00463340 f   mathlib.obj
 0001:00062430       ??D@YA?AUmat3@@U0@0@Z      00463430 f   mathlib.obj
 0001:00062700       ??D@YA?AUmat4@@U0@0@Z      00463700 f   mathlib.obj
 0001:00062e20       ?param_nearest_on_line@@YAMV?$vtype2@M@@Uline2@@@Z 00463e20 f   mathlib.obj
 0001:00062e80       ?param_nearest_on_line@@YAMV?$vtype3@M@@Uline3@@@Z 00463e80 f   mathlib.obj
 0001:00062f00       ?param_nearest_on_line@@YAMV?$vtype4@M@@Uline4@@@Z 00463f00 f   mathlib.obj
 0001:00062fb0       ?point_line_distance_sqr@@YAMV?$vtype2@M@@Uline2@@@Z 00463fb0 f   mathlib.obj
 0001:00063050       ?point_line_distance_sqr@@YAMV?$vtype3@M@@Uline3@@@Z 00464050 f   mathlib.obj
 0001:00063130       ?point_line_distance_sqr@@YAMV?$vtype4@M@@Uline4@@@Z 00464130 f   mathlib.obj
 0001:00063250       ?point_plane_3d_distance@@YAMV?$vtype3@M@@Uplane_3d@@@Z 00464250 f   mathlib.obj
 0001:000632a0       ?point_hyperplane_4d_distance@@YAMV?$vtype4@M@@Uhyperplane_4d@@@Z 004642a0 f   mathlib.obj
 0001:00063310       ??0plane_3d@@QAE@XZ        00464310 f i mathlib.obj
 0001:00063320       ??0plane_3d@@QAE@ABU0@@Z   00464320 f i mathlib.obj
 0001:00063350       ??0hyperplane_4d@@QAE@XZ   00464350 f i mathlib.obj
 0001:00063360       ??0hyperplane_4d@@QAE@ABU0@@Z 00464360 f i mathlib.obj
 0001:000633a0       ?yx@?$vtype2@M@@QAE?AU?$vtype2_yx_ref@M@@XZ 004643a0 f i mathlib.obj
 0001:000633b0       ?yy@?$vtype2@M@@QAE?AU?$vtype2_yy_ref@M@@XZ 004643b0 f i mathlib.obj
 0001:000633c0       ?yx@?$vtype3@M@@QAE?AU?$vtype3_yx_ref@M@@XZ 004643c0 f i mathlib.obj
 0001:000633d0       ?zx@?$vtype3@M@@QAE?AU?$vtype3_zx_ref@M@@XZ 004643d0 f i mathlib.obj
 0001:000633e0       ?zy@?$vtype3@M@@QAE?AU?$vtype3_zy_ref@M@@XZ 004643e0 f i mathlib.obj
 0001:000633f0       ?yzx@?$vtype3@M@@QAE?AU?$vtype3_yzx_ref@M@@XZ 004643f0 f i mathlib.obj
 0001:00063400       ?zxy@?$vtype3@M@@QAE?AU?$vtype3_zxy_ref@M@@XZ 00464400 f i mathlib.obj
 0001:00063410       ?xw@?$vtype4@M@@QAE?AU?$vtype4_xw_ref@M@@XZ 00464410 f i mathlib.obj
 0001:00063420       ?yx@?$vtype4@M@@QAE?AU?$vtype4_yx_ref@M@@XZ 00464420 f i mathlib.obj
 0001:00063430       ?yw@?$vtype4@M@@QAE?AU?$vtype4_yw_ref@M@@XZ 00464430 f i mathlib.obj
 0001:00063440       ?zx@?$vtype4@M@@QAE?AU?$vtype4_zx_ref@M@@XZ 00464440 f i mathlib.obj
 0001:00063450       ?zy@?$vtype4@M@@QAE?AU?$vtype4_zy_ref@M@@XZ 00464450 f i mathlib.obj
 0001:00063460       ?wx@?$vtype4@M@@QAE?AU?$vtype4_wx_ref@M@@XZ 00464460 f i mathlib.obj
 0001:00063470       ?wy@?$vtype4@M@@QAE?AU?$vtype4_wy_ref@M@@XZ 00464470 f i mathlib.obj
 0001:00063480       ?wz@?$vtype4@M@@QAE?AU?$vtype4_wz_ref@M@@XZ 00464480 f i mathlib.obj
 0001:00063490       ?yzx@?$vtype4@M@@QAE?AU?$vtype4_yzx_ref@M@@XZ 00464490 f i mathlib.obj
 0001:000634a0       ?zxy@?$vtype4@M@@QAE?AU?$vtype4_zxy_ref@M@@XZ 004644a0 f i mathlib.obj
 0001:000634b0       ?zwxy@?$vtype4@M@@QAE?AU?$vtype4_zwxy_ref@M@@XZ 004644b0 f i mathlib.obj
 0001:000634c0       ?cross@@YA?AV?$vtype3@M@@V1@0@Z 004644c0 f   mathlib.obj
 0001:00063540       ?cross@@YA?AV?$vtype4@M@@V1@0@Z 00464540 f   mathlib.obj
 0001:000635e0       ?determinant@@YAMUmat2@@@Z 004645e0 f   mathlib.obj
 0001:00063610       ?determinant@@YAMUmat3@@@Z 00464610 f   mathlib.obj
 0001:00063680       ?determinant@@YAMUmat4@@@Z 00464680 f   mathlib.obj
 0001:00063880       ?characteristic_poly@@YA?AV?$vtype2@M@@Umat2@@@Z 00464880 f   mathlib.obj
 0001:000638d0       ?characteristic_poly@@YA?AV?$vtype3@M@@Umat3@@@Z 004648d0 f   mathlib.obj
 0001:000639e0       ?characteristic_poly@@YA?AV?$vtype4@M@@Umat4@@@Z 004649e0 f   mathlib.obj
 0001:00063e00       ?solve_monic@@YA?AV?$vtype2@M@@V1@@Z 00464e00 f   mathlib.obj
 0001:00063e70       ?solve_monic@@YA?AV?$vtype4@M@@V1@@Z 00464e70 f   mathlib.obj
 0001:00064150       ?adjugate@@YA?AUmat2@@U1@@Z 00465150 f   mathlib.obj
 0001:000641b0       ?invert@@YA?AUmat2@@U1@@Z  004651b0 f   mathlib.obj
 0001:00064270       ?adjugate@@YA?AUmat3@@U1@@Z 00465270 f   mathlib.obj
 0001:00064390       ?invert@@YA?AUmat3@@U1@@Z  00465390 f   mathlib.obj
 0001:00064570       ?adjugate@@YA?AUmat4@@U1@@Z 00465570 f   mathlib.obj
 0001:00064bc0       ?invert@@YA?AUmat4@@U1@@Z  00465bc0 f   mathlib.obj
 0001:000652e0       ?eigenvalues@@YA?AV?$vtype2@M@@Umat2@@@Z 004662e0 f   mathlib.obj
 0001:00065340       ?eigenvalues@@YA?AV?$vtype3@M@@Umat3@@@Z 00466340 f   mathlib.obj
 0001:000653b0       ?eigenvalues@@YA?AV?$vtype4@M@@Umat4@@@Z 004663b0 f   mathlib.obj
 0001:00065460       ?eigenvector@@YA?AV?$vtype2@M@@Umat2@@M@Z 00466460 f   mathlib.obj
 0001:000654f0       ?eigenvector@@YA?AV?$vtype3@M@@Umat3@@M@Z 004664f0 f   mathlib.obj
 0001:00065630       ?gcross@@YA?AV?$vtype4@M@@V1@00@Z 00466630 f   mathlib.obj
 0001:000657f0       ?eigenvector@@YA?AV?$vtype4@M@@Umat4@@M@Z 004667f0 f   mathlib.obj
 0001:00065f00       ?point_line_distance@@YAMV?$vtype2@M@@Uline2@@@Z 00466f00 f   mathlib.obj
 0001:00065fb0       ?point_line_distance@@YAMV?$vtype3@M@@Uline3@@@Z 00466fb0 f   mathlib.obj
 0001:000660a0       ?point_line_distance@@YAMV?$vtype4@M@@Uline4@@@Z 004670a0 f   mathlib.obj
 0001:000661c0       ?generate_plane_from_points@@YA?AUplane_3d@@V?$vtype3@M@@00@Z 004671c0 f   mathlib.obj
 0001:00066330       ?generate_hyperplane_from_points@@YA?AUhyperplane_4d@@V?$vtype4@M@@000@Z 00467330 f   mathlib.obj
 0001:00066550       _clz32                     00467550 f   softfloat.obj
 0001:000665c0       _sf16_to_sf32              004675c0 f   softfloat.obj
 0001:00066620       _sf32_to_sf16              00467620 f   softfloat.obj
 0001:000667a0       _sf16_to_float             004677a0 f   softfloat.obj
 0001:000667c0       _float_to_sf16             004677c0 f   softfloat.obj
 0001:00066870       _stbi_failure_reason       00467870 f   stb_image.obj
 0001:00066890       _stbi_image_free           00467890 f   stb_image.obj
 0001:000668a0       _stbi_hdr_to_ldr_gamma     004678a0 f   stb_image.obj
 0001:000668b0       _stbi_hdr_to_ldr_scale     004678b0 f   stb_image.obj
 0001:000668c0       _stbi_ldr_to_hdr_gamma     004678c0 f   stb_image.obj
 0001:000668d0       _stbi_ldr_to_hdr_scale     004678d0 f   stb_image.obj
 0001:0006aa10       _stbi_zlib_decode_malloc_guesssize 0046ba10 f   stb_image.obj
 0001:0006abb0       _stbi_zlib_decode_malloc   0046bbb0 f   stb_image.obj
 0001:0006abd0       _stbi_zlib_decode_malloc_guesssize_headerflag 0046bbd0 f   stb_image.obj
 0001:0006ac90       _stbi_zlib_decode_buffer   0046bc90 f   stb_image.obj
 0001:0006ae20       _stbi_zlib_decode_noheader_malloc 0046be20 f   stb_image.obj
 0001:0006aef0       _stbi_zlib_decode_noheader_buffer 0046bef0 f   stb_image.obj
 0001:0006bdf0       _stbi_set_unpremultiply_on_load 0046cdf0 f   stb_image.obj
 0001:0006be00       _stbi_convert_iphone_png_to_rgb 0046ce00 f   stb_image.obj
 0001:00071330       _stbi_info_from_memory     00472330 f   stb_image.obj
 0001:000715d0       _stbi_load_from_file       004725d0 f   stb_image.obj
 0001:00071640       _stbi_load_from_memory     00472640 f   stb_image.obj
 0001:000716d0       _stbi_load_from_callbacks  004726d0 f   stb_image.obj
 0001:00071740       _stbi_loadf_main           00472740 f   stb_image.obj
 0001:000717d0       _stbi_loadf_from_memory    004727d0 f   stb_image.obj
 0001:00071860       _stbi_loadf_from_callbacks 00472860 f   stb_image.obj
 0001:000718e0       _stbi_loadf_from_file      004728e0 f   stb_image.obj
 0001:00071960       _stbi_is_hdr_from_memory   00472960 f   stb_image.obj
 0001:000719d0       _stbi_is_hdr_from_file     004729d0 f   stb_image.obj
 0001:00071a20       _stbi_is_hdr_from_callbacks 00472a20 f   stb_image.obj
 0001:00071a70       _stbi_info_from_file       00472a70 f   stb_image.obj
 0001:00071b00       _stbi_info_from_callbacks  00472b00 f   stb_image.obj
 0001:00071b70       _stbi_load                 00472b70 f   stb_image.obj
 0001:00071bc0       _stbi_loadf                00472bc0 f   stb_image.obj
 0001:00071c10       _stbi_is_hdr               00472c10 f   stb_image.obj
 0001:00071c50       _stbi_info                 00472c50 f   stb_image.obj
 0001:00071ca0       ?linear_to_sRGB@@YAHH@Z    00472ca0 f   color.obj
 0001:00071d40       ?sRGB_to_linear@@YAHH@Z    00472d40 f   color.obj
 0001:00071e10       ?extract_block@@YAXPBEHHHHPAE@Z 00472e10 f   dxt.obj
 0001:00074a10       ?compress_DXT1@@YAXPAEPBEHHHHH@Z 00475a10 f   dxt.obj
 0001:00074ac0       ?compress_DXT3@@YAXPAEPBEHHHH@Z 00475ac0 f   dxt.obj
 0001:00074b70       ?compress_DXT5@@YAXPAEPBEHHHH@Z 00475b70 f   dxt.obj
 0001:00074c20       ?compress_BC4@@YAXPAEPBEHH@Z 00475c20 f   dxt.obj
 0001:00074cb0       ?compress_BC5@@YAXPAEPBEHH@Z 00475cb0 f   dxt.obj
 0001:00074d60       ?compress_YCoCg@@YAXPAEPBEHH@Z 00475d60 f   dxt.obj
 0001:00075a90       ?dxt_decompress@@YAHPAE0HIIIHH@Z 00476a90 f   dxt.obj
 0001:00075c20       ?setupAlphaTable@@YAXXZ    00476c20 f   etcdec.obj
 0001:00075d60       ?etcpack_read_big_endian_2byte_word@@YAXPAGPAU_iobuf@@@Z 00476d60 f   etcdec.obj
 0001:00075dd0       ?etcpack_read_big_endian_4byte_word@@YAXPAIPAU_iobuf@@@Z 00476dd0 f   etcdec.obj
 0001:00075e80       ?unstuff57bits@@YAXIIAAI0@Z 00476e80 f   etcdec.obj
 0001:000760c0       ?unstuff58bits@@YAXIIAAI0@Z 004770c0 f   etcdec.obj
 0001:00076180       ?unstuff59bits@@YAXIIAAI0@Z 00477180 f   etcdec.obj
 0001:000761f0       ?etcpack_decompressColor@@YAXHHHQAY02E0@Z 004771f0 f   etcdec.obj
 0001:00076320       ?calculatePaintColors59T@@YAXEEQAY02E0@Z 00477320 f   etcdec.obj
 0001:00076610       ?decompressBlockTHUMB59Tc@@YAXIIPAEHHHHH@Z 00477610 f   etcdec.obj
 0001:00076900       ?decompressBlockTHUMB59T@@YAXIIPAEHHHH@Z 00477900 f   etcdec.obj
 0001:00076930       ?etcpack_calculatePaintColors58H@@YAXEEQAY02E0@Z 00477930 f   etcdec.obj
 0001:00076e50       ?decompressBlockTHUMB58Hc@@YAXIIPAEHHHHH@Z 00477e50 f   etcdec.obj
 0001:00077170       ?decompressBlockTHUMB58H@@YAXIIPAEHHHH@Z 00478170 f   etcdec.obj
 0001:000771a0       ?decompressBlockPlanar57c@@YAXIIPAEHHHHH@Z 004781a0 f   etcdec.obj
 0001:00077550       ?decompressBlockPlanar57@@YAXIIPAEHHHH@Z 00478550 f   etcdec.obj
 0001:00077580       ?decompressBlockDiffFlipC@@YAXIIPAEHHHHH@Z 00478580 f   etcdec.obj
 0001:00078ab0       ?etcpack_decompressBlockDiffFlip@@YAXIIPAEHHHH@Z 00479ab0 f   etcdec.obj
 0001:00078ae0       ?decompressBlockETC2c@@YAXIIPAEHHHHH@Z 00479ae0 f   etcdec.obj
 0001:00078d00       ?decompressBlockETC2@@YAXIIPAEHHHH@Z 00479d00 f   etcdec.obj
 0001:00078d30       ?decompressBlockDifferentialWithAlphaC@@YAXIIPAE0HHHHH@Z 00479d30 f   etcdec.obj
 0001:00079910       ?decompressBlockDifferentialWithAlpha@@YAXIIPAE0HHHH@Z 0047a910 f   etcdec.obj
 0001:00079940       ?decompressBlockTHUMB59TAlphaC@@YAXIIPAE0HHHHH@Z 0047a940 f   etcdec.obj
 0001:00079d10       ?decompressBlockTHUMB59TAlpha@@YAXIIPAE0HHHH@Z 0047ad10 f   etcdec.obj
 0001:00079d40       ?decompressBlockTHUMB58HAlphaC@@YAXIIPAE0HHHHH@Z 0047ad40 f   etcdec.obj
 0001:0007a140       ?decompressBlockTHUMB58HAlpha@@YAXIIPAE0HHHH@Z 0047b140 f   etcdec.obj
 0001:0007a170       ?decompressBlockETC21BitAlphaC@@YAXIIPAE0HHHHH@Z 0047b170 f   etcdec.obj
 0001:0007a610       ?decompressBlockETC21BitAlpha@@YAXIIPAE0HHHH@Z 0047b610 f   etcdec.obj
 0001:0007a640       ?etcpack_getbit@@YAEEHH@Z  0047b640 f   etcdec.obj
 0001:0007a690       ?etcpack_clamp@@YAHH@Z     0047b690 f   etcdec.obj
 0001:0007a6c0       ?decompressBlockAlphaC@@YAXPAE0HHHHH@Z 0047b6c0 f   etcdec.obj
 0001:0007a7e0       ?decompressBlockAlpha@@YAXPAE0HHHH@Z 0047b7e0 f   etcdec.obj
 0001:0007a810       ?get16bits11signed@@YAHHHHH@Z 0047b810 f   etcdec.obj
 0001:0007a940       ?etcpack_get16bits11bits@@YAHHHHH@Z 0047b940 f   etcdec.obj
 0001:0007aa40       ?decompressBlockAlpha16bitC@@YAXPAE0HHHHH@Z 0047ba40 f   etcdec.obj
 0001:0007abd0       ?decompressBlockAlpha16bit@@YAXPAE0HHHH@Z 0047bbd0 f   etcdec.obj
 0001:0007ac00       ?indexConversion@@YAHH@Z   0047bc00 f   etcpack.obj
 0001:0007ad80       ?fileExist@@YA_NPAD@Z      0047bd80 f   etcpack.obj
 0001:0007adc0       ?expandToWidthDivByFour@@YA_NAAPAEHHAAH1H@Z 0047bdc0 f   etcpack.obj
 0001:0007b000       ?expandToHeightDivByFour@@YA_NAAPAEHHAAH1H@Z 0047c000 f   etcpack.obj
 0001:0007b1d0       ?find_pos_of_extension@@YAHPAD@Z 0047c1d0 f   etcpack.obj
 0001:0007b220       ?etcpack_readSrcFile@@YA_NPADAAPAEAAH222@Z 0047c220 f   etcpack.obj
 0001:0007b4e0       ?readSrcFileNoExpand@@YA_NPADAAPAEAAH2@Z 0047c4e0 f   etcpack.obj
 0001:0007b600       ?etcpack_readArguments@@YAXHQAPADPAD1@Z 0047c600 f   etcpack.obj
 0001:0007bd40       ?readCompressParams@@YA_NXZ 0047cd40 f   etcpack.obj
 0001:0007bfd0       ?etcpack_computeAverageColor2x4noQuantFloat@@YAXPAEHHHHPAM@Z 0047cfd0 f   etcpack.obj
 0001:0007c0b0       ?etcpack_computeAverageColor4x2noQuantFloat@@YAXPAEHHHHPAM@Z 0047d0b0 f   etcpack.obj
 0001:0007c190       ?etcpack_compressBlockWithTable2x4@@YAHPAEHHHH0HPAI1@Z 0047d190 f   etcpack.obj
 0001:0007c4b0       ?compressBlockWithTable2x4percep1000@@YAIPAEHHHH0HPAI1@Z 0047d4b0 f   etcpack.obj
 0001:0007c7e0       ?etcpack_compressBlockWithTable2x4percep@@YAMPAEHHHH0HPAI1@Z 0047d7e0 f   etcpack.obj
 0001:0007cb50       ?etcpack_compressBlockWithTable4x2@@YAHPAEHHHH0HPAI1@Z 0047db50 f   etcpack.obj
 0001:0007ce80       ?compressBlockWithTable4x2percep1000@@YAIPAEHHHH0HPAI1@Z 0047de80 f   etcpack.obj
 0001:0007d1c0       ?etcpack_compressBlockWithTable4x2percep@@YAMPAEHHHH0HPAI1@Z 0047e1c0 f   etcpack.obj
 0001:0007d530       ?etcpack_tryalltables_3bittable2x4@@YAHPAEHHHH0AAI11@Z 0047e530 f   etcpack.obj
 0001:0007d5c0       ?tryalltables_3bittable2x4percep1000@@YAIPAEHHHH0AAI11@Z 0047e5c0 f   etcpack.obj
 0001:0007d650       ?etcpack_tryalltables_3bittable2x4percep@@YAHPAEHHHH0AAI11@Z 0047e650 f   etcpack.obj
 0001:0007d6f0       ?etcpack_tryalltables_3bittable4x2@@YAHPAEHHHH0AAI11@Z 0047e6f0 f   etcpack.obj
 0001:0007d780       ?tryalltables_3bittable4x2percep1000@@YAIPAEHHHH0AAI11@Z 0047e780 f   etcpack.obj
 0001:0007d810       ?etcpack_tryalltables_3bittable4x2percep@@YAHPAEHHHH0AAI11@Z 0047e810 f   etcpack.obj
 0001:0007d8b0       ?etcpack_quantize444ColorCombined@@YAXPAMPAHPAE@Z 0047e8b0 f   etcpack.obj
 0001:0007e250       ?etcpack_quantize555ColorCombined@@YAXPAMPAHPAE@Z 0047f250 f   etcpack.obj
 0001:0007eb70       ?etcpack_quantize444ColorCombinedPerceptual@@YAXPAMPAHPAE@Z 0047fb70 f   etcpack.obj
 0001:0007f470       ?etcpack_quantize555ColorCombinedPerceptual@@YAXPAMPAHPAE@Z 00480470 f   etcpack.obj
 0001:0007fda0       ?compressBlockOnlyIndividualAveragePerceptual1000@@YAIPAEHHHHAAI1PAH2AAH11112222@Z 00480da0 f   etcpack.obj
 0001:00080840       ?compressBlockOnlyIndividualAverage@@YAHPAEHHHHAAI1PAH2AAH11112222@Z 00481840 f   etcpack.obj
 0001:000812f0       ?compressBlockDiffFlipAverage@@YAXPAEHHHHAAI1@Z 004822f0 f   etcpack.obj
 0001:00082350       ?compressBlockOnlyDiffFlipAverage@@YAHPAEHHHHAAI1PAH2AAH@Z 00483350 f   etcpack.obj
 0001:00083220       ?compressBlockOnlyDiffFlipAveragePerceptual1000@@YAIPAEHHHHAAI1@Z 00484220 f   etcpack.obj
 0001:00083d60       ?compressBlockDiffFlipAveragePerceptual@@YANPAEHHHHAAI1@Z 00484d60 f   etcpack.obj
 0001:00084df0       ?multiplyMatrices@@YAPAUdMatrix@@PAU1@0@Z 00485df0 f   etcpack.obj
 0001:00084f40       ?transposeMatrix@@YAXPAUdMatrix@@@Z 00485f40 f   etcpack.obj
 0001:00085030       ?calcBBBred@@YAIPAEHH@Z    00486030 f   etcpack.obj
 0001:000850f0       ?calcCCCred@@YAIPAEHH@Z    004860f0 f   etcpack.obj
 0001:000851b0       ?calcLowestPossibleRedOHperceptual@@YAIPAEHHI@Z 004861b0 f   etcpack.obj
 0001:00085280       ?calcLowestPossibleRedOH@@YAIPAEHHI@Z 00486280 f   etcpack.obj
 0001:00085350       ?calcErrorPlanarOnlyRedPerceptual@@YAIPAEHHHIIII@Z 00486350 f   etcpack.obj
 0001:00085500       ?calcErrorPlanarOnlyRed@@YAIPAEHHHIIII@Z 00486500 f   etcpack.obj
 0001:000856b0       ?calcLowestPossibleGreenOHperceptual@@YAIPAEHHI@Z 004866b0 f   etcpack.obj
 0001:00085780       ?calcLowestPossibleGreenOH@@YAIPAEHHI@Z 00486780 f   etcpack.obj
 0001:00085850       ?calcBBBgreen@@YAIPAEHH@Z  00486850 f   etcpack.obj
 0001:00085910       ?calcCCCgreen@@YAIPAEHH@Z  00486910 f   etcpack.obj
 0001:000859d0       ?calcErrorPlanarOnlyGreenPerceptual@@YAIPAEHHHIIII@Z 004869d0 f   etcpack.obj
 0001:00085b80       ?calcErrorPlanarOnlyGreen@@YAIPAEHHHIIII@Z 00486b80 f   etcpack.obj
 0001:00085d30       ?calcBBBbluePerceptual@@YAIPAEHH@Z 00486d30 f   etcpack.obj
 0001:00085df0       ?calcBBBblue@@YAIPAEHH@Z   00486df0 f   etcpack.obj
 0001:00085eb0       ?calcCCCbluePerceptual@@YAIPAEHH@Z 00486eb0 f   etcpack.obj
 0001:00085f70       ?calcCCCblue@@YAIPAEHH@Z   00486f70 f   etcpack.obj
 0001:00086030       ?calcLowestPossibleBlueOHperceptual@@YAIPAEHHI@Z 00487030 f   etcpack.obj
 0001:00086100       ?calcLowestPossibleBlueOH@@YAIPAEHHI@Z 00487100 f   etcpack.obj
 0001:000861d0       ?calcErrorPlanarOnlyBluePerceptual@@YAIPAEHHHIIII@Z 004871d0 f   etcpack.obj
 0001:00086380       ?calcErrorPlanarOnlyBlue@@YAIPAEHHHIIII@Z 00487380 f   etcpack.obj
 0001:00086530       ?compressBlockPlanar57@@YAXPAEHHHHAAI1@Z 00487530 f   etcpack.obj
 0001:00087450       ?stuff57bits@@YAXIIAAI0@Z  00488450 f   etcpack.obj
 0001:000877d0       ?stuff58bits@@YAXIIAAI0@Z  004887d0 f   etcpack.obj
 0001:000879a0       ?stuff58bitsDiffFalse@@YAXIIAAI0@Z 004889a0 f   etcpack.obj
 0001:00087b70       ?stuff59bits@@YAXIIAAI0@Z  00488b70 f   etcpack.obj
 0001:00087cb0       ?decompressBlockPlanar57errorPerComponent@@YAXIIPAEHHHH0AAI11@Z 00488cb0 f   etcpack.obj
 0001:00088b60       ?etcpack_compressBlockDiffFlipCombined@@YAXPAEHHHHAAI1@Z 00489b60 f   etcpack.obj
 0001:00089660       ?computeColorLBGHalfIntensityFast@@YAXPAEHHHQAY02E@Z 0048a660 f   etcpack.obj
 0001:0008a750       ?computeColorLBGNotIntensityFast@@YAXPAEHHHQAY02E@Z 0048b750 f   etcpack.obj
 0001:0008b840       ?computeColorLBGNotIntensity@@YAXPAEHHHQAY02E@Z 0048c840 f   etcpack.obj
 0001:0008c930       ?computeColorLBG@@YAXPAEHHHQAY02E@Z 0048d930 f   etcpack.obj
 0001:0008d760       ?computeColorLBGfast@@YAXPAEHHHQAY02E@Z 0048e760 f   etcpack.obj
 0001:0008e630       ?compressColor@@YAXHHHQAY02E0@Z 0048f630 f   etcpack.obj
 0001:0008eaf0       ?swapColors@@YAXQAY02E@Z   0048faf0 f   etcpack.obj
 0001:0008eb50       ?etcpack_calculateError59Tperceptual1000@@YAIPAEHHHQAY02EAAEAAI@Z 0048fb50 f   etcpack.obj
 0001:0008ee80       ?calculateError59T@@YANPAEHHHQAY02EAAEAAI@Z 0048fe80 f   etcpack.obj
 0001:0008f1d0       ?calculateError59TnoSwapPerceptual1000@@YAIPAEHHHQAY02EAAEAAI@Z 004901d0 f   etcpack.obj
 0001:0008f4b0       ?calculateError59TnoSwap@@YANPAEHHHQAY02EAAEAAI@Z 004904b0 f   etcpack.obj
 0001:0008f7b0       ?packBlock59T@@YAXQAY02EEIAAI1@Z 004907b0 f   etcpack.obj
 0001:0008f8d0       ?copyColors@@YAXQAY02E0@Z  004908d0 f   etcpack.obj
 0001:0008f930       ?compressBlockTHUMB59TFastestOnlyColorPerceptual1000@@YAIPAEHHHHQAH@Z 00490930 f   etcpack.obj
 0001:0008fa00       ?compressBlockTHUMB59TFastestOnlyColor@@YANPAEHHHHQAH@Z 00490a00 f   etcpack.obj
 0001:0008fad0       ?compressBlockTHUMB59TFastestPerceptual1000@@YANPAEHHHHAAI1@Z 00490ad0 f   etcpack.obj
 0001:0008fba0       ?compressBlockTHUMB59TFastest@@YANPAEHHHHAAI1@Z 00490ba0 f   etcpack.obj
 0001:0008fc70       ?compressBlockTHUMB59TFast@@YANPAEHHHHAAI1@Z 00490c70 f   etcpack.obj
 0001:0008fe50       ?calculateErrorAndCompress58Hperceptual1000@@YAIPAEHHHQAY02EAAEAAI@Z 00490e50 f   etcpack.obj
 0001:00090110       ?calculateErrorAndCompress58HAlpha@@YANPAE0HHHQAY02EAAEAAI@Z 00491110 f   etcpack.obj
 0001:00090520       ?calculateErrorAndCompress58H@@YANPAEHHHQAY02EAAEAAI@Z 00491520 f   etcpack.obj
 0001:00090800       ?sortColorsRGB444@@YAXQAY02E@Z 00491800 f   etcpack.obj
 0001:000908e0       ?compressBlockTHUMB58HFastestPerceptual1000@@YAIPAEHHHHAAI1@Z 004918e0 f   etcpack.obj
 0001:00090b00       ?compressBlockTHUMB58HFastest@@YANPAEHHHHAAI1@Z 00491b00 f   etcpack.obj
 0001:00090d30       ?compressBlockTHUMB58HAlpha@@YANPAE0HHHHAAI1@Z 00491d30 f   etcpack.obj
 0001:00090f60       ?compressBlockTHUMB58HFast@@YANPAEHHHHAAI1@Z 00491f60 f   etcpack.obj
 0001:000912b0       ?etcpack_compressBlockDiffFlipCombinedPerceptual@@YAXPAEHHHHAAI1@Z 004922b0 f   etcpack.obj
 0001:00091da0       ?etcpack_calcBlockErrorRGB@@YANPAE0HHHH@Z 00492da0 f   etcpack.obj
 0001:00091f90       ?etcpack_calcBlockPerceptualErrorRGB@@YANPAE0HHHH@Z 00492f90 f   etcpack.obj
 0001:000921a0       ?compressBlockDiffFlipFast@@YANPAE0HHHHAAI1@Z 004931a0 f   etcpack.obj
 0001:000922c0       ?etcpack_compressBlockDiffFlipFastPerceptual@@YAXPAE0HHHHAAI1@Z 004932c0 f   etcpack.obj
 0001:000923e0       ?compressBlockDifferentialWithAlpha@@YAH_NPAE11HHHHAAI2@Z 004933e0 f   etcpack.obj
 0001:00092e60       ?calcBlockErrorRGBA@@YANPAE00HHHH@Z 00493e60 f   etcpack.obj
 0001:00093070       ?calculateError59TAlpha@@YANPAE0HHHQAY02EAAEAAI@Z 00494070 f   etcpack.obj
 0001:00093400       ?compressBlockTHUMB59TAlpha@@YANPAE0HHHHAAI1@Z 00494400 f   etcpack.obj
 0001:000934d0       ?stuff59bitsDiffFalse@@YAXIIAAI0@Z 004944d0 f   etcpack.obj
 0001:00093610       ?hasAlpha@@YA_NPAEHHH@Z    00494610 f   etcpack.obj
 0001:00093680       ?compressBlockETC2Fast@@YAXPAE00HHHHAAI1@Z 00494680 f   etcpack.obj
 0001:00093e30       ?compressBlockETC2FastPerceptual@@YAXPAE0HHHHAAI1@Z 00494e30 f   etcpack.obj
 0001:00094260       ?etcpack_write_big_endian_2byte_word@@YAXPAGPAU_iobuf@@@Z 00495260 f   etcpack.obj
 0001:000942c0       ?etcpack_write_big_endian_4byte_word@@YAXPAIPAU_iobuf@@@Z 004952c0 f   etcpack.obj
 0001:00094360       ?setupAlphaTableAndValtab@@YAXXZ 00495360 f   etcpack.obj
 0001:00094430       ?readAlpha@@YAXAAPAEAAH111@Z 00495430 f   etcpack.obj
 0001:000946d0       ?compressBlockAlphaFast@@YAXPAEHHHH0@Z 004956d0 f   etcpack.obj
 0001:00094c90       ?getPremulIndex@@YAHHHHH@Z 00495c90 f   etcpack.obj
 0001:00094cb0       ?calcError@@YANPAEHHHHHHHN@Z 00495cb0 f   etcpack.obj
 0001:00094df0       ?compressBlockAlpha16@@YAXPAEHHHH0@Z 00495df0 f   etcpack.obj
 0001:000950a0       ?compressBlockAlphaSlow@@YAXPAEHHHH0@Z 004960a0 f   etcpack.obj
 0001:00095520       ?calculateWeightedPSNR@@YANPAE0HHNNN@Z 00496520 f   etcpack.obj
 0001:000956e0       ?calculatePSNR@@YANPAE0HH@Z 004966e0 f   etcpack.obj
 0001:00095730       ?uncompressFile@@YAXPADAAPAE1AAH2@Z 00496730 f   etcpack.obj
 0001:00096540       ?writeOutputFile@@YAXPADPAE1HH@Z 00497540 f   etcpack.obj
 0001:000967a0       ?calculatePSNRfile@@YANPADPAE1@Z 004977a0 f   etcpack.obj
 0001:00096f90       ?compressBlockIndividualExhaustivePerceptual@@YAIPAEHHHHAAI1I@Z 00497f90 f   etcpack.obj
 0001:00097d50       ?precompute_3bittable_all_subblocksRG_withtest_perceptual1000@@YAIPAE0PAI1111111I@Z 00498d50 f i etcpack.obj
 0001:00098360       ?precompute_3bittable_all_subblocksR_with_test_perceptual1000@@YAIPAE0PAI111I@Z 00499360 f i etcpack.obj
 0001:00098900       ?tryalltables_3bittable_all_subblocks_using_precalc_perceptual1000@@YAXPAE0PAI111AAI222I@Z 00499900 f i etcpack.obj
 0001:0009f350       ?compressBlockIndividualExhaustive@@YAIPAEHHHHAAI1I@Z 004a0350 f   etcpack.obj
 0001:000a0110       ?precompute_3bittable_all_subblocksRG_withtest@@YAHPAE0PAI1111111I@Z 004a1110 f i etcpack.obj
 0001:000a0700       ?precompute_3bittable_all_subblocksR_with_test@@YAHPAE0PAI111I@Z 004a1700 f i etcpack.obj
 0001:000a0c80       ?tryalltables_3bittable_all_subblocks_using_precalc@@YAXPAE0PAI111AAI222I@Z 004a1c80 f i etcpack.obj
 0001:000a70d0       ?compressBlockDifferentialExhaustivePerceptual@@YAIPAEHHHHAAI1I@Z 004a80d0 f   etcpack.obj
 0001:000a8a40       ?compressBlockDifferentialExhaustive@@YAIPAEHHHHAAI1I@Z 004a9a40 f   etcpack.obj
 0001:000aa310       ?compressBlockPlanar57ExhaustivePerceptual@@YAXPAEHHHHAAI1IIII@Z 004ab310 f   etcpack.obj
 0001:000aacf0       ?compressBlockPlanar57Exhaustive@@YAXPAEHHHHAAI1IIII@Z 004abcf0 f   etcpack.obj
 0001:000ab640       ?precalcError59T_col0_Rpercep1000@@YAXPAEHPAI@Z 004ac640 f   etcpack.obj
 0001:000ab850       ?precalcError59T_col0_R@@YAXPAEHPAI@Z 004ac850 f   etcpack.obj
 0001:000aba60       ?precalcError59T_col0_RGpercep1000@@YAXPAEHPAI@Z 004aca60 f   etcpack.obj
 0001:000abdf0       ?precalcError59T_col0_RG@@YAXPAEHPAI@Z 004acdf0 f   etcpack.obj
 0001:000ac170       ?precalcError59T_col1_Rpercep1000@@YAXPAEHPAI@Z 004ad170 f   etcpack.obj
 0001:000ac1e0       ?precalcError59T_col1_R@@YAXPAEHPAI@Z 004ad1e0 f   etcpack.obj
 0001:000ac250       ?precalcError59T_col1_RGpercep1000@@YAXPAEHPAI@Z 004ad250 f   etcpack.obj
 0001:000ac2f0       ?precalcError59T_col1_RG@@YAXPAEHPAI@Z 004ad2f0 f   etcpack.obj
 0001:000ac390       ?precalcError59T_col0_RGBpercep1000@@YAXPAEHPAI@Z 004ad390 f   etcpack.obj
 0001:000b4b10       ?precalcError59T_col0_RGB@@YAXPAEHPAI@Z 004b5b10 f   etcpack.obj
 0001:000bb610       ?precalcError59T_col1_RGBpercep1000@@YAXPAEHPAI@Z 004bc610 f   etcpack.obj
 0001:000bb6e0       ?precalcError59T_col1_RGB@@YAXPAEHPAI@Z 004bc6e0 f   etcpack.obj
 0001:000bb7a0       ?calculateError59TusingPrecalcRperceptual1000@@YAIPAEPAHPAI2I@Z 004bc7a0 f   etcpack.obj
 0001:000bcf40       ?calculateError59TusingPrecalcR@@YAIPAEPAHPAI2I@Z 004bdf40 f   etcpack.obj
 0001:000be6e0       ?calculateError59TusingPrecalcRGperceptual1000@@YAIPAEPAHPAI2I@Z 004bf6e0 f   etcpack.obj
 0001:000bfe80       ?calculateError59TusingPrecalcRG@@YAIPAEPAHPAI2I@Z 004c0e80 f   etcpack.obj
 0001:000c1620       ?calculateError59TusingPrecalcRGBperceptual1000@@YAIPAEPAHPAI2I@Z 004c2620 f   etcpack.obj
 0001:000c2dc0       ?calculateError59TusingPrecalcRGB@@YAIPAEPAHPAI2I@Z 004c3dc0 f   etcpack.obj
 0001:000c4560       ?compressBlockTHUMB59TExhaustivePerceptual@@YAIPAEHHHHAAI1I@Z 004c5560 f   etcpack.obj
 0001:000c4b80       ?compressBlockTHUMB59TExhaustive@@YAIPAEHHHHAAI1I@Z 004c5b80 f   etcpack.obj
 0001:000c51d0       ?precalcErrorR_58Hperceptual1000@@YAXPAEHHHQAY02EHPAI@Z 004c61d0 f   etcpack.obj
 0001:000c5410       ?precalcErrorR_58H@@YAXPAEHHHQAY02EHPAI@Z 004c6410 f   etcpack.obj
 0001:000c5690       ?precalcErrorRG_58Hperceptual1000@@YAXPAEHHHQAY02EHPAI@Z 004c6690 f   etcpack.obj
 0001:000c5a10       ?precalcErrorRG_58H@@YAXPAEHHHQAY02EHPAI@Z 004c6a10 f   etcpack.obj
 0001:000c5df0       ?precalcError58Hperceptual1000@@YAXPAEQAY02EHPAI@Z 004c6df0 f   etcpack.obj
 0001:000cbee0       ?precalcError58H@@YAXPAEQAY02EHPAI@Z 004ccee0 f   etcpack.obj
 0001:000d0cd0       ?calculateErrorFromPrecalcR58Hperceptual1000@@YAIPAHPAII@Z 004d1cd0 f   etcpack.obj
 0001:000d10a0       ?calculateErrorFromPrecalcR58H@@YAIPAHPAII@Z 004d20a0 f   etcpack.obj
 0001:000d1470       ?calculateErrorFromPrecalcRG58Hperceptual1000@@YAIPAHPAII@Z 004d2470 f   etcpack.obj
 0001:000d1840       ?calculateErrorFromPrecalcRG58H@@YAIPAHPAII@Z 004d2840 f   etcpack.obj
 0001:000d1c10       ?calculateErrorFromPrecalc58Hperceptual1000@@YAIPAHPAII@Z 004d2c10 f   etcpack.obj
 0001:000d3400       ?calculateErrorFromPrecalc58H@@YAIPAHPAII@Z 004d4400 f   etcpack.obj
 0001:000d4bf0       ?compressBlockTHUMB58HExhaustivePerceptual@@YAIPAEHHHHAAI1I@Z 004d5bf0 f   etcpack.obj
 0001:000d52d0       ?compressBlockTHUMB58HExhaustive@@YAIPAEHHHHAAI1I@Z 004d62d0 f   etcpack.obj
 0001:000d5a10       ?compressBlockETC1Exhaustive@@YAXPAE0HHHHAAI1@Z 004d6a10 f   etcpack.obj
 0001:000d5b60       ?compressBlockETC1ExhaustivePerceptual@@YAXPAE0HHHHAAI1@Z 004d6b60 f   etcpack.obj
 0001:000d5d00       ?compressBlockETC2ExhaustivePerceptual@@YAXPAE0HHHHAAI1@Z 004d6d00 f   etcpack.obj
 0001:000d62f0       ?compressBlockETC2Exhaustive@@YAXPAE0HHHHAAI1@Z 004d72f0 f   etcpack.obj
 0001:000d68a0       ?compressImageFile@@YAXPAE0HHPADHH@Z 004d78a0 f   etcpack.obj
 0001:000d7370       ?compressFile@@YAXPAD0@Z   004d8370 f   etcpack.obj
 0001:000d7700       ?calculatePSNRTwoFiles@@YANPAD0@Z 004d8700 f   etcpack.obj
 0001:000d7820       ?main_etcpack@@YAHHQAPAD@Z 004d8820 f   etcpack.obj
 0001:000d7b10       ?removeComments@@YAXPAU_iobuf@@@Z 004d8b10 f   etcpack_image.obj
 0001:000d7b70       ?removeSpaces@@YAXPAU_iobuf@@@Z 004d8b70 f   etcpack_image.obj
 0001:000d7bd0       ?fReadPPM@@YA_NPADAAH1AAPAEH@Z 004d8bd0 f   etcpack_image.obj
 0001:000d8120       ?fWritePPM@@YA_NPADHHPAEH_N@Z 004d9120 f   etcpack_image.obj
 0001:000d8220       ?fWritePGM@@YA_NPADHHPAE_NH@Z 004d9220 f   etcpack_image.obj
 0001:000d8310       ?fReadPGM@@YAHPADAAH1AAPAEH@Z 004d9310 f   etcpack_image.obj
 0001:000d8770       ?clamp@color_quad_u8@rg_etc1@@SAHH@Z 004d9770 f i rg_etc1.obj
 0001:000d8790       ??0color_quad_u8@rg_etc1@@QAE@XZ 004d9790 f i rg_etc1.obj
 0001:000d87a0       ??0color_quad_u8@rg_etc1@@QAE@ABU01@@Z 004d97a0 f i rg_etc1.obj
 0001:000d87b0       ?clear@color_quad_u8@rg_etc1@@QAEXXZ 004d97b0 f i rg_etc1.obj
 0001:000d87c0       ??4color_quad_u8@rg_etc1@@QAEAAU01@ABU01@@Z 004d97c0 f i rg_etc1.obj
 0001:000d87d0       ?set_rgb@color_quad_u8@rg_etc1@@QAEAAU12@ABU12@@Z 004d97d0 f i rg_etc1.obj
 0001:000d87f0       ?set@color_quad_u8@rg_etc1@@QAEAAU12@HHHH@Z 004d97f0 f i rg_etc1.obj
 0001:000d8860       ?set_noclamp_rgba@color_quad_u8@rg_etc1@@QAEAAU12@HHHH@Z 004d9860 f i rg_etc1.obj
 0001:000d8920       ??Acolor_quad_u8@rg_etc1@@QAEAAEI@Z 004d9920 f i rg_etc1.obj
 0001:000d8950       ??0vec3F@rg_etc1@@QAE@XZ   004d9950 f i rg_etc1.obj
 0001:000d8960       ??0vec3F@rg_etc1@@QAE@M@Z  004d9960 f i rg_etc1.obj
 0001:000d8980       ??0vec3F@rg_etc1@@QAE@MMM@Z 004d9980 f i rg_etc1.obj
 0001:000d89a0       ??Avec3F@rg_etc1@@QBEMI@Z  004d99a0 f i rg_etc1.obj
 0001:000d89d0       ??Yvec3F@rg_etc1@@QAEAAU01@ABU01@@Z 004d99d0 f i rg_etc1.obj
 0001:000d8a00       ??Xvec3F@rg_etc1@@QAEAAU01@M@Z 004d9a00 f i rg_etc1.obj
 0001:000d8a30       ?get_byte_bits@etc1_block@rg_etc1@@QBEIII@Z 004d9a30 f i rg_etc1.obj
 0001:000d8ad0       ?get_flip_bit@etc1_block@rg_etc1@@QBE_NXZ 004d9ad0 f i rg_etc1.obj
 0001:000d8ae0       ?get_diff_bit@etc1_block@rg_etc1@@QBE_NXZ 004d9ae0 f i rg_etc1.obj
 0001:000d8af0       ?get_inten_table@etc1_block@rg_etc1@@QBEII@Z 004d9af0 f i rg_etc1.obj
 0001:000d8b30       ?get_selector@etc1_block@rg_etc1@@QBEIII@Z 004d9b30 f i rg_etc1.obj
 0001:000d8ba0       ?get_base4_color@etc1_block@rg_etc1@@QBEGI@Z 004d9ba0 f i rg_etc1.obj
 0001:000d8be0       ?get_base5_color@etc1_block@rg_etc1@@QBEGXZ 004d9be0 f i rg_etc1.obj
 0001:000d8c10       ?get_delta3_color@etc1_block@rg_etc1@@QBEGXZ 004d9c10 f i rg_etc1.obj
 0001:000d8c40       ?pack_delta3@etc1_block@rg_etc1@@SAGHHH@Z 004d9c40 f   rg_etc1.obj
 0001:000d8ce0       ?unpack_delta3@etc1_block@rg_etc1@@SAXAAH00G@Z 004d9ce0 f   rg_etc1.obj
 0001:000d8d40       ??4etc1_solution_coordinates@rg_etc1@@QAEAAU01@ABU01@@Z 004d9d40 f i rg_etc1.obj
 0001:000d8d60       ?clear@etc1_solution_coordinates@rg_etc1@@QAEXXZ 004d9d60 f i rg_etc1.obj
 0001:000d8d70       ?get_block_colors@etc1_solution_coordinates@rg_etc1@@QAEXPAUcolor_quad_u8@2@@Z 004d9d70 f i rg_etc1.obj
 0001:000d8f50       ?clear@etc1_optimizer@rg_etc1@@QAEXXZ 004d9f50 f i rg_etc1.obj
 0001:000d8f60       ?clear_optimizer_params@params@etc1_optimizer@rg_etc1@@QAEXXZ 004d9f60 f i rg_etc1.obj
 0001:000d8f80       ??4results@etc1_optimizer@rg_etc1@@QAEAAU012@ABU012@@Z 004d9f80 f i rg_etc1.obj
 0001:000d8fe0       ??4potential_solution@etc1_optimizer@rg_etc1@@QAEAAU012@ABU012@@Z 004d9fe0 f i rg_etc1.obj
 0001:000d9430       ??0results@etc1_optimizer@rg_etc1@@QAE@XZ 004da430 f i rg_etc1.obj
 0001:000d9440       ??$clamp@H@rg_etc1@@YAHHHH@Z 004da440 f i rg_etc1.obj
 0001:000d9460       ??$square@H@rg_etc1@@YAHH@Z 004da460 f i rg_etc1.obj
 0001:000d9470       ??$minimum@I@rg_etc1@@YAIII@Z 004da470 f i rg_etc1.obj
 0001:000d9480       ??$indirect_radix_sort@IG@rg_etc1@@YAPAIIPAI0PBGII_N@Z 004da480 f i rg_etc1.obj
 0001:000d9930       ??$minimum@H@rg_etc1@@YAHHH@Z 004da930 f i rg_etc1.obj
 0001:000d9940       ??$maximum@H@rg_etc1@@YAHHH@Z 004da940 f i rg_etc1.obj
 0001:000d9950       ??0color_quad_u8@rg_etc1@@QAE@HHHH@Z 004da950 f i rg_etc1.obj
 0001:000d9980       ??0color_quad_u8@rg_etc1@@QAE@W4eNoClamp@1@HHHH@Z 004da980 f i rg_etc1.obj
 0001:000d99b0       ?squared_distance_rgb@color_quad_u8@rg_etc1@@QBEIABU12@@Z 004da9b0 f i rg_etc1.obj
 0001:000d99f0       ?pack_color5@etc1_block@rg_etc1@@SAGIII_NI@Z 004da9f0 f   rg_etc1.obj
 0001:000d9a90       ?unpack_color5@etc1_block@rg_etc1@@SA?AUcolor_quad_u8@2@G_NI@Z 004daa90 f   rg_etc1.obj
 0001:000d9b00       ?unpack_color5@etc1_block@rg_etc1@@SAXAAI00G_N@Z 004dab00 f   rg_etc1.obj
 0001:000d9b80       ?unpack_color5@etc1_block@rg_etc1@@SA_NAAUcolor_quad_u8@2@GG_NI@Z 004dab80 f   rg_etc1.obj
 0001:000d9c70       ?unpack_color5@etc1_block@rg_etc1@@SA_NAAI00GG_NI@Z 004dac70 f   rg_etc1.obj
 0001:000d9cc0       ?pack_color4@etc1_block@rg_etc1@@SAGIII_NI@Z 004dacc0 f   rg_etc1.obj
 0001:000d9d60       ?unpack_color4@etc1_block@rg_etc1@@SA?AUcolor_quad_u8@2@G_NI@Z 004dad60 f   rg_etc1.obj
 0001:000d9dc0       ?unpack_color4@etc1_block@rg_etc1@@SAXAAI00G_N@Z 004dadc0 f   rg_etc1.obj
 0001:000d9e30       ?get_diff_subblock_colors@etc1_block@rg_etc1@@SAXPAUcolor_quad_u8@2@GI@Z 004dae30 f   rg_etc1.obj
 0001:000da010       ?get_diff_subblock_colors@etc1_block@rg_etc1@@SA_NPAUcolor_quad_u8@2@GGI@Z 004db010 f   rg_etc1.obj
 0001:000da1d0       ?get_abs_subblock_colors@etc1_block@rg_etc1@@SAXPAUcolor_quad_u8@2@GI@Z 004db1d0 f   rg_etc1.obj
 0001:000da3a0       ?unpack_etc1_block@rg_etc1@@YA_NPBXPAI_N@Z 004db3a0 f   rg_etc1.obj
 0001:000daab0       ??0etc1_solution_coordinates@rg_etc1@@QAE@XZ 004dbab0 f i rg_etc1.obj
 0001:000daad0       ??0etc1_solution_coordinates@rg_etc1@@QAE@IIII_N@Z 004dbad0 f i rg_etc1.obj
 0001:000dab40       ?get_scaled_color@etc1_solution_coordinates@rg_etc1@@QBE?AUcolor_quad_u8@2@XZ 004dbb40 f i rg_etc1.obj
 0001:000dabe0       ??0params@etc1_optimizer@rg_etc1@@QAE@ABUetc1_pack_params@2@@Z 004dbbe0 f i rg_etc1.obj
 0001:000dac20       ??0potential_solution@etc1_optimizer@rg_etc1@@QAE@XZ 004dbc20 f i rg_etc1.obj
 0001:000dac50       ?init@etc1_optimizer@rg_etc1@@QAEXABUparams@12@AAUresults@12@@Z 004dbc50 f   rg_etc1.obj
 0001:000dafc0       ?pack_etc1_block_init@rg_etc1@@YAXXZ 004dbfc0 f   rg_etc1.obj
 0001:000db930       ??$minimum@H@rg_etc1@@YAHHHH@Z 004dc930 f i rg_etc1.obj
 0001:000db950       ??$maximum@H@rg_etc1@@YAHHHH@Z 004dc950 f i rg_etc1.obj
 0001:000db970       ?pack_color5@etc1_block@rg_etc1@@SAGABUcolor_quad_u8@2@_NI@Z 004dc970 f   rg_etc1.obj
 0001:000db9a0       ?pack_color4@etc1_block@rg_etc1@@SAGABUcolor_quad_u8@2@_NI@Z 004dc9a0 f   rg_etc1.obj
 0001:000db9d0       ??0etc1_optimizer@rg_etc1@@QAE@XZ 004dc9d0 f i rg_etc1.obj
 0001:000dba50       ?evaluate_solution@etc1_optimizer@rg_etc1@@AAE_NABUetc1_solution_coordinates@2@AAUpotential_solution@12@PAU412@@Z 004dca50 f   rg_etc1.obj
 0001:000dbe90       ?evaluate_solution_fast@etc1_optimizer@rg_etc1@@AAE_NABUetc1_solution_coordinates@2@AAUpotential_solution@12@PAU412@@Z 004dce90 f   rg_etc1.obj
 0001:000dc910       ?compute@etc1_optimizer@rg_etc1@@QAE_NXZ 004dd910 f   rg_etc1.obj
 0001:000dcff0       ?pack_etc1_block@rg_etc1@@YAIPAXPBIAAUetc1_pack_params@1@@Z 004ddff0 f   rg_etc1.obj
 0001:000dda50       ?clear@etc1_pack_params@rg_etc1@@QAEXXZ 004dea50 f i tool_rgetc1.obj
 0001:000dda60       ?RgEtc1_Init@@YAXXZ        004dea60 f   tool_rgetc1.obj
 0001:000dda90       ?RgEtc1_Option@@YAXPBD000H@Z 004dea90 f   tool_rgetc1.obj
 0001:000ddbf0       ?RgEtc1_Load@@YAXXZ        004debf0 f   tool_rgetc1.obj
 0001:000ddc40       ?RgEtc1_Version@@YAPBDXZ   004dec40 f   tool_rgetc1.obj
 0001:000ddc50       ?RgETC1_ExtractBlock@@YAXPBEHHHHPAE@Z 004dec50 f   tool_rgetc1.obj
 0001:000ddd80       ?RgEtc1_CompressSingleImage@@YAIPAEPAUTexEncodeTask_s@@HH0AAUetc1_pack_params@rg_etc1@@@Z 004ded80 f   tool_rgetc1.obj
 0001:000dde30       ??0etc1_pack_params@rg_etc1@@QAE@XZ 004dee30 f i tool_rgetc1.obj
 0001:000dde40       ?RgEtc1_Compress@@YA_NPAUTexEncodeTask_s@@@Z 004dee40 f   tool_rgetc1.obj
 0001:000dded0       _GetLastError@0            004deed0 f   kernel32:KERNEL32.dll
 0001:000dded6       _GetTempPathA@8            004deed6 f   kernel32:KERNEL32.dll
 0001:000ddedc       _GetFileSize@8             004deedc f   kernel32:KERNEL32.dll
 0001:000ddee2       _CloseHandle@4             004deee2 f   kernel32:KERNEL32.dll
 0001:000ddee8       _ReadFile@20               004deee8 f   kernel32:KERNEL32.dll
 0001:000ddeee       _CreateFileA@28            004deeee f   kernel32:KERNEL32.dll
 0001:000ddef4       _UnmapViewOfFile@4         004deef4 f   kernel32:KERNEL32.dll
 0001:000ddefa       _MapViewOfFile@20          004deefa f   kernel32:KERNEL32.dll
 0001:000ddf00       _CreateFileMappingA@24     004def00 f   kernel32:KERNEL32.dll
 0001:000ddf06       _FreeLibrary@4             004def06 f   kernel32:KERNEL32.dll
 0001:000ddf0c       _GetProcAddress@8          004def0c f   kernel32:KERNEL32.dll
 0001:000ddf12       _LoadLibraryA@4            004def12 f   kernel32:KERNEL32.dll
 0001:000ddf18       _FindClose@4               004def18 f   kernel32:KERNEL32.dll
 0001:000ddf1e       _FindFirstFileA@8          004def1e f   kernel32:KERNEL32.dll
 0001:000ddf24       _FindNextFileA@8           004def24 f   kernel32:KERNEL32.dll
 0001:000ddf2a       _ReleaseMutex@4            004def2a f   kernel32:KERNEL32.dll
 0001:000ddf30       _WaitForSingleObject@8     004def30 f   kernel32:KERNEL32.dll
 0001:000ddf36       _CreateMutexA@12           004def36 f   kernel32:KERNEL32.dll
 0001:000ddf3c       _Sleep@4                   004def3c f   kernel32:KERNEL32.dll
 0001:000ddf42       _GetSystemInfo@4           004def42 f   kernel32:KERNEL32.dll
 0001:000ddf48       _CreateThread@24           004def48 f   kernel32:KERNEL32.dll
 0001:000ddf4e       _SetFilePointer@16         004def4e f   kernel32:KERNEL32.dll
 0001:000ddf54       _SystemTimeToFileTime@8    004def54 f   kernel32:KERNEL32.dll
 0001:000ddf5a       _LocalFileTimeToFileTime@8 004def5a f   kernel32:KERNEL32.dll
 0001:000ddf60       _CreateDirectoryA@8        004def60 f   kernel32:KERNEL32.dll
 0001:000ddf66       _GetFileAttributesA@4      004def66 f   kernel32:KERNEL32.dll
 0001:000ddf6c       _GetCurrentDirectoryA@8    004def6c f   kernel32:KERNEL32.dll
 0001:000ddf72       _SetFileTime@16            004def72 f   kernel32:KERNEL32.dll
 0001:000ddf78       _WriteFile@20              004def78 f   kernel32:KERNEL32.dll
 0001:000ddf7e       _FileTimeToSystemTime@8    004def7e f   kernel32:KERNEL32.dll
 0001:000ddf84       _GetFileInformationByHandle@8 004def84 f   kernel32:KERNEL32.dll
 0001:000ddf8a       _GetLocalTime@4            004def8a f   kernel32:KERNEL32.dll
 0001:000ddf90       _GetTickCount@0            004def90 f   kernel32:KERNEL32.dll
 0001:000ddf96       _GetSystemTimeAsFileTime@4 004def96 f   kernel32:KERNEL32.dll
 0001:000ddf9c       _DeleteFileA@4             004def9c f   kernel32:KERNEL32.dll
 0001:000ddfa2       _wsprintfA                 004defa2 f   user32:USER32.dll
 0001:000ddfa8       _GetDesktopWindow@0        004defa8 f   user32:USER32.dll
 0001:000ddfae       ??0invalid_argument@std@@QAE@ABV?$basic_string@DU?$char_traits@D@std@@V?$allocator@D@2@@1@@Z 004defae f i libcpmt:string.obj
 0001:000ddfcb       ??1invalid_argument@std@@UAE@XZ 004defcb f i libcpmt:string.obj
 0001:000ddfd6       ??_Einvalid_argument@std@@UAEPAXI@Z 004defd6 f i libcpmt:string.obj
 0001:000ddfd6       ??_Ginvalid_argument@std@@UAEPAXI@Z 004defd6 f i libcpmt:string.obj
 0001:000ddffd       ??0out_of_range@std@@QAE@ABV?$basic_string@DU?$char_traits@D@std@@V?$allocator@D@2@@1@@Z 004deffd f i libcpmt:string.obj
 0001:000de01a       ??1out_of_range@std@@UAE@XZ 004df01a f i libcpmt:string.obj
 0001:000de025       ??_Eout_of_range@std@@UAEPAXI@Z 004df025 f i libcpmt:string.obj
 0001:000de025       ??_Gout_of_range@std@@UAEPAXI@Z 004df025 f i libcpmt:string.obj
 0001:000de04c       ?_Xlen@_String_base@std@@SAXXZ 004df04c f   libcpmt:string.obj
 0001:000de084       ?_Xran@_String_base@std@@SAXXZ 004df084 f   libcpmt:string.obj
 0001:000de0bc       ?_Xinvarg@_String_base@std@@SAXXZ 004df0bc f   libcpmt:string.obj
 0001:000de0f4       ??0invalid_argument@std@@QAE@ABV01@@Z 004df0f4 f i libcpmt:string.obj
 0001:000de111       ??0out_of_range@std@@QAE@ABV01@@Z 004df111 f i libcpmt:string.obj
 0001:000de208       __stat64i32                004df208 f   LIBCMT:stati32.obj
 0001:000de5e0       _strstr                    004df5e0 f   LIBCMT:strstr.obj
 0001:000de666       ??0exception@std@@QAE@XZ   004df666 f   LIBCMT:stdexcpt.obj
 0001:000de677       ??0exception@std@@QAE@ABQBD@Z 004df677 f   LIBCMT:stdexcpt.obj
 0001:000de6ca       ??0exception@std@@QAE@ABQBDH@Z 004df6ca f   LIBCMT:stdexcpt.obj
 0001:000de6e7       ??0exception@std@@QAE@ABV01@@Z 004df6e7 f   LIBCMT:stdexcpt.obj
 0001:000de744       ??4exception@std@@QAEAAV01@ABV01@@Z 004df744 f   LIBCMT:stdexcpt.obj
 0001:000de79f       ??1exception@std@@UAE@XZ   004df79f f   LIBCMT:stdexcpt.obj
 0001:000de7b5       ?what@exception@std@@UBEPBDXZ 004df7b5 f   LIBCMT:stdexcpt.obj
 0001:000de7c2       ??0bad_cast@std@@QAE@PBD@Z 004df7c2 f   LIBCMT:stdexcpt.obj
 0001:000de7e0       ??0bad_cast@std@@QAE@ABV01@@Z 004df7e0 f   LIBCMT:stdexcpt.obj
 0001:000de7fd       ??1bad_cast@std@@UAE@XZ    004df7fd f   LIBCMT:stdexcpt.obj
 0001:000de808       ??0bad_typeid@std@@QAE@PBD@Z 004df808 f   LIBCMT:stdexcpt.obj
 0001:000de826       ??0bad_typeid@std@@QAE@ABV01@@Z 004df826 f   LIBCMT:stdexcpt.obj
 0001:000de843       ??1bad_typeid@std@@UAE@XZ  004df843 f   LIBCMT:stdexcpt.obj
 0001:000de84e       ??0__non_rtti_object@std@@QAE@PBD@Z 004df84e f   LIBCMT:stdexcpt.obj
 0001:000de86b       ??0__non_rtti_object@std@@QAE@ABV01@@Z 004df86b f   LIBCMT:stdexcpt.obj
 0001:000de888       ??1__non_rtti_object@std@@UAE@XZ 004df888 f   LIBCMT:stdexcpt.obj
 0001:000de893       ??_Gexception@std@@UAEPAXI@Z 004df893 f i LIBCMT:stdexcpt.obj
 0001:000de893       ??_Eexception@std@@UAEPAXI@Z 004df893 f i LIBCMT:stdexcpt.obj
 0001:000de8b4       ??_Ebad_cast@std@@UAEPAXI@Z 004df8b4 f i LIBCMT:stdexcpt.obj
 0001:000de8b4       ??_Gbad_cast@std@@UAEPAXI@Z 004df8b4 f i LIBCMT:stdexcpt.obj
 0001:000de8db       ??_Ebad_typeid@std@@UAEPAXI@Z 004df8db f i LIBCMT:stdexcpt.obj
 0001:000de8db       ??_Gbad_typeid@std@@UAEPAXI@Z 004df8db f i LIBCMT:stdexcpt.obj
 0001:000de902       ??_E__non_rtti_object@std@@UAEPAXI@Z 004df902 f i LIBCMT:stdexcpt.obj
 0001:000de902       ??_G__non_rtti_object@std@@UAEPAXI@Z 004df902 f i LIBCMT:stdexcpt.obj
 0001:000de929       ?name@type_info@@QBEPBDPAU__type_info_node@@@Z 004df929 f   LIBCMT:typinfo.obj
 0001:000de93d       ??1type_info@@UAE@XZ       004df93d f   LIBCMT:typinfo.obj
 0001:000de94d       ??_Gtype_info@@UAEPAXI@Z   004df94d f i LIBCMT:typinfo.obj
 0001:000de94d       ??_Etype_info@@UAEPAXI@Z   004df94d f i LIBCMT:typinfo.obj
 0001:000de96e       ?_name_internal_method@type_info@@QBEPBDPAU__type_info_node@@@Z 004df96e f   LIBCMT:typinfo.obj
 0001:000de982       ?_type_info_dtor_internal_method@type_info@@QAEXXZ 004df982 f   LIBCMT:typinfo.obj
 0001:000de98c       ??8type_info@@QBE_NABV0@@Z 004df98c f   LIBCMT:typinfo.obj
 0001:000de9ac       ??9type_info@@QBE_NABV0@@Z 004df9ac f   LIBCMT:typinfo.obj
 0001:000de9cd       ?before@type_info@@QBEHABV1@@Z 004df9cd f   LIBCMT:typinfo.obj
 0001:000de9f1       ?raw_name@type_info@@QBEPBDXZ 004df9f1 f   LIBCMT:typinfo.obj
 0001:000de9f5       ??0type_info@@AAE@ABV0@@Z  004df9f5 f   LIBCMT:typinfo.obj
 0001:000dea00       ??4type_info@@AAEAAV0@ABV0@@Z 004dfa00 f   LIBCMT:typinfo.obj
 0001:000dea05       ??3@YAXPAX@Z               004dfa05 f   LIBCMT:delete.obj
 0001:000dea10       _memcpy_s                  004dfa10 f   LIBCMT:memcpy_s.obj
 0001:000dea8d       _vprintf_helper            004dfa8d f   LIBCMT:vprintf.obj
 0001:000deb1d       __vprintf_l                004dfb1d f   LIBCMT:vprintf.obj
 0001:000deb3a       __vprintf_s_l              004dfb3a f   LIBCMT:vprintf.obj
 0001:000deb57       __vprintf_p_l              004dfb57 f   LIBCMT:vprintf.obj
 0001:000deb74       _vprintf                   004dfb74 f   LIBCMT:vprintf.obj
 0001:000deb90       _vprintf_s                 004dfb90 f   LIBCMT:vprintf.obj
 0001:000debac       __vprintf_p                004dfbac f   LIBCMT:vprintf.obj
 0001:000debc8       __flush                    004dfbc8 f   LIBCMT:fflush.obj
 0001:000dec30       __fflush_nolock            004dfc30 f   LIBCMT:fflush.obj
 0001:000ded52       _fflush                    004dfd52 f   LIBCMT:fflush.obj
 0001:000deda5       __flushall                 004dfda5 f   LIBCMT:fflush.obj
 0001:000dedae       ___iob_func                004dfdae f   LIBCMT:_file.obj
 0001:000dedb4       ___initstdio               004dfdb4 f   LIBCMT:_file.obj
 0001:000dee65       ___endstdio                004dfe65 f   LIBCMT:_file.obj
 0001:000dee85       __lock_file                004dfe85 f   LIBCMT:_file.obj
 0001:000deec6       __lock_file2               004dfec6 f   LIBCMT:_file.obj
 0001:000deef8       __unlock_file              004dfef8 f   LIBCMT:_file.obj
 0001:000def34       __unlock_file2             004dff34 f   LIBCMT:_file.obj
 0001:000def63       _printf                    004dff63 f   LIBCMT:printf.obj
 0001:000df012       __printf_l                 004e0012 f   LIBCMT:printf.obj
 0001:000df02b       __printf_s_l               004e002b f   LIBCMT:printf.obj
 0001:000df044       _printf_s                  004e0044 f   LIBCMT:printf.obj
 0001:000df05c       __printf_p_l               004e005c f   LIBCMT:printf.obj
 0001:000df075       __printf_p                 004e0075 f   LIBCMT:printf.obj
 0001:000df08d       __set_printf_count_output  004e008d f   LIBCMT:printf.obj
 0001:000df0b7       __get_printf_count_output  004e00b7 f   LIBCMT:printf.obj
 0001:000df0cd       __vsprintf_l               004e00cd f   LIBCMT:vsprintf.obj
 0001:000df14b       _vsprintf                  004e014b f   LIBCMT:vsprintf.obj
 0001:000df165       __vscprintf_helper         004e0165 f   LIBCMT:vsprintf.obj
 0001:000df1bc       __vscprintf                004e01bc f   LIBCMT:vsprintf.obj
 0001:000df1d8       __vscprintf_l              004e01d8 f   LIBCMT:vsprintf.obj
 0001:000df1f5       __vscprintf_p              004e01f5 f   LIBCMT:vsprintf.obj
 0001:000df211       __vscprintf_p_l            004e0211 f   LIBCMT:vsprintf.obj
 0001:000df22e       @__security_check_cookie@4 004e022e f   LIBCMT:secchk.obj
 0001:000df240       __chkstk                   004e0240 f   LIBCMT:chkstk.obj
 0001:000df240       __alloca_probe             004e0240     LIBCMT:chkstk.obj
 0001:000df26b       __crt_waiting_on_module_handle 004e026b f   LIBCMT:crt0dat.obj
 0001:000df29b       __amsg_exit                004e029b f   LIBCMT:crt0dat.obj
 0001:000df2c4       ___crtCorExitProcess       004e02c4 f   LIBCMT:crt0dat.obj
 0001:000df2ef       ___crtExitProcess          004e02ef f   LIBCMT:crt0dat.obj
 0001:000df307       __lockexit                 004e0307 f   LIBCMT:crt0dat.obj
 0001:000df310       __unlockexit               004e0310 f   LIBCMT:crt0dat.obj
 0001:000df336       __initterm_e               004e0336 f   LIBCMT:crt0dat.obj
 0001:000df35a       __get_wpgmptr              004e035a f   LIBCMT:crt0dat.obj
 0001:000df396       __get_pgmptr               004e0396 f   LIBCMT:crt0dat.obj
 0001:000df3d2       __cinit                    004e03d2 f   LIBCMT:crt0dat.obj
 0001:000df583       _exit                      004e0583 f   LIBCMT:crt0dat.obj
 0001:000df599       __exit                     004e0599 f   LIBCMT:crt0dat.obj
 0001:000df5af       __cexit                    004e05af f   LIBCMT:crt0dat.obj
 0001:000df5be       __c_exit                   004e05be f   LIBCMT:crt0dat.obj
 0001:000df5cd       __init_pointers            004e05cd f   LIBCMT:crt0dat.obj
 0001:000df61b       __fgetchar                 004e061b f   LIBCMT:fgetchar.obj
 0001:000df628       _getchar                   004e0628 f   LIBCMT:fgetchar.obj
 0001:000df62d       __fclose_nolock            004e062d f   LIBCMT:fclose.obj
 0001:000df6a4       _fclose                    004e06a4 f   LIBCMT:fclose.obj
 0001:000df720       __fwrite_nolock            004e0720 f   LIBCMT:fwrite.obj
 0001:000df882       _fwrite                    004e0882 f   LIBCMT:fwrite.obj
 0001:000df904       __fsopen                   004e0904 f   LIBCMT:fopen.obj
 0001:000df9c8       _fopen                     004e09c8 f   LIBCMT:fopen.obj
 0001:000df9df       _fopen_s                   004e09df f   LIBCMT:fopen.obj
 0001:000dfa32       _sprintf                   004e0a32 f   LIBCMT:sprintf.obj
 0001:000dfaaf       __sprintf_l                004e0aaf f   LIBCMT:sprintf.obj
 0001:000dfacb       _sprintf_s                 004e0acb f   LIBCMT:sprintf.obj
 0001:000dfae9       __sprintf_s_l              004e0ae9 f   LIBCMT:sprintf.obj
 0001:000dfb08       __snprintf_s               004e0b08 f   LIBCMT:sprintf.obj
 0001:000dfb29       __snprintf_s_l             004e0b29 f   LIBCMT:sprintf.obj
 0001:000dfb4b       __sprintf_p                004e0b4b f   LIBCMT:sprintf.obj
 0001:000dfb69       __sprintf_p_l              004e0b69 f   LIBCMT:sprintf.obj
 0001:000dfb88       __scprintf                 004e0b88 f   LIBCMT:sprintf.obj
 0001:000dfb9d       __scprintf_p               004e0b9d f   LIBCMT:sprintf.obj
 0001:000dfbb2       __scprintf_l               004e0bb2 f   LIBCMT:sprintf.obj
 0001:000dfbcb       __scprintf_p_l             004e0bcb f   LIBCMT:sprintf.obj
 0001:000dfbe4       __fpclear                  004e0be4 f   LIBCMT:_fpinit_.obj
 0001:000dfbe5       __cfltcvt_init             004e0be5 f   LIBCMT:_fpinit_.obj
 0001:000dfc45       ___setfflag                004e0c45 f   LIBCMT:_fpinit_.obj
 0001:000dfc5a       __fpmath                   004e0c5a f   LIBCMT:_fpinit_.obj
 0001:000dfc7d       __invoke_watson_if_error   004e0c7d f i LIBCMT:strerror.obj
 0001:000dfca1       __get_sys_err_msg          004e0ca1 f i LIBCMT:strerror.obj
 0001:000dfcc9       _strerror                  004e0cc9 f   LIBCMT:strerror.obj
 0001:000dfd35       _strerror_s                004e0d35 f   LIBCMT:strerror.obj
 0001:000dfd96       __get_errno_from_oserr     004e0d96 f   LIBCMT:dosmap.obj
 0001:000dfdd8       __errno                    004e0dd8 f   LIBCMT:dosmap.obj
 0001:000dfdeb       ___doserrno                004e0deb f   LIBCMT:dosmap.obj
 0001:000dfdfe       __dosmaperr                004e0dfe f   LIBCMT:dosmap.obj
 0001:000dfe21       __set_errno                004e0e21 f   LIBCMT:dosmap.obj
 0001:000dfe42       __get_errno                004e0e42 f   LIBCMT:dosmap.obj
 0001:000dfe71       __set_doserrno             004e0e71 f   LIBCMT:dosmap.obj
 0001:000dfe92       __get_doserrno             004e0e92 f   LIBCMT:dosmap.obj
 0001:000dfec1       __mkdir                    004e0ec1 f   LIBCMT:mkdir.obj
 0001:000dff00       _strncpy                   004e0f00 f   LIBCMT:strncpy.obj
 0001:000e0024       __validdrive               004e1024 f   LIBCMT:getcwd.obj
 0001:000e005d       __getdcwd_nolock           004e105d f   LIBCMT:getcwd.obj
 0001:000e0194       __getcwd                   004e1194 f   LIBCMT:getcwd.obj
 0001:000e01dd       __getdcwd                  004e11dd f   LIBCMT:getcwd.obj
 0001:000e039e       ___inc_tmpoff              004e139e f   LIBCMT:tmpfile.obj
 0001:000e03a5       __tmpnam_helper            004e13a5 f   LIBCMT:tmpfile.obj
 0001:000e04e4       _tmpnam_s                  004e14e4 f   LIBCMT:tmpfile.obj
 0001:000e052a       _tmpnam                    004e152a f   LIBCMT:tmpfile.obj
 0001:000e0551       __tmpfile_helper           004e1551 f   LIBCMT:tmpfile.obj
 0001:000e0771       _tmpfile                   004e1771 f   LIBCMT:tmpfile.obj
 0001:000e078d       _tmpfile_s                 004e178d f   LIBCMT:tmpfile.obj
 0001:000e07a0       ??0_LocaleUpdate@@QAE@PAUlocaleinfo_struct@@@Z 004e17a0 f i LIBCMT:toupper.obj
 0001:000e0827       ??1_LocaleUpdate@@QAE@XZ   004e1827 f i LIBCMT:toupper.obj
 0001:000e0835       ?GetLocaleT@_LocaleUpdate@@QAEPAUlocaleinfo_struct@@XZ 004e1835 f i LIBCMT:toupper.obj
 0001:000e0838       __toupper                  004e1838 f   LIBCMT:toupper.obj
 0001:000e0845       __toupper_l                004e1845 f   LIBCMT:toupper.obj
 0001:000e095b       _toupper                   004e195b f   LIBCMT:toupper.obj
 0001:000e0987       __tolower                  004e1987 f   LIBCMT:tolower.obj
 0001:000e0994       __tolower_l                004e1994 f   LIBCMT:tolower.obj
 0001:000e0aa9       _tolower                   004e1aa9 f   LIBCMT:tolower.obj
 0001:000e0ad5       __fseek_nolock             004e1ad5 f   LIBCMT:fseek.obj
 0001:000e0b5f       _fseek                     004e1b5f f   LIBCMT:fseek.obj
 0001:000e0be4       __ftell_nolock             004e1be4 f   LIBCMT:ftell.obj
 0001:000e0d81       _ftell                     004e1d81 f   LIBCMT:ftell.obj
 0001:000e0def       __fread_nolock_s           004e1def f   LIBCMT:fread.obj
 0001:000e0ff9       __fread_nolock             004e1ff9 f   LIBCMT:fread.obj
 0001:000e1016       _fread_s                   004e2016 f   LIBCMT:fread.obj
 0001:000e10ac       _fread                     004e20ac f   LIBCMT:fread.obj
 0001:000e10d0       _memcpy                    004e20d0 f   LIBCMT:memcpy.obj
 0001:000e1435       _atol                      004e2435 f   LIBCMT:atox.obj
 0001:000e144b       __atol_l                   004e244b f   LIBCMT:atox.obj
 0001:000e1464       _atoi                      004e2464 f   LIBCMT:atox.obj
 0001:000e146f       __atoi_l                   004e246f f   LIBCMT:atox.obj
 0001:000e147a       __atoi64                   004e247a f   LIBCMT:atox.obj
 0001:000e1490       __atoi64_l                 004e2490 f   LIBCMT:atox.obj
 0001:000e14a9       ??0bad_alloc@std@@QAE@XZ   004e24a9 f i LIBCMT:new.obj
 0001:000e14c4       ??2@YAPAXI@Z               004e24c4 f   LIBCMT:new.obj
 0001:000e1529       __CxxThrowException@8      004e2529 f   LIBCMT:throw.obj
 0001:000e1575       __chdir                    004e2575 f   LIBCMT:chdir.obj
 0001:000e16ad       ?_JumpToContinuation@@YGXPAXPAUEHRegistrationNode@@@Z 004e26ad f   LIBCMT:_trnsctrl_.obj
 0001:000e16df       ?_CallMemberFunction0@@YGXPAX0@Z 004e26df f   LIBCMT:_trnsctrl_.obj
 0001:000e16e6       ?_CallMemberFunction1@@YGXPAX00@Z 004e26e6 f   LIBCMT:_trnsctrl_.obj
 0001:000e16ed       ?_CallMemberFunction2@@YGXPAX00H@Z 004e26ed f   LIBCMT:_trnsctrl_.obj
 0001:000e16f4       ?_UnwindNestedFrames@@YGXPAUEHRegistrationNode@@PAUEHExceptionRecord@@@Z 004e26f4 f   LIBCMT:_trnsctrl_.obj
 0001:000e1748       ___CxxFrameHandler         004e2748 f   LIBCMT:_trnsctrl_.obj
 0001:000e177e       ___CxxFrameHandler3        004e277e f   LIBCMT:_trnsctrl_.obj
 0001:000e17b4       ___CxxFrameHandler2        004e27b4 f   LIBCMT:_trnsctrl_.obj
 0001:000e17ea       ___CxxLongjmpUnwind@4      004e27ea f   LIBCMT:_trnsctrl_.obj
 0001:000e183c       ?_CallSETranslator@@YAHPAUEHExceptionRecord@@PAUEHRegistrationNode@@PAX2PBU_s_FuncInfo@@H1@Z 004e283c f   LIBCMT:_trnsctrl_.obj
 0001:000e19b2       ?_GetRangeOfTrysToCheck@@YAPBU_s_TryBlockMapEntry@@PBU_s_FuncInfo@@HHPAI1@Z 004e29b2 f   LIBCMT:_trnsctrl_.obj
 0001:000e1a27       __CreateFrameInfo          004e2a27 f   LIBCMT:_trnsctrl_.obj
 0001:000e1a53       __IsExceptionObjectToBeDestroyed 004e2a53 f   LIBCMT:_trnsctrl_.obj
 0001:000e1a7a       __FindAndUnlinkFrame       004e2a7a f   LIBCMT:_trnsctrl_.obj
 0001:000e1acc       ?_CallCatchBlock2@@YAPAXPAUEHRegistrationNode@@PBU_s_FuncInfo@@PAXHK@Z 004e2acc f   LIBCMT:_trnsctrl_.obj
 0001:000e1b2c       _memmove_s                 004e2b2c f   LIBCMT:memmove_s.obj
 0001:000e1b89       ___ascii_stricmp           004e2b89 f   LIBCMT:stricmp.obj
 0001:000e1bc2       __stricmp_l                004e2bc2 f   LIBCMT:stricmp.obj
 0001:000e1c97       __stricmp                  004e2c97 f   LIBCMT:stricmp.obj
 0001:000e1da3       ___onexitinit              004e2da3 f   LIBCMT:onexit.obj
 0001:000e1dd4       __onexit                   004e2dd4 f   LIBCMT:onexit.obj
 0001:000e1e10       _atexit                    004e2e10 f   LIBCMT:onexit.obj
 0001:000e1e30       _memset                    004e2e30 f   LIBCMT:memset.obj
 0001:000e1eb0       _floor                     004e2eb0 f   LIBCMT:_floor_pentium4_.obj
 0001:000e1ef0       __floor_pentium4           004e2ef0 f   LIBCMT:_floor_pentium4_.obj
 0001:000e1fe0       __ftol2_sse                004e2fe0 f   LIBCMT:ftol2.obj
 0001:000e1fe9       __ftol2_pentium4           004e2fe9 f   LIBCMT:ftol2.obj
 0001:000e1ffc       __ftol2_sse_excpt          004e2ffc f   LIBCMT:ftol2.obj
 0001:000e2016       __ftol2                    004e3016 f   LIBCMT:ftol2.obj
 0001:000e20a0       _strchr                    004e30a0 f   LIBCMT:strchr.obj
 0001:000e20a6       ___from_strstr_to_strchr   004e30a6     LIBCMT:strchr.obj
 0001:000e215e       __initp_misc_invarg        004e315e f   LIBCMT:invarg.obj
 0001:000e216d       __invoke_watson            004e316d f   LIBCMT:invarg.obj
 0001:000e2295       __set_invalid_parameter_handler 004e3295 f   LIBCMT:invarg.obj
 0001:000e22bc       __get_invalid_parameter_handler 004e32bc f   LIBCMT:invarg.obj
 0001:000e22c9       ?_invoke_watson@@YAXPBG00II@Z 004e32c9 f   LIBCMT:invarg.obj
 0001:000e22d4       __invalid_parameter        004e32d4 f   LIBCMT:invarg.obj
 0001:000e22fa       __invalid_parameter_noinfo 004e32fa f   LIBCMT:invarg.obj
 0001:000e230a       ?_invalid_parameter@@YAXPBG00II@Z 004e330a f   LIBCMT:invarg.obj
 0001:000e2315       _fprintf                   004e3315 f   LIBCMT:fprintf.obj
 0001:000e2431       __fprintf_l                004e3431 f   LIBCMT:fprintf.obj
 0001:000e244d       __fprintf_s_l              004e344d f   LIBCMT:fprintf.obj
 0001:000e2469       _fprintf_s                 004e3469 f   LIBCMT:fprintf.obj
 0001:000e2484       __fprintf_p_l              004e3484 f   LIBCMT:fprintf.obj
 0001:000e24a0       __fprintf_p                004e34a0 f   LIBCMT:fprintf.obj
 0001:000e24bb       __strnicmp_l               004e34bb f   LIBCMT:strnicmp.obj
 0001:000e25ad       __strnicmp                 004e35ad f   LIBCMT:strnicmp.obj
 0001:000e260b       _fgets                     004e360b f   LIBCMT:fgets.obj
 0001:000e2753       _free                      004e3753 f   LIBCMT:free.obj
 0001:000e27e1       _V6_HeapAlloc              004e37e1 f   LIBCMT:malloc.obj
 0001:000e2830       __heap_alloc               004e3830 f i LIBCMT:malloc.obj
 0001:000e28aa       _malloc                    004e38aa f   LIBCMT:malloc.obj
 0001:000e2992       __wassert                  004e3992 f   LIBCMT:wassert.obj
 0001:000e30f0       _ceil                      004e40f0 f   LIBCMT:_ceil_pentium4_.obj
 0001:000e3130       __ceil_pentium4            004e4130 f   LIBCMT:_ceil_pentium4_.obj
 0001:000e320d       __atof_l                   004e420d f   LIBCMT:atof.obj
 0001:000e32b8       _atof                      004e42b8 f   LIBCMT:atof.obj
 0001:000e32cb       ___strgtold12              004e42cb f   LIBCMT:atof.obj
 0001:000e330d       ___STRINGTOLD              004e430d f   LIBCMT:atof.obj
 0001:000e3346       __mbsnbcpy_l               004e4346 f   LIBCMT:mbsnbcpy.obj
 0001:000e3429       __mbsnbcpy                 004e4429 f   LIBCMT:mbsnbcpy.obj
 0001:000e3443       __mbsstr_l                 004e4443 f   LIBCMT:mbsstr.obj
 0001:000e3584       __mbsstr                   004e4584 f   LIBCMT:mbsstr.obj
 0001:000e359b       _calloc                    004e459b f   LIBCMT:calloc.obj
 0001:000e35e0       __allmul                   004e45e0 f   LIBCMT:llmul.obj
 0001:000e3614       __mbsicmp_l                004e4614 f   LIBCMT:mbsicmp.obj
 0001:000e383a       __mbsicmp                  004e483a f   LIBCMT:mbsicmp.obj
 0001:000e3860       __alldiv                   004e4860 f   LIBCMT:lldiv.obj
 0001:000e390a       _srand                     004e490a f   LIBCMT:rand.obj
 0001:000e391c       _rand                      004e491c f   LIBCMT:rand.obj
 0001:000e3940       __allshr                   004e4940 f   LIBCMT:llshr.obj
 0001:000e3970       _pow                       004e4970 f   LIBCMT:_pow_.obj
 0001:000e39b0       __CIpow                    004e49b0 f   LIBCMT:_pow_.obj
 0001:000e39eb       __CIpow_default            004e49eb f   LIBCMT:_pow_.obj
 0001:000e3a04       __pow_default              004e4a04     LIBCMT:_pow_.obj
 0001:000e3c00       __CIsqrt                   004e4c00 f   LIBCMT:_sqrt_.obj
 0001:000e3c14       _sqrt                      004e4c14     LIBCMT:_sqrt_.obj
 0001:000e3cba       _frexp                     004e4cba f   LIBCMT:_frexp_.obj
 0001:000e3da0       _log                       004e4da0 f   LIBCMT:_log_.obj
 0001:000e3de0       __CIlog                    004e4de0 f   LIBCMT:_log_.obj
 0001:000e3e1b       __CIlog_default            004e4e1b f   LIBCMT:_log_.obj
 0001:000e3e2f       __log_default              004e4e2f     LIBCMT:_log_.obj
 0001:000e3ef0       __allshl                   004e4ef0 f   LIBCMT:llshl.obj
 0001:000e3f0f       __invoke_watson_if_oneof   004e4f0f f i LIBCMT:system.obj
 0001:000e3f42       _system                    004e4f42 f   LIBCMT:system.obj
 0001:000e4030       _log10                     004e5030 f   LIBCMT:_log10_.obj
 0001:000e4070       __CIlog10                  004e5070 f   LIBCMT:_log10_.obj
 0001:000e40ab       __CIlog10_default          004e50ab f   LIBCMT:_log10_.obj
 0001:000e40bf       __log10_default            004e50bf     LIBCMT:_log10_.obj
 0001:000e4180       _atan2                     004e5180 f   LIBCMT:_87ctriga_.obj
 0001:000e418a       __CIatan2                  004e518a f   LIBCMT:_87ctriga_.obj
 0001:000e41a0       _cos                       004e51a0 f   LIBCMT:_cos_.obj
 0001:000e41e0       __CIcos                    004e51e0 f   LIBCMT:_cos_.obj
 0001:000e421b       __CIcos_default            004e521b f   LIBCMT:_cos_.obj
 0001:000e422f       __cos_default              004e522f     LIBCMT:_cos_.obj
 0001:000e42d0       _sin                       004e52d0 f   LIBCMT:_sin_.obj
 0001:000e4310       __CIsin                    004e5310 f   LIBCMT:_sin_.obj
 0001:000e434b       __CIsin_default            004e534b f   LIBCMT:_sin_.obj
 0001:000e435f       __sin_default              004e535f     LIBCMT:_sin_.obj
 0001:000e4400       _acos                      004e5400 f   LIBCMT:_acos_.obj
 0001:000e4440       __CIacos                   004e5440 f   LIBCMT:_acos_.obj
 0001:000e447b       __CIacos_default           004e547b f   LIBCMT:_acos_.obj
 0001:000e448f       __acos_default             004e548f     LIBCMT:_acos_.obj
 0001:000e4546       _feof                      004e5546 f   LIBCMT:feoferr.obj
 0001:000e457a       _ferror                    004e557a f   LIBCMT:feoferr.obj
 0001:000e45ae       _realloc                   004e55ae f   LIBCMT:realloc.obj
 0001:000e47c9       _ldexp                     004e57c9 f   LIBCMT:_ldexp_.obj
 0001:000e4baa       _strtol                    004e5baa f   LIBCMT:strtol.obj
 0001:000e4bd5       __strtol_l                 004e5bd5 f   LIBCMT:strtol.obj
 0001:000e4bf2       _strtoul                   004e5bf2 f   LIBCMT:strtol.obj
 0001:000e4c1e       __strtoul_l                004e5c1e f   LIBCMT:strtol.obj
 0001:000e4c3b       _strncmp                   004e5c3b f   LIBCMT:strncmp.obj
 0001:000e4d00       __aullshr                  004e5d00 f   LIBCMT:ullshr.obj
 0001:000e4d1f       _abs                       004e5d1f f   LIBCMT:abs.obj
 0001:000e4d2f       __abs64                    004e5d2f f   LIBCMT:abs.obj
 0001:000e4d50       _strlen                    004e5d50 f   LIBCMT:strlen.obj
 0001:000e4de0       _strcmp                    004e5de0 f   LIBCMT:strcmp.obj
 0001:000e4e70       _strcpy                    004e5e70 f   LIBCMT:strcat.obj
 0001:000e4e80       _strcat                    004e5e80 f   LIBCMT:strcat.obj
 0001:000e4f68       __ftime64_s                004e5f68 f   LIBCMT:ftime64.obj
 0001:000e50de       __ftime64                  004e60de f   LIBCMT:ftime64.obj
 0001:000e50e9       __time64                   004e60e9 f   LIBCMT:time64.obj
 0001:000e513a       __ungetc_nolock            004e613a f   LIBCMT:ungetc.obj
 0001:000e522b       _ungetc                    004e622b f   LIBCMT:ungetc.obj
 0001:000e529d       _fgetc                     004e629d f   LIBCMT:fgetc.obj
 0001:000e53a1       _getc                      004e63a1 f   LIBCMT:fgetc.obj
 0001:000e54a5       __getc_nolock              004e64a5 f   LIBCMT:fgetc.obj
 0001:000e54c5       _vfscanf                   004e64c5 f   LIBCMT:fscanf.obj
 0001:000e55cf       _fscanf                    004e65cf f   LIBCMT:fscanf.obj
 0001:000e55ef       __fscanf_l                 004e65ef f   LIBCMT:fscanf.obj
 0001:000e5610       _fscanf_s                  004e6610 f   LIBCMT:fscanf.obj
 0001:000e5630       __fscanf_s_l               004e6630 f   LIBCMT:fscanf.obj
 0001:000e5813       _mainCRTStartup            004e6813 f   LIBCMT:crt0.obj
 0001:000e581d       __EH_prolog3               004e681d f   LIBCMT:ehprolg3.obj
 0001:000e5850       __EH_prolog3_catch         004e6850 f   LIBCMT:ehprolg3.obj
 0001:000e5886       __EH_prolog3_GS            004e6886 f   LIBCMT:ehprolg3.obj
 0001:000e58bc       __EH_prolog3_catch_GS      004e68bc f   LIBCMT:ehprolg3.obj
 0001:000e58f5       __EH_epilog3               004e68f5 f   LIBCMT:ehprolg3.obj
 0001:000e5909       __EH_epilog3_GS            004e6909 f   LIBCMT:ehprolg3.obj
 0001:000e5918       __EH_epilog3_catch_GS      004e6918 f   LIBCMT:ehprolg3.obj
 0001:000e5927       __fullpath                 004e6927 f   LIBCMT:fullpath.obj
 0001:000e5a31       ___dtoxmode                004e6a31 f   LIBCMT:stat.obj
 0001:000e5bc8       __stat32                   004e6bc8 f   LIBCMT:stat.obj
 0001:000e5f6f       ___loctotime64_t           004e6f6f f   LIBCMT:dtoxtm64.obj
 0001:000e61da       __getdrive                 004e71da f   LIBCMT:drive.obj
 0001:000e62a3       __chdrive                  004e72a3 f   LIBCMT:drive.obj
 0001:000e6345       __mbctolower_l             004e7345 f   LIBCMT:mbtolwr.obj
 0001:000e63eb       __mbctolower               004e73eb f   LIBCMT:mbtolwr.obj
 0001:000e63fe       __mbspbrk_l                004e73fe f   LIBCMT:mbspbrk.obj
 0001:000e64cb       __mbspbrk                  004e74cb f   LIBCMT:mbspbrk.obj
 0001:000e64e2       _strcpy_s                  004e74e2 f   LIBCMT:strcpy_s.obj
 0001:000e654a       ?_Type_info_dtor@type_info@@CAXPAV1@@Z 004e754a f   LIBCMT:typname.obj
 0001:000e65ba       ?_Name_base@type_info@@CAPBDPBV1@PAU__type_info_node@@@Z 004e75ba f   LIBCMT:typname.obj
 0001:000e66af       ?_Type_info_dtor_internal@type_info@@CAXPAV1@@Z 004e76af f   LIBCMT:typname.obj
 0001:000e671f       ___unDNameHelper           004e771f f   LIBCMT:typname.obj
 0001:000e6752       ?_Name_base_internal@type_info@@CAPBDPBV1@PAU__type_info_node@@@Z 004e7752 f   LIBCMT:typname.obj
 0001:000e6861       ___clean_type_info_names_internal 004e7861 f   LIBCMT:typname.obj
 0001:000e68b4       __stbuf                    004e78b4 f   LIBCMT:_sftbuf.obj
 0001:000e6950       __ftbuf                    004e7950 f   LIBCMT:_sftbuf.obj
 0001:000e6984       __SEH_prolog4              004e7984 f   LIBCMT:sehprolg4.obj
 0001:000e69c9       __SEH_epilog4              004e79c9 f   LIBCMT:sehprolg4.obj
 0001:000e6a10       __except_handler4          004e7a10 f   LIBCMT:chandler4.obj
 0001:000e6c42       _get_int_arg               004e7c42 f i LIBCMT:output.obj
 0001:000e6c54       _get_int64_arg             004e7c54 f i LIBCMT:output.obj
 0001:000e6c69       _get_short_arg             004e7c69 f i LIBCMT:output.obj
 0001:000e6c7c       __output_l                 004e7c7c f   LIBCMT:output.obj
 0001:000e78ba       __output_s_l               004e88ba f   LIBCMT:outputs.obj
 0001:000e848a       __validate_param_reuseA    004e948a f   LIBCMT:outputp.obj
 0001:000e865b       _get_crtdouble_arg         004e965b f i LIBCMT:outputp.obj
 0001:000e8670       __output_p_l               004e9670 f   LIBCMT:outputp.obj
 0001:000e9930       __write_nolock             004ea930 f   LIBCMT:write.obj
 0001:000ea063       __write                    004eb063 f   LIBCMT:write.obj
 0001:000ea13f       __fileno                   004eb13f f   LIBCMT:fileno.obj
 0001:000ea171       __commit                   004eb171 f   LIBCMT:commit.obj
 0001:000ea252       __mtinitlocks              004eb252 f   LIBCMT:mlock.obj
 0001:000ea29d       __mtdeletelocks            004eb29d f   LIBCMT:mlock.obj
 0001:000ea2f4       __unlock                   004eb2f4 f   LIBCMT:mlock.obj
 0001:000ea30b       __lockerr_exit             004eb30b f   LIBCMT:mlock.obj
 0001:000ea323       __mtinitlocknum            004eb323 f   LIBCMT:mlock.obj
 0001:000ea3e6       __lock                     004eb3e6 f   LIBCMT:mlock.obj
 0001:000ea419       __ioinit                   004eb419 f   LIBCMT:ioinit.obj
 0001:000ea66d       __ioterm                   004eb66d f   LIBCMT:ioinit.obj
 0001:000ea6bb       _wait_a_bit                004eb6bb f i LIBCMT:crtheap.obj
 0001:000ea6e1       __set_malloc_crt_max_wait  004eb6e1 f   LIBCMT:crtheap.obj
 0001:000ea6f6       __malloc_crt               004eb6f6 f   LIBCMT:crtheap.obj
 0001:000ea73b       __calloc_crt               004eb73b f   LIBCMT:crtheap.obj
 0001:000ea787       __realloc_crt              004eb787 f   LIBCMT:crtheap.obj
 0001:000ea7d5       __recalloc_crt             004eb7d5 f   LIBCMT:crtheap.obj
 0001:000ea827       __fcloseall                004eb827 f   LIBCMT:closeall.obj
 0001:000ea8c6       __flsbuf                   004eb8c6 f   LIBCMT:_flsbuf.obj
 0001:000eaa2a       ___report_gsfailure        004eba2a f   LIBCMT:gs_report.obj
 0001:000eab30       __crt_wait_module_handle   004ebb30 f i LIBCMT:tidtable.obj
 0001:000eab4a       __encode_pointer           004ebb4a f   LIBCMT:tidtable.obj
 0001:000eabbc       __encoded_null             004ebbbc f   LIBCMT:tidtable.obj
 0001:000eabc5       __decode_pointer           004ebbc5 f   LIBCMT:tidtable.obj
 0001:000eac37       ___crtTlsAlloc@4           004ebc37 f   LIBCMT:tidtable.obj
 0001:000eac40       ___fls_getvalue@4          004ebc40 f   LIBCMT:tidtable.obj
 0001:000eac5a       ___get_flsindex            004ebc5a f   LIBCMT:tidtable.obj
 0001:000eac60       ___set_flsgetvalue         004ebc60 f   LIBCMT:tidtable.obj
 0001:000eac94       ___fls_setvalue@8          004ebc94 f   LIBCMT:tidtable.obj
 0001:000eacb1       __mtterm                   004ebcb1 f   LIBCMT:tidtable.obj
 0001:000eacee       __initptd                  004ebcee f   LIBCMT:tidtable.obj
 0001:000eadd5       __getptd_noexit            004ebdd5 f   LIBCMT:tidtable.obj
 0001:000eae4e       __getptd                   004ebe4e f   LIBCMT:tidtable.obj
 0001:000eae68       __freefls@4                004ebe68 f   LIBCMT:tidtable.obj
 0001:000eaf97       __freeptd                  004ebf97 f   LIBCMT:tidtable.obj
 0001:000eb005       ___threadid                004ec005 f   LIBCMT:tidtable.obj
 0001:000eb00b       ___threadhandle            004ec00b f   LIBCMT:tidtable.obj
 0001:000eb011       __mtinit                   004ec011 f   LIBCMT:tidtable.obj
 0001:000eb19e       __NMSG_WRITE               004ec19e f   LIBCMT:crt0msg.obj
 0001:000eb349       __GET_RTERRMSG             004ec349 f   LIBCMT:crt0msg.obj
 0001:000eb36f       __FF_MSGBANNER             004ec36f f   LIBCMT:crt0msg.obj
 0001:000eb3a8       __RTC_Initialize           004ec3a8 f   LIBCMT:_initsect_.obj
 0001:000eb3ce       __RTC_Terminate            004ec3ce f   LIBCMT:_initsect_.obj
 0001:000eb3f4       __initp_misc_cfltcvt_tab   004ec3f4 f   LIBCMT:cmiscdat.obj
 0001:000eb420       __ValidateImageBase        004ec420 f   LIBCMT:pesect.obj
 0001:000eb460       __FindPESection            004ec460 f   LIBCMT:pesect.obj
 0001:000eb4b0       __IsNonwritableInCurrentImage 004ec4b0 f   LIBCMT:pesect.obj
 0001:000eb56d       ?terminate@@YAXXZ          004ec56d f   LIBCMT:hooks.obj
 0001:000eb5a6       ?unexpected@@YAXXZ         004ec5a6 f   LIBCMT:hooks.obj
 0001:000eb5b9       ?_inconsistency@@YAXXZ     004ec5b9 f   LIBCMT:hooks.obj
 0001:000eb5f1       __initp_eh_hooks           004ec5f1 f   LIBCMT:hooks.obj
 0001:000eb602       __initp_misc_winxfltr      004ec602 f   LIBCMT:winxfltr.obj
 0001:000eb638       __XcptFilter               004ec638 f   LIBCMT:winxfltr.obj
 0001:000eb798       ___CppXcptFilter           004ec798 f   LIBCMT:winxfltr.obj
 0001:000eb7b8       __initp_misc_winsig        004ec7b8 f   LIBCMT:winsig.obj
 0001:000eb8a8       ___get_sigabrt             004ec8a8 f   LIBCMT:winsig.obj
 0001:000eb8b5       ___fpecode                 004ec8b5 f   LIBCMT:winsig.obj
 0001:000eb8be       ___pxcptinfoptrs           004ec8be f   LIBCMT:winsig.obj
 0001:000eb8c7       _signal                    004ec8c7 f   LIBCMT:winsig.obj
 0001:000ebb04       _raise                     004ecb04 f   LIBCMT:winsig.obj
 0001:000ebcb4       __initp_misc_rand_s        004eccb4 f   LIBCMT:rand_s.obj
 0001:000ebcc3       _rand_s                    004eccc3 f   LIBCMT:rand_s.obj
 0001:000ebdcb       ___getlocaleinfo           004ecdcb f   LIBCMT:inithelp.obj
 0001:000ebf4a       __initp_misc_purevirt      004ecf4a f   LIBCMT:inithelp.obj
 0001:000ebf59       __initp_misc_initcrit      004ecf59 f   LIBCMT:initcrit.obj
 0001:000ebf68       ___crtInitCritSecAndSpinCount 004ecf68 f   LIBCMT:initcrit.obj
 0001:000ebfc8       __initp_heap_handler       004ecfc8 f   LIBCMT:handler.obj
 0001:000ebfd7       ?_set_new_handler@@YAP6AHI@ZP6AHI@Z@Z 004ecfd7 f   LIBCMT:handler.obj
 0001:000ec00d       ?_set_new_handler@@YAP6AHI@ZH@Z 004ed00d f   LIBCMT:handler.obj
 0001:000ec016       ?_query_new_handler@@YAP6AHI@ZXZ 004ed016 f   LIBCMT:handler.obj
 0001:000ec023       __callnewh                 004ed023 f   LIBCMT:handler.obj
 0001:000ec04b       __close_nolock             004ed04b f   LIBCMT:close.obj
 0001:000ec0e7       __close                    004ed0e7 f   LIBCMT:close.obj
 0001:000ec1b4       __freebuf                  004ed1b4 f   LIBCMT:_freebuf.obj
 0001:000ec1e5       __openfile                 004ed1e5 f   LIBCMT:_open.obj
 0001:000ec4ae       __getstream                004ed4ae f   LIBCMT:stream.obj
 0001:000ec5e8       __local_unwind4            004ed5e8 f   LIBCMT:exsup4.obj
 0001:000ec6be       __seh_longjmp_unwind4@4    004ed6be f   LIBCMT:exsup4.obj
 0001:000ec6da       @_EH4_CallFilterFunc@8     004ed6da f   LIBCMT:exsup4.obj
 0001:000ec6f1       @_EH4_TransferToHandler@8  004ed6f1 f   LIBCMT:exsup4.obj
 0001:000ec70a       @_EH4_GlobalUnwind@4       004ed70a f   LIBCMT:exsup4.obj
 0001:000ec724       @_EH4_LocalUnwind@16       004ed724 f   LIBCMT:exsup4.obj
 0001:000ec73b       __vsnprintf_helper         004ed73b f   LIBCMT:vsnprnc.obj
 0001:000ec807       __vsnprintf_c              004ed807 f   LIBCMT:vsnprnc.obj
 0001:000ec830       __vsnprintf_c_l            004ed830 f   LIBCMT:vsnprnc.obj
 0001:000ec85a       __vsprintf_s_l             004ed85a f   LIBCMT:vsnprnc.obj
 0001:000ec8e2       _vsprintf_s                004ed8e2 f   LIBCMT:vsnprnc.obj
 0001:000ec8ff       __vsnprintf_s_l            004ed8ff f   LIBCMT:vsnprnc.obj
 0001:000eca06       __vsnprintf_s              004eda06 f   LIBCMT:vsnprnc.obj
 0001:000eca06       _vsnprintf_s               004eda06 f   LIBCMT:vsnprnc.obj
 0001:000eca26       __vsprintf_p               004eda26 f   LIBCMT:vsnprnc.obj
 0001:000eca4f       __vsprintf_p_l             004eda4f f   LIBCMT:vsnprnc.obj
 0001:000eca79       ?strrchr@@YAPADPADH@Z      004eda79 f i LIBCMT:cvt.obj
 0001:000eca84       __forcdecpt_l              004eda84 f   LIBCMT:cvt.obj
 0001:000ecaf7       __cropzeros_l              004edaf7 f   LIBCMT:cvt.obj
 0001:000ecb79       __positive                 004edb79 f   LIBCMT:cvt.obj
 0001:000ecb95       __fassign_l                004edb95 f   LIBCMT:cvt.obj
 0001:000ecbd7       __fassign                  004edbd7 f   LIBCMT:cvt.obj
 0001:000ecc10       __forcdecpt                004edc10 f   LIBCMT:cvt.obj
 0001:000ecc23       __cropzeros                004edc23 f   LIBCMT:cvt.obj
 0001:000ecda5       __cftoe_l                  004edda5 f   LIBCMT:cvt.obj
 0001:000ece75       __cftoe                    004ede75 f   LIBCMT:cvt.obj
 0001:000ece95       __cftoa_l                  004ede95 f   LIBCMT:cvt.obj
 0001:000ed208       __cftoa                    004ee208 f   LIBCMT:cvt.obj
 0001:000ed31f       __cftof_l                  004ee31f f   LIBCMT:cvt.obj
 0001:000ed3da       __cftof                    004ee3da f   LIBCMT:cvt.obj
 0001:000ed3f7       __cftog_l                  004ee3f7 f   LIBCMT:cvt.obj
 0001:000ed4f1       __cftog                    004ee4f1 f   LIBCMT:cvt.obj
 0001:000ed511       __cfltcvt_l                004ee511 f   LIBCMT:cvt.obj
 0001:000ed599       __cfltcvt                  004ee599 f   LIBCMT:cvt.obj
 0001:000ed5bc       __setdefaultprecision      004ee5bc f   LIBCMT:fp8.obj
 0001:000ed5e7       __ms_p5_test_fdiv          004ee5e7 f   LIBCMT:_testfdiv_.obj
 0001:000ed625       __ms_p5_mp_test_fdiv       004ee625 f   LIBCMT:_testfdiv_.obj
 0001:000ed64e       ___sys_nerr                004ee64e f   LIBCMT:syserr.obj
 0001:000ed654       ___sys_errlist             004ee654 f   LIBCMT:syserr.obj
 0001:000ed65a       _strncpy_s                 004ee65a f   LIBCMT:strncpy_s.obj
 0001:000ed70f       _strcat_s                  004ee70f f   LIBCMT:strcat_s.obj
 0001:000ed860       __itoa_s                   004ee860 f   LIBCMT:xtoas.obj
 0001:000ed88a       __ltoa_s                   004ee88a f   LIBCMT:xtoas.obj
 0001:000ed8b1       __ultoa_s                  004ee8b1 f   LIBCMT:xtoas.obj
 0001:000ed9c3       __i64toa_s                 004ee9c3 f   LIBCMT:xtoas.obj
 0001:000ed9f8       __ui64toa_s                004ee9f8 f   LIBCMT:xtoas.obj
 0001:000eda17       __getpid                   004eea17 f   LIBCMT:getpid.obj
 0001:000eda1d       __mbsrchr_l                004eea1d f   LIBCMT:mbsrchr.obj
 0001:000edad9       __mbsrchr                  004eead9 f   LIBCMT:mbsrchr.obj
 0001:000edaf0       __rmtmp                    004eeaf0 f   LIBCMT:rmtmp.obj
 0001:000edb99       __access_s                 004eeb99 f   LIBCMT:access.obj
 0001:000edc22       __access                   004eec22 f   LIBCMT:access.obj
 0001:000edc3a       __strdup                   004eec3a f   LIBCMT:strdup.obj
 0001:000ee3ae       __open                     004ef3ae f   LIBCMT:open.obj
 0001:000ee464       __sopen_helper             004ef464 f   LIBCMT:open.obj
 0001:000ee530       __sopen                    004ef530 f   LIBCMT:open.obj
 0001:000ee562       __sopen_s                  004ef562 f   LIBCMT:open.obj
 0001:000ee7a8       ___updatetmbcinfo          004ef7a8 f   LIBCMT:mbctype.obj
 0001:000ee8c8       __setmbcp_nolock           004ef8c8 f   LIBCMT:mbctype.obj
 0001:000eeaad       __getmbcp                  004efaad f   LIBCMT:mbctype.obj
 0001:000eeaeb       __setmbcp                  004efaeb f   LIBCMT:mbctype.obj
 0001:000eec85       ___initmbctable            004efc85 f   LIBCMT:mbctype.obj
 0001:000eeca3       ____setlc_active_func      004efca3 f   LIBCMT:setlocal.obj
 0001:000eeca9       ____unguarded_readlc_active_add_func 004efca9 f   LIBCMT:setlocal.obj
 0001:000eecaf       ___freetlocinfo            004efcaf f   LIBCMT:setlocal.obj
 0001:000eedf8       ___addlocaleref            004efdf8 f   LIBCMT:setlocal.obj
 0001:000eee87       ___removelocaleref         004efe87 f   LIBCMT:setlocal.obj
 0001:000eef84       ___updatetlocinfo          004eff84 f   LIBCMT:setlocal.obj
 0001:000eeffa       __configthreadlocale       004efffa f   LIBCMT:setlocal.obj
 0001:000ef0b7       __free_locale              004f00b7 f   LIBCMT:setlocal.obj
 0001:000ef179       ___free_locale             004f0179 f   LIBCMT:setlocal.obj
 0001:000ef184       __get_current_locale       004f0184 f   LIBCMT:setlocal.obj
 0001:000ef233       ___get_current_locale      004f0233 f   LIBCMT:setlocal.obj
 0001:000ef238       ___init_dummy              004f0238 f   LIBCMT:setlocal.obj
 0001:000ef23b       __strcats                  004f023b f   LIBCMT:setlocal.obj
 0001:000ef27b       ___lc_strtolc              004f027b f   LIBCMT:setlocal.obj
 0001:000ef3a4       ___lc_lctostr              004f03a4 f   LIBCMT:setlocal.obj
 0001:000ef58e       __expandlocale             004f058e f   LIBCMT:setlocal.obj
 0001:000efcdc       __create_locale            004f0cdc f   LIBCMT:setlocal.obj
 0001:000efdd1       ___create_locale           004f0dd1 f   LIBCMT:setlocal.obj
 0001:000efddc       _setlocale                 004f0ddc f   LIBCMT:setlocal.obj
 0001:000eff4c       __MarkAllocaS              004f0f4c f i LIBCMT:a_map.obj
 0001:000eff62       __freea                    004f0f62 f i LIBCMT:a_map.obj
 0001:000f0345       ___crtLCMapStringA         004f1345 f   LIBCMT:a_map.obj
 0001:000f038a       __isleadbyte_l             004f138a f i LIBCMT:_wctype.obj
 0001:000f03c2       _isleadbyte                004f13c2 f i LIBCMT:_wctype.obj
 0001:000f03d5       __iswalpha_l               004f13d5 f i LIBCMT:_wctype.obj
 0001:000f03ef       _iswalpha                  004f13ef f i LIBCMT:_wctype.obj
 0001:000f0405       __iswupper_l               004f1405 f i LIBCMT:_wctype.obj
 0001:000f041c       _iswupper                  004f141c f i LIBCMT:_wctype.obj
 0001:000f042f       __iswlower_l               004f142f f i LIBCMT:_wctype.obj
 0001:000f0446       _iswlower                  004f1446 f i LIBCMT:_wctype.obj
 0001:000f0459       __iswdigit_l               004f1459 f i LIBCMT:_wctype.obj
 0001:000f0470       _iswdigit                  004f1470 f i LIBCMT:_wctype.obj
 0001:000f0483       __iswxdigit_l              004f1483 f i LIBCMT:_wctype.obj
 0001:000f049d       _iswxdigit                 004f149d f i LIBCMT:_wctype.obj
 0001:000f04b3       __iswspace_l               004f14b3 f i LIBCMT:_wctype.obj
 0001:000f04ca       _iswspace                  004f14ca f i LIBCMT:_wctype.obj
 0001:000f04dd       __iswpunct_l               004f14dd f i LIBCMT:_wctype.obj
 0001:000f04f4       _iswpunct                  004f14f4 f i LIBCMT:_wctype.obj
 0001:000f0507       __iswalnum_l               004f1507 f i LIBCMT:_wctype.obj
 0001:000f0521       _iswalnum                  004f1521 f i LIBCMT:_wctype.obj
 0001:000f0537       __iswprint_l               004f1537 f i LIBCMT:_wctype.obj
 0001:000f0551       _iswprint                  004f1551 f i LIBCMT:_wctype.obj
 0001:000f0567       __iswgraph_l               004f1567 f i LIBCMT:_wctype.obj
 0001:000f0581       _iswgraph                  004f1581 f i LIBCMT:_wctype.obj
 0001:000f0597       __iswcntrl_l               004f1597 f i LIBCMT:_wctype.obj
 0001:000f05ae       _iswcntrl                  004f15ae f i LIBCMT:_wctype.obj
 0001:000f05c1       _iswascii                  004f15c1 f i LIBCMT:_wctype.obj
 0001:000f05d5       __iswcsym_l                004f15d5 f i LIBCMT:_wctype.obj
 0001:000f05ff       ___iswcsym                 004f15ff f i LIBCMT:_wctype.obj
 0001:000f0625       __iswcsymf_l               004f1625 f i LIBCMT:_wctype.obj
 0001:000f064f       ___iswcsymf                004f164f f i LIBCMT:_wctype.obj
 0001:000f0675       __isctype_l                004f1675 f   LIBCMT:isctype.obj
 0001:000f072d       __isctype                  004f172d f   LIBCMT:isctype.obj
 0001:000f075f       __lseek_nolock             004f175f f   LIBCMT:lseek.obj
 0001:000f07d4       __lseek                    004f17d4 f   LIBCMT:lseek.obj
 0001:000f08b0       __filbuf                   004f18b0 f   LIBCMT:_filbuf.obj
 0001:000f09db       __read_nolock              004f19db f   LIBCMT:read.obj
 0001:000f0f9d       __read                     004f1f9d f   LIBCMT:read.obj
 0001:000f1121       __VEC_memcpy               004f2121 f   LIBCMT:p4_memcpy.obj
 0001:000f1254       __get_sse2_info            004f2254 f   LIBCMT:cpu_disp.obj
 0001:000f12b6       ___sse2_available_init     004f22b6 f   LIBCMT:cpu_disp.obj
 0001:000f155a       __strtoi64                 004f255a f   LIBCMT:strtoq.obj
 0001:000f1585       __strtoi64_l               004f2585 f   LIBCMT:strtoq.obj
 0001:000f15a2       __strtoui64                004f25a2 f   LIBCMT:strtoq.obj
 0001:000f15ce       __strtoui64_l              004f25ce f   LIBCMT:strtoq.obj
 0001:000f15eb       __mbctoupper_l             004f25eb f   LIBCMT:mbtoupr.obj
 0001:000f1691       __mbctoupper               004f2691 f   LIBCMT:mbtoupr.obj
 0001:000f16a4       ??0bad_exception@std@@QAE@PBD@Z 004f26a4 f i LIBCMT:frame.obj
 0001:000f16c2       ??1bad_exception@std@@UAE@XZ 004f26c2 f i LIBCMT:frame.obj
 0001:000f16cd       ??_Ebad_exception@std@@UAEPAXI@Z 004f26cd f i LIBCMT:frame.obj
 0001:000f16cd       ??_Gbad_exception@std@@UAEPAXI@Z 004f26cd f i LIBCMT:frame.obj
 0001:000f16f4       ___TypeMatch               004f26f4 f   LIBCMT:frame.obj
 0001:000f1753       ___FrameUnwindFilter       004f2753 f   LIBCMT:frame.obj
 0001:000f179c       ___FrameUnwindToState      004f279c f   LIBCMT:frame.obj
 0001:000f18c2       ___DestructExceptionObject 004f28c2 f   LIBCMT:frame.obj
 0001:000f1917       ___AdjustPointer           004f2917 f   LIBCMT:frame.obj
 0001:000f1940       ?__uncaught_exception@@YA_NXZ 004f2940 f   LIBCMT:frame.obj
 0001:000f1953       ___CxxRegisterExceptionObject 004f2953 f   LIBCMT:frame.obj
 0001:000f1a0a       ___CxxDetectRethrow        004f2a0a f   LIBCMT:frame.obj
 0001:000f1a5c       ___CxxUnregisterExceptionObject 004f2a5c f   LIBCMT:frame.obj
 0001:000f1b9b       ___CxxQueryExceptionSize   004f2b9b f   LIBCMT:frame.obj
 0001:000f1b9f       ___CxxCallUnwindDtor       004f2b9f f   LIBCMT:frame.obj
 0001:000f1bd1       ___CxxCallUnwindDelDtor    004f2bd1 f   LIBCMT:frame.obj
 0001:000f1c04       ___CxxCallUnwindStdDelDtor 004f2c04 f   LIBCMT:frame.obj
 0001:000f1c36       ___CxxCallUnwindVecDtor    004f2c36 f   LIBCMT:frame.obj
 0001:000f1d67       ?_is_exception_typeof@@YAHABVtype_info@@PAU_EXCEPTION_POINTERS@@@Z 004f2d67 f   LIBCMT:frame.obj
 0001:000f1f89       ___BuildCatchObjectHelper  004f2f89 f   LIBCMT:frame.obj
 0001:000f2108       ___BuildCatchObject        004f3108 f   LIBCMT:frame.obj
 0001:000f219a       ___CxxExceptionFilter      004f319a f   LIBCMT:frame.obj
 0001:000f2788       ??0bad_exception@std@@QAE@ABV01@@Z 004f3788 f i LIBCMT:frame.obj
 0001:000f27a5       ___InternalCxxFrameHandler 004f37a5 f   LIBCMT:frame.obj
 0001:000f2890       __CallSettingFrame@12      004f3890 f   LIBCMT:lowhelpr.obj
 0001:000f28b7       __NLG_Return               004f38b7     LIBCMT:lowhelpr.obj
 0001:000f28e0       _memmove                   004f38e0 f   LIBCMT:memmove.obj
 0001:000f2c45       __msize                    004f3c45 f   LIBCMT:msize.obj
 0001:000f2d3f       __VEC_memzero              004f3d3f f   LIBCMT:p4_memset.obj
 0001:000f2dce       ___libm_setusermatherr     004f3dce f   LIBCMT:_libm_error_.obj
 0001:000f2dfc       ___libm_error_support      004f3dfc f   LIBCMT:_libm_error_.obj
 0001:000f30ac       __sse2_mathfcns_init       004f40ac f   LIBCMT:_mathfcns_.obj
 0001:000f30c0       __set_SSE2_enable          004f40c0 f   LIBCMT:_mathfcns_.obj
 0001:000f30d9       __floor_default            004f40d9 f   LIBCMT:_floor_.obj
 0001:000f31ae       __crt_debugger_hook        004f41ae f   LIBCMT:dbghook.obj
 0001:000f31b6       _vfprintf_helper           004f41b6 f   LIBCMT:vfprintf.obj
 0001:000f32d1       __vfprintf_l               004f42d1 f   LIBCMT:vfprintf.obj
 0001:000f32f1       __vfprintf_s_l             004f42f1 f   LIBCMT:vfprintf.obj
 0001:000f3311       __vfprintf_p_l             004f4311 f   LIBCMT:vfprintf.obj
 0001:000f3331       _vfprintf                  004f4331 f   LIBCMT:vfprintf.obj
 0001:000f3350       _vfprintf_s                004f4350 f   LIBCMT:vfprintf.obj
 0001:000f336f       __vfprintf_p               004f436f f   LIBCMT:vfprintf.obj
 0001:000f3390       ___ascii_strnicmp          004f4390 f   LIBCMT:_strnicm.obj
 0001:000f33f1       ___heap_select             004f43f1 f   LIBCMT:heapinit.obj
 0001:000f33f5       __heap_init                004f43f5 f   LIBCMT:heapinit.obj
 0001:000f3425       __heap_term                004f4425 f   LIBCMT:heapinit.obj
 0001:000f3499       __get_heap_handle          004f4499 f   LIBCMT:heapinit.obj
 0001:000f349f       __get_sbh_threshold        004f449f f   LIBCMT:sbheap.obj
 0001:000f34c0       __set_amblksiz             004f44c0 f   LIBCMT:sbheap.obj
 0001:000f350b       __get_amblksiz             004f450b f   LIBCMT:sbheap.obj
 0001:000f354c       ___sbh_heap_init           004f454c f   LIBCMT:sbheap.obj
 0001:000f359a       ___sbh_find_block          004f459a f   LIBCMT:sbheap.obj
 0001:000f35ca       ___sbh_free_block          004f45ca f   LIBCMT:sbheap.obj
 0001:000f38e0       ___sbh_alloc_new_region    004f48e0 f   LIBCMT:sbheap.obj
 0001:000f3990       ___sbh_alloc_new_group     004f4990 f   LIBCMT:sbheap.obj
 0001:000f3a98       ___sbh_resize_block        004f4a98 f   LIBCMT:sbheap.obj
 0001:000f3d79       ___sbh_heapmin             004f4d79 f   LIBCMT:sbheap.obj
 0001:000f3e46       ___sbh_heap_check          004f4e46 f   LIBCMT:sbheap.obj
 0001:000f412a       __set_sbh_threshold        004f512a f   LIBCMT:sbheap.obj
 0001:000f41d9       ___sbh_alloc_block         004f51d9 f   LIBCMT:sbheap.obj
 0001:000f44be       __vswprintf_helper         004f54be f   LIBCMT:vswprnc.obj
 0001:000f45b6       __vswprintf_c              004f55b6 f   LIBCMT:vswprnc.obj
 0001:000f45df       __vswprintf_c_l            004f55df f   LIBCMT:vswprnc.obj
 0001:000f4609       __vswprintf_s_l            004f5609 f   LIBCMT:vswprnc.obj
 0001:000f4694       _vswprintf_s               004f5694 f   LIBCMT:vswprnc.obj
 0001:000f46b1       __vsnwprintf_s_l           004f56b1 f   LIBCMT:vswprnc.obj
 0001:000f47bd       __vsnwprintf_s             004f57bd f   LIBCMT:vswprnc.obj
 0001:000f47dd       __vswprintf_p              004f57dd f   LIBCMT:vswprnc.obj
 0001:000f4806       __vswprintf_p_l            004f5806 f   LIBCMT:vswprnc.obj
 0001:000f4830       _fwprintf                  004f5830 f   LIBCMT:fwprintf.obj
 0001:000f48c4       __fwprintf_l               004f58c4 f   LIBCMT:fwprintf.obj
 0001:000f48e0       __fwprintf_s_l             004f58e0 f   LIBCMT:fwprintf.obj
 0001:000f48fc       _fwprintf_s                004f58fc f   LIBCMT:fwprintf.obj
 0001:000f4917       __fwprintf_p_l             004f5917 f   LIBCMT:fwprintf.obj
 0001:000f4933       __fwprintf_p               004f5933 f   LIBCMT:fwprintf.obj
 0001:000f494e       _setvbuf                   004f594e f   LIBCMT:setvbuf.obj
 0001:000f4a4c       _abort                     004f5a4c f   LIBCMT:abort.obj
 0001:000f4b63       __set_abort_behavior       004f5b63 f   LIBCMT:abort.obj
 0001:000f4b84       ___crtMessageBoxW          004f5b84 f   LIBCMT:crtmboxw.obj
 0001:000f4de3       __itow_s                   004f5de3 f   LIBCMT:xtows.obj
 0001:000f4e0f       __ltow_s                   004f5e0f f   LIBCMT:xtows.obj
 0001:000f4e36       __ultow_s                  004f5e36 f   LIBCMT:xtows.obj
 0001:000f4f56       __i64tow_s                 004f5f56 f   LIBCMT:xtows.obj
 0001:000f4f8b       __ui64tow_s                004f5f8b f   LIBCMT:xtows.obj
 0001:000f4faa       _wcsncat_s                 004f5faa f   LIBCMT:wcsncat_s.obj
 0001:000f5098       _wcsncpy_s                 004f6098 f   LIBCMT:wcsncpy_s.obj
 0001:000f516b       _wcslen                    004f616b f   LIBCMT:wcslen.obj
 0001:000f5185       _wcscat_s                  004f6185 f   LIBCMT:wcscat_s.obj
 0001:000f5202       _wcscpy_s                  004f6202 f   LIBCMT:wcscpy_s.obj
 0001:000f5271       __set_error_mode           004f6271 f   LIBCMT:errmode.obj
 0001:000f52bc       ___set_app_type            004f62bc f   LIBCMT:errmode.obj
 0001:000f52cb       ___get_app_type            004f62cb f   LIBCMT:errmode.obj
 0001:000f52d1       __ceil_default             004f62d1 f   LIBCMT:_ceil_.obj
 0001:000f53a6       __fltin2                   004f63a6 f   LIBCMT:_cfin_.obj
 0001:000f544d       ___addl                    004f644d f i LIBCMT:_strgtold_.obj
 0001:000f5471       ___shl_12                  004f6471 f i LIBCMT:_strgtold_.obj
 0001:000f54a4       ___shr_12                  004f64a4 f i LIBCMT:_strgtold_.obj
 0001:000f54d6       ___ld12mul                 004f64d6 f i LIBCMT:_strgtold_.obj
 0001:000f5751       ___multtenpow12            004f6751 f i LIBCMT:_strgtold_.obj
 0001:000f5a56       ___strgtold12_l            004f6a56 f   LIBCMT:_strgtold_.obj
 0001:000f614e       ___STRINGTOLD_L            004f714e f   LIBCMT:_strgtold_.obj
 0001:000f61a9       __calloc_impl              004f71a9 f   LIBCMT:calloc_impl.obj
 0001:000f62d0       __CIpow_pentium4           004f72d0 f   LIBCMT:_pow_pentium4_.obj
 0001:000f62e9       __pow_pentium4             004f72e9     LIBCMT:_pow_pentium4_.obj
 0001:000f6e41       __fFEXP                    004f7e41     LIBCMT:_87tran_.obj
 0001:000f6ea8       __rtinfpopse               004f7ea8     LIBCMT:_87tran_.obj
 0001:000f6eaa       __rtinfnpopse              004f7eaa     LIBCMT:_87tran_.obj
 0001:000f6eba       __fFLN                     004f7eba     LIBCMT:_87tran_.obj
 0001:000f6f6f       __rtinfpop                 004f7f6f     LIBCMT:_87tran_.obj
 0001:000f6f71       __rtinfnpop                004f7f71     LIBCMT:_87tran_.obj
 0001:000f6f8e       __ffexpm1                  004f7f8e     LIBCMT:_87tran_.obj
 0001:000f7040       __trandisp1                004f8040 f   LIBCMT:_87disp_.obj
 0001:000f70a7       __trandisp2                004f80a7 f   LIBCMT:_87disp_.obj
 0001:000f7133       __rttospopde               004f8133     LIBCMT:_87disp_.obj
 0001:000f7138       __rttospop                 004f8138     LIBCMT:_87disp_.obj
 0001:000f713a       __rtnospop                 004f813a     LIBCMT:_87disp_.obj
 0001:000f713c       __rttosnpop                004f813c     LIBCMT:_87disp_.obj
 0001:000f713d       __rtnospopde               004f813d     LIBCMT:_87disp_.obj
 0001:000f7144       __rtzeropop                004f8144     LIBCMT:_87disp_.obj
 0001:000f7146       __rtzeronpop               004f8146     LIBCMT:_87disp_.obj
 0001:000f714b       __rtonepop                 004f814b     LIBCMT:_87disp_.obj
 0001:000f714d       __rtonenpop                004f814d     LIBCMT:_87disp_.obj
 0001:000f7152       __tosnan1                  004f8152     LIBCMT:_87disp_.obj
 0001:000f717d       __nosnan2                  004f817d     LIBCMT:_87disp_.obj
 0001:000f717f       __tosnan2                  004f817f     LIBCMT:_87disp_.obj
 0001:000f71a7       __nan2                     004f81a7     LIBCMT:_87disp_.obj
 0001:000f71e6       __rtindfpop                004f81e6     LIBCMT:_87disp_.obj
 0001:000f71e8       __rtindfnpop               004f81e8     LIBCMT:_87disp_.obj
 0001:000f71f9       __rttosnpopde              004f81f9     LIBCMT:_87disp_.obj
 0001:000f7203       __rtchsifneg               004f8203     LIBCMT:_87disp_.obj
 0001:000f7210       __startTwoArgErrorHandling 004f8210 f   LIBCMT:_genexcep_.obj
 0001:000f7227       __startOneArgErrorHandling 004f8227 f   LIBCMT:_genexcep_.obj
 0001:000f7270       __twoToTOS                 004f8270 f   LIBCMT:_common_.obj
 0001:000f7285       __load_CW                  004f8285 f   LIBCMT:_common_.obj
 0001:000f729c       __convertTOStoQNaN         004f829c f   LIBCMT:_common_.obj
 0001:000f72b5       __fload_withFB             004f82b5 f   LIBCMT:_common_.obj
 0001:000f72f8       __checkTOS_withFB          004f82f8 f   LIBCMT:_common_.obj
 0001:000f730e       __fast_exit                004f830e f   LIBCMT:_common_.obj
 0001:000f731b       __math_exit                004f831b f   LIBCMT:_common_.obj
 0001:000f7345       __check_overflow_exit      004f8345 f   LIBCMT:_common_.obj
 0001:000f7359       __check_range_exit         004f8359 f   LIBCMT:_common_.obj
 0001:000f73fc       __d_inttype                004f83fc f   LIBCMT:_powhlp_.obj
 0001:000f7462       __powhlp                   004f8462 f   LIBCMT:_powhlp_.obj
 0001:000f75a2       __set_exp                  004f85a2 f   LIBCMT:_util_.obj
 0001:000f75ce       __get_exp                  004f85ce f   LIBCMT:_util_.obj
 0001:000f75e6       __add_exp                  004f85e6 f   LIBCMT:_util_.obj
 0001:000f7613       __set_bexp                 004f8613 f   LIBCMT:_util_.obj
 0001:000f763a       __sptype                   004f863a f   LIBCMT:_util_.obj
 0001:000f769a       __decomp                   004f869a f   LIBCMT:_util_.obj
 0001:000f7753       __raise_exc_ex             004f8753 f   LIBCMT:_fpexcept_.obj
 0001:000f7a2f       __raise_exc                004f8a2f f   LIBCMT:_fpexcept_.obj
 0001:000f7a52       __raise_excf               004f8a52 f   LIBCMT:_fpexcept_.obj
 0001:000f7a75       __handle_exc               004f8a75 f   LIBCMT:_fpexcept_.obj
 0001:000f7c57       __set_errno_from_matherr   004f8c57 f   LIBCMT:_fpexcept_.obj
 0001:000f7caa       __errcode                  004f8caa f   LIBCMT:_fpexcept_.obj
 0001:000f7cde       __umatherr                 004f8cde f   LIBCMT:_fpexcept_.obj
 0001:000f7d7e       __handle_qnan1             004f8d7e f   LIBCMT:_fpexcept_.obj
 0001:000f7dd3       __handle_qnan2             004f8dd3 f   LIBCMT:_fpexcept_.obj
 0001:000f7e34       __except1                  004f8e34 f   LIBCMT:_fpexcept_.obj
 0001:000f7efd       __except2                  004f8efd f   LIBCMT:_fpexcept_.obj
 0001:000f7fd5       __statfp                   004f8fd5 f   LIBCMT:_fpctrl_.obj
 0001:000f7fe5       __clrfp                    004f8fe5 f   LIBCMT:_fpctrl_.obj
 0001:000f7ff6       __ctrlfp                   004f8ff6 f   LIBCMT:_fpctrl_.obj
 0001:000f801f       __set_statfp               004f901f f   LIBCMT:_fpctrl_.obj
 0001:000f8077       ___get_fpsr_sse2           004f9077 f   LIBCMT:_fpctrl_.obj
 0001:000f8095       ___set_fpsr_sse2           004f9095 f   LIBCMT:_fpctrl_.obj
 0001:000f8107       ___fclrf_sse2              004f9107 f   LIBCMT:_fpctrl_.obj
 0001:000f8124       ___statfp_sse2             004f9124 f   LIBCMT:_fpctrl_.obj
 0001:000f8137       ___clrfp_sse2              004f9137 f   LIBCMT:_fpctrl_.obj
 0001:000f814f       ___ctrlfp_sse2             004f914f f   LIBCMT:_fpctrl_.obj
 0001:000f8186       ___set_statfp_sse2         004f9186 f   LIBCMT:_fpctrl_.obj
 0001:000f81b0       __CIlog_pentium4           004f91b0 f   LIBCMT:_log_pentium4_.obj
 0001:000f81c8       __log_pentium4             004f91c8     LIBCMT:_log_pentium4_.obj
 0001:000f8420       __spawnvpe                 004f9420 f   LIBCMT:spawnvpe.obj
 0001:000f8712       __spawnve                  004f9712 f   LIBCMT:spawnve.obj
 0001:000f8933       __getenv_helper_nolock     004f9933 f   LIBCMT:getenv.obj
 0001:000f8af3       _getenv                    004f9af3 f   LIBCMT:getenv.obj
 0001:000f8b76       _getenv_s                  004f9b76 f   LIBCMT:getenv.obj
 0001:000f8c4e       __dupenv_s                 004f9c4e f   LIBCMT:getenv.obj
 0001:000f8d40       __CIlog10_pentium4         004f9d40 f   LIBCMT:_log10_pentium4_.obj
 0001:000f8d58       __log10_pentium4           004f9d58     LIBCMT:_log10_pentium4_.obj
 0001:000f8fec       __fFATN2                   004f9fec     LIBCMT:_87triga_.obj
 0001:000f903c       __rtpiby2                  004fa03c     LIBCMT:_87triga_.obj
 0001:000f9080       __cintrindisp2             004fa080 f   LIBCMT:_87cdisp_.obj
 0001:000f90be       __cintrindisp1             004fa0be f   LIBCMT:_87cdisp_.obj
 0001:000f90fb       __ctrandisp2               004fa0fb f   LIBCMT:_87cdisp_.obj
 0001:000f9291       __ctrandisp1               004fa291 f   LIBCMT:_87cdisp_.obj
 0001:000f92c4       __fload                    004fa2c4 f   LIBCMT:_87cdisp_.obj
 0001:000f9300       __CIcos_pentium4           004fa300 f   LIBCMT:_cos_pentium4_.obj
 0001:000f9318       __cos_pentium4             004fa318     LIBCMT:_cos_pentium4_.obj
 0001:000f94b0       __CIsin_pentium4           004fa4b0 f   LIBCMT:_sin_pentium4_.obj
 0001:000f94c8       __sin_pentium4             004fa4c8     LIBCMT:_sin_pentium4_.obj
 0001:000f9680       __CIacos_pentium4          004fa680 f   LIBCMT:_acos_pentium4_.obj
 0001:000f9698       __acos_pentium4            004fa698     LIBCMT:_acos_pentium4_.obj
 0001:000f9bd4       __copysign                 004fabd4 f   LIBCMT:_ieeemisc_.obj
 0001:000f9bfc       __chgsign                  004fabfc f   LIBCMT:_ieeemisc_.obj
 0001:000f9c29       __scalb                    004fac29 f   LIBCMT:_ieeemisc_.obj
 0001:000f9c43       __logb                     004fac43 f   LIBCMT:_ieeemisc_.obj
 0001:000f9d2c       __nextafter                004fad2c f   LIBCMT:_ieeemisc_.obj
 0001:000f9fd4       __finite                   004fafd4 f   LIBCMT:_ieeemisc_.obj
 0001:000f9ff0       __isnan                    004faff0 f   LIBCMT:_ieeemisc_.obj
 0001:000fa024       __fpclass                  004fb024 f   LIBCMT:_ieeemisc_.obj
 0001:000fa0b8       __get_daylight             004fb0b8 f   LIBCMT:timeset.obj
 0001:000fa0f1       __get_dstbias              004fb0f1 f   LIBCMT:timeset.obj
 0001:000fa12a       __get_timezone             004fb12a f   LIBCMT:timeset.obj
 0001:000fa163       __get_tzname               004fb163 f   LIBCMT:timeset.obj
 0001:000fa207       ___daylight                004fb207 f   LIBCMT:timeset.obj
 0001:000fa20d       ___dstbias                 004fb20d f   LIBCMT:timeset.obj
 0001:000fa213       ___timezone                004fb213 f   LIBCMT:timeset.obj
 0001:000fa219       ___tzname                  004fb219 f   LIBCMT:timeset.obj
 0001:000fa21f       __set_daylight             004fb21f f i LIBCMT:tzset.obj
 0001:000fa230       __set_dstbias              004fb230 f i LIBCMT:tzset.obj
 0001:000fa241       __set_timezone             004fb241 f i LIBCMT:tzset.obj
 0001:000fa967       ___tzset                   004fb967 f   LIBCMT:tzset.obj
 0001:000fa9b6       __tzset                    004fb9b6 f   LIBCMT:tzset.obj
 0001:000fa9ee       __isindst                  004fb9ee f   LIBCMT:tzset.obj
 0001:000faa30       __aullrem                  004fba30 f   LIBCMT:ullrem.obj
 0001:000faab0       __aulldiv                  004fbab0 f   LIBCMT:ulldiv.obj
 0001:000fab18       __getbuf                   004fbb18 f   LIBCMT:_getbuf.obj
 0001:000fabb8       __INTRN_LOCALE_CONV        004fbbb8 f i LIBCMT:input.obj
 0001:000fac3d       __input_l                  004fbc3d f   LIBCMT:input.obj
 0001:000fbcc4       __input_s_l                004fccc4 f   LIBCMT:inputs.obj
 0001:000fcde8       ?__CxxUnhandledExceptionFilter@@YGJPAU_EXCEPTION_POINTERS@@@Z 004fdde8 f   LIBCMT:unhandld.obj
 0001:000fce2a       ___CxxSetUnhandledExceptionFilter 004fde2a f   LIBCMT:unhandld.obj
 0001:000fce38       __setenvp                  004fde38 f   LIBCMT:stdenvp.obj
 0001:000fcf16       __set_pgmptr               004fdf16 f i LIBCMT:stdargv.obj
 0001:000fd0bf       __setargv                  004fe0bf f   LIBCMT:stdargv.obj
 0001:000fd17a       ___crtGetEnvironmentStringsA 004fe17a f   LIBCMT:a_env.obj
 0001:000fd2b1       ___security_init_cookie    004fe2b1 f   LIBCMT:gs_support.obj
 0001:000fd347       ___loctotime32_t           004fe347 f   LIBCMT:dtoxtime.obj
 0001:000fd550       _strpbrk                   004fe550 f   LIBCMT:strpbrk.obj
 0001:000fd590       ??0Block@HeapManager@@QAE@XZ 004fe590 f i LIBCMT:undname.obj
 0001:000fd596       ?Constructor@HeapManager@@QAEXP6APAXI@ZP6AXPAX@Z@Z 004fe596 f i LIBCMT:undname.obj
 0001:000fd5b5       ?Destructor@HeapManager@@QAEXXZ 004fe5b5 f i LIBCMT:undname.obj
 0001:000fd5dd       ?getNumberOfDimensions@UnDecorator@@CAHXZ 004fe5dd f   LIBCMT:undname.obj
 0001:000fd640       ?getTypeEncoding@UnDecorator@@CAHXZ 004fe640 f i LIBCMT:undname.obj
 0001:000fdb2c       ?doUnderScore@UnDecorator@@SAHXZ 004feb2c f i LIBCMT:undname.obj
 0001:000fdb37       ?doMSKeywords@UnDecorator@@SAHXZ 004feb37 f i LIBCMT:undname.obj
 0001:000fdb44       ?doPtr64@UnDecorator@@SAHXZ 004feb44 f i LIBCMT:undname.obj
 0001:000fdb52       ?doFunctionReturns@UnDecorator@@SAHXZ 004feb52 f i LIBCMT:undname.obj
 0001:000fdb60       ?doAllocationModel@UnDecorator@@SAHXZ 004feb60 f i LIBCMT:undname.obj
 0001:000fdb6e       ?doAllocationLanguage@UnDecorator@@SAHXZ 004feb6e f i LIBCMT:undname.obj
 0001:000fdb7c       ?doThisTypes@UnDecorator@@SAHXZ 004feb7c f i LIBCMT:undname.obj
 0001:000fdb8e       ?doAccessSpecifiers@UnDecorator@@SAHXZ 004feb8e f i LIBCMT:undname.obj
 0001:000fdb9c       ?doThrowTypes@UnDecorator@@SAHXZ 004feb9c f i LIBCMT:undname.obj
 0001:000fdbaa       ?doMemberTypes@UnDecorator@@SAHXZ 004febaa f i LIBCMT:undname.obj
 0001:000fdbb8       ?doNameOnly@UnDecorator@@SAHXZ 004febb8 f i LIBCMT:undname.obj
 0001:000fdbc3       ?doTypeOnly@UnDecorator@@SAHXZ 004febc3 f i LIBCMT:undname.obj
 0001:000fdbce       ?haveTemplateParameters@UnDecorator@@SAHXZ 004febce f i LIBCMT:undname.obj
 0001:000fdbd9       ?doEcsu@UnDecorator@@SAHXZ 004febd9 f i LIBCMT:undname.obj
 0001:000fdbe7       ?doNoIdentCharCheck@UnDecorator@@SAHXZ 004febe7 f i LIBCMT:undname.obj
 0001:000fdbf2       ?doEllipsis@UnDecorator@@SAHXZ 004febf2 f i LIBCMT:undname.obj
 0001:000fdc00       ?UScore@UnDecorator@@SAPBDW4Tokens@@@Z 004fec00 f   LIBCMT:undname.obj
 0001:000fdc1e       ?getMemory@HeapManager@@QAEPAXIH@Z 004fec1e f   LIBCMT:undname.obj
 0001:000fdca6       ??0DName@@QAE@XZ           004feca6 f i LIBCMT:undname.obj
 0001:000fdcb7       ??0DName@@QAE@ABV0@@Z      004fecb7 f i LIBCMT:undname.obj
 0001:000fdccf       ?isValid@DName@@QBEHXZ     004feccf f i LIBCMT:undname.obj
 0001:000fdcd9       ?isEmpty@DName@@QBEHXZ     004fecd9 f i LIBCMT:undname.obj
 0001:000fdce1       ?status@DName@@QBE?AW4DNameStatus@@XZ 004fece1 f i LIBCMT:undname.obj
 0001:000fdce6       ?setPtrRef@DName@@QAEAAV1@XZ 004fece6 f i LIBCMT:undname.obj
 0001:000fdcf0       ?isPtrRef@DName@@QBEHXZ    004fecf0 f i LIBCMT:undname.obj
 0001:000fdcfa       ?isUDC@DName@@QBEHXZ       004fecfa f i LIBCMT:undname.obj
 0001:000fdd0b       ?setIsUDC@DName@@QAEXXZ    004fed0b f i LIBCMT:undname.obj
 0001:000fdd18       ?isUDTThunk@DName@@QBEHXZ  004fed18 f i LIBCMT:undname.obj
 0001:000fdd29       ?setIsArray@DName@@QAEXXZ  004fed29 f i LIBCMT:undname.obj
 0001:000fdd31       ?isArray@DName@@QBEHXZ     004fed31 f i LIBCMT:undname.obj
 0001:000fdd3b       ?isNoTE@DName@@QBEHXZ      004fed3b f i LIBCMT:undname.obj
 0001:000fdd45       ?setIsNoTE@DName@@QAEXXZ   004fed45 f i LIBCMT:undname.obj
 0001:000fdd4d       ?isPinPtr@DName@@QBEHXZ    004fed4d f i LIBCMT:undname.obj
 0001:000fdd57       ?setIsPinPtr@DName@@QAEXXZ 004fed57 f i LIBCMT:undname.obj
 0001:000fdd5f       ?isComArray@DName@@QBEHXZ  004fed5f f i LIBCMT:undname.obj
 0001:000fdd69       ?setIsComArray@DName@@QAEXXZ 004fed69 f i LIBCMT:undname.obj
 0001:000fdd71       ?isVCallThunk@DName@@QBEHXZ 004fed71 f i LIBCMT:undname.obj
 0001:000fdd7b       ?setIsVCallThunk@DName@@QAEXXZ 004fed7b f i LIBCMT:undname.obj
 0001:000fdd83       ?length@DName@@QBEHXZ      004fed83 f i LIBCMT:undname.obj
 0001:000fdd90       ?getLastChar@DName@@QBEDXZ 004fed90 f i LIBCMT:undname.obj
 0001:000fdd9e       ?getString@DName@@QBEPADPAD0@Z 004fed9e f i LIBCMT:undname.obj
 0001:000fddb6       ??_5DName@@QAEAAV0@ABV0@@Z 004fedb6 f   LIBCMT:undname.obj
 0001:000fddd5       ??4DName@@QAEAAV0@ABV0@@Z  004fedd5 f   LIBCMT:undname.obj
 0001:000fdded       ?isFull@Replicator@@QBEHXZ 004feded f i LIBCMT:undname.obj
 0001:000fddf6       ??0Replicator@@QAE@XZ      004fedf6 f i LIBCMT:undname.obj
 0001:000fddfc       ??0DNameNode@@IAE@XZ       004fedfc f   LIBCMT:undname.obj
 0001:000fde05       ??0charNode@@QAE@D@Z       004fee05 f   LIBCMT:undname.obj
 0001:000fde1c       ?length@charNode@@UBEHXZ   004fee1c f i LIBCMT:undname.obj
 0001:000fde20       ?getLastChar@charNode@@UBEDXZ 004fee20 f i LIBCMT:undname.obj
 0001:000fde24       ?getString@charNode@@UBEPADPAD0@Z 004fee24 f i LIBCMT:undname.obj
 0001:000fde3b       ??0pDNameNode@@QAE@PAVDName@@@Z 004fee3b f   LIBCMT:undname.obj
 0001:000fde65       ?length@pDNameNode@@UBEHXZ 004fee65 f i LIBCMT:undname.obj
 0001:000fde7b       ?getLastChar@pDNameNode@@UBEDXZ 004fee7b f i LIBCMT:undname.obj
 0001:000fde92       ?getString@pDNameNode@@UBEPADPAD0@Z 004fee92 f i LIBCMT:undname.obj
 0001:000fdeab       ??0DNameStatusNode@@AAE@W4DNameStatus@@@Z 004feeab f   LIBCMT:undname.obj
 0001:000fded0       ?length@DNameStatusNode@@UBEHXZ 004feed0 f i LIBCMT:undname.obj
 0001:000fded4       ?getLastChar@DNameStatusNode@@UBEDXZ 004feed4 f i LIBCMT:undname.obj
 0001:000fdee0       ?make@DNameStatusNode@@SAPAV1@W4DNameStatus@@@Z 004feee0 f i LIBCMT:undname.obj
 0001:000fdf66       ??0pairNode@@QAE@PAVDNameNode@@0@Z 004fef66 f   LIBCMT:undname.obj
 0001:000fdf87       ?length@pairNode@@UBEHXZ   004fef87 f i LIBCMT:undname.obj
 0001:000fdfb2       ?getLastChar@pairNode@@UBEDXZ 004fefb2 f i LIBCMT:undname.obj
 0001:000fdfce       ?getString@pairNode@@UBEPADPAD0@Z 004fefce f i LIBCMT:undname.obj
 0001:000fe048       ??0UnDecorator@@QAE@PADPBDHP6APADJ@ZK@Z 004ff048 f i LIBCMT:undname.obj
 0001:000fe0b7       ?getDataIndirectType@UnDecorator@@CA?AVDName@@XZ 004ff0b7 f i LIBCMT:undname.obj
 0001:000fe0ec       ?getThisType@UnDecorator@@CA?AVDName@@XZ 004ff0ec f i LIBCMT:undname.obj
 0001:000fe122       ??2@YAPAXIAAVHeapManager@@H@Z 004ff122 f i LIBCMT:undname.obj
 0001:000fe139       ?getStringHelper@@YAPADPAD00H@Z 004ff139 f i LIBCMT:undname.obj
 0001:000fe170       ??0DName@@QAE@PAV0@@Z      004ff170 f   LIBCMT:undname.obj
 0001:000fe1c3       ??0DName@@QAE@W4DNameStatus@@@Z 004ff1c3 f   LIBCMT:undname.obj
 0001:000fe208       ?getString@DName@@QBEPADPADH@Z 004ff208 f i LIBCMT:undname.obj
 0001:000fe260       ?append@DName@@AAEXPAVDNameNode@@@Z 004ff260 f   LIBCMT:undname.obj
 0001:000fe29f       ??4DName@@QAEAAV0@PAV0@@Z  004ff29f f   LIBCMT:undname.obj
 0001:000fe2ec       ??4DName@@QAEAAV0@W4DNameStatus@@@Z 004ff2ec f   LIBCMT:undname.obj
 0001:000fe323       ??YReplicator@@QAEAAV0@ABVDName@@@Z 004ff323 f   LIBCMT:undname.obj
 0001:000fe36d       ??AReplicator@@QBE?AVDName@@H@Z 004ff36d f   LIBCMT:undname.obj
 0001:000fe3ad       ??0pcharNode@@QAE@PBDH@Z   004ff3ad f   LIBCMT:undname.obj
 0001:000fe404       ?length@pcharNode@@UBEHXZ  004ff404 f i LIBCMT:undname.obj
 0001:000fe408       ?getLastChar@pcharNode@@UBEDXZ 004ff408 f i LIBCMT:undname.obj
 0001:000fe41a       ?getString@pcharNode@@UBEPADPAD0@Z 004ff41a f i LIBCMT:undname.obj
 0001:000fe437       ?getString@DNameStatusNode@@UBEPADPAD0@Z 004ff437 f i LIBCMT:undname.obj
 0001:000fe460       ?getReturnType@UnDecorator@@CA?AVDName@@PAV2@@Z 004ff460 f   LIBCMT:undname.obj
 0001:000fe491       ?getStorageConvention@UnDecorator@@CA?AVDName@@XZ 004ff491 f i LIBCMT:undname.obj
 0001:000fe4a4       ??YDName@@QAEAAV0@W4DNameStatus@@@Z 004ff4a4 f   LIBCMT:undname.obj
 0001:000fe4e6       ?doPchar@DName@@AAEXPBDH@Z 004ff4e6 f   LIBCMT:undname.obj
 0001:000fe562       ??0DName@@QAE@D@Z          004ff562 f   LIBCMT:undname.obj
 0001:000fe58f       ??0DName@@QAE@PBD@Z        004ff58f f   LIBCMT:undname.obj
 0001:000fe5c8       ??0DName@@QAE@AAPBDD@Z     004ff5c8 f   LIBCMT:undname.obj
 0001:000fe687       ??0DName@@QAE@_K@Z         004ff687 f   LIBCMT:undname.obj
 0001:000fe6f5       ??0DName@@QAE@_J@Z         004ff6f5 f   LIBCMT:undname.obj
 0001:000fe790       ??HDName@@QBE?AV0@W4DNameStatus@@@Z 004ff790 f   LIBCMT:undname.obj
 0001:000fe7b4       ??YDName@@QAEAAV0@ABV0@@Z  004ff7b4 f   LIBCMT:undname.obj
 0001:000fe7f7       ??YDName@@QAEAAV0@PAV0@@Z  004ff7f7 f   LIBCMT:undname.obj
 0001:000fe85e       ??4DName@@QAEAAV0@D@Z      004ff85e f i LIBCMT:undname.obj
 0001:000fe88b       ??4DName@@QAEAAV0@PBD@Z    004ff88b f   LIBCMT:undname.obj
 0001:000fe8c0       ?getCallingConvention@UnDecorator@@CA?AVDName@@XZ 004ff8c0 f   LIBCMT:undname.obj
 0001:000fe96a       ?getVCallThunkType@UnDecorator@@CA?AVDName@@XZ 004ff96a f i LIBCMT:undname.obj
 0001:000fe9a3       ??HDName@@QBE?AV0@ABV0@@Z  004ff9a3 f   LIBCMT:undname.obj
 0001:000fe9c7       ??HDName@@QBE?AV0@PAV0@@Z  004ff9c7 f   LIBCMT:undname.obj
 0001:000fe9eb       ??YDName@@QAEAAV0@D@Z      004ff9eb f   LIBCMT:undname.obj
 0001:000fea3d       ??YDName@@QAEAAV0@PBD@Z    004ffa3d f   LIBCMT:undname.obj
 0001:000feaa1       ?getArgumentList@UnDecorator@@CA?AVDName@@XZ 004ffaa1 f   LIBCMT:undname.obj
 0001:000feba3       ?getVdispMapType@UnDecorator@@CA?AVDName@@ABV2@@Z 004ffba3 f i LIBCMT:undname.obj
 0001:000febf7       ??H@YA?AVDName@@DABV0@@Z   004ffbf7 f i LIBCMT:undname.obj
 0001:000fec1b       ??H@YA?AVDName@@W4DNameStatus@@ABV0@@Z 004ffc1b f i LIBCMT:undname.obj
 0001:000fec3f       ??H@YA?AVDName@@PBDABV0@@Z 004ffc3f f i LIBCMT:undname.obj
 0001:000fec63       ??HDName@@QBE?AV0@D@Z      004ffc63 f   LIBCMT:undname.obj
 0001:000fec87       ??HDName@@QBE?AV0@PBD@Z    004ffc87 f   LIBCMT:undname.obj
 0001:000fecab       ?getDimension@UnDecorator@@CA?AVDName@@_N@Z 004ffcab f   LIBCMT:undname.obj
 0001:000fedfd       ?getEnumType@UnDecorator@@CA?AVDName@@XZ 004ffdfd f i LIBCMT:undname.obj
 0001:000feed1       ?getArgumentTypes@UnDecorator@@CA?AVDName@@XZ 004ffed1 f   LIBCMT:undname.obj
 0001:000fefad       ?getThrowTypes@UnDecorator@@CA?AVDName@@XZ 004fffad f   LIBCMT:undname.obj
 0001:000ff02c       ?getExtendedDataIndirectType@UnDecorator@@CA?AVDName@@AADAA_NH@Z 0050002c f   LIBCMT:undname.obj
 0001:000ff1a9       ?getArrayType@UnDecorator@@CA?AVDName@@ABV2@@Z 005001a9 f i LIBCMT:undname.obj
 0001:000ff323       ?getLexicalFrame@UnDecorator@@CA?AVDName@@XZ 00500323 f i LIBCMT:undname.obj
 0001:000ff356       ?getDisplacement@UnDecorator@@CA?AVDName@@XZ 00500356 f i LIBCMT:undname.obj
 0001:000ff36c       ?getCallIndex@UnDecorator@@CA?AVDName@@XZ 0050036c f i LIBCMT:undname.obj
 0001:000ff382       ?getGuardNumber@UnDecorator@@CA?AVDName@@XZ 00500382 f i LIBCMT:undname.obj
 0001:000ff398       ?getVfTableType@UnDecorator@@CA?AVDName@@ABV2@@Z 00500398 f i LIBCMT:undname.obj
 0001:000ff4cf       ?getStringEncoding@UnDecorator@@CA?AVDName@@PADH@Z 005004cf f   LIBCMT:undname.obj
 0001:000ff573       ?getSignedDimension@UnDecorator@@CA?AVDName@@XZ 00500573 f   LIBCMT:undname.obj
 0001:000ff5c5       ?getTemplateConstant@UnDecorator@@CA?AVDName@@XZ 005005c5 f   LIBCMT:undname.obj
 0001:000ff892       ?getPtrRefDataType@UnDecorator@@CA?AVDName@@ABV2@H@Z 00500892 f i LIBCMT:undname.obj
 0001:000ff970       ?getVbTableType@UnDecorator@@CA?AVDName@@ABV2@@Z 00500970 f i LIBCMT:undname.obj
 0001:000ff987       ?getTemplateArgumentList@UnDecorator@@CA?AVDName@@XZ 00500987 f   LIBCMT:undname.obj
 0001:000ffb4b       ?getOperatorName@UnDecorator@@CA?AVDName@@_NPA_N@Z 00500b4b f i LIBCMT:undname.obj
 0001:001000e8       ?getTemplateName@UnDecorator@@CA?AVDName@@_N@Z 005010e8 f   LIBCMT:undname.obj
 0001:0010022f       ?getZName@UnDecorator@@CA?AVDName@@_N0@Z 0050122f f   LIBCMT:undname.obj
 0001:00100425       ?getScopedName@UnDecorator@@CA?AVDName@@XZ 00501425 f   LIBCMT:undname.obj
 0001:001004f6       ?getECSUName@UnDecorator@@CA?AVDName@@XZ 005014f6 f i LIBCMT:undname.obj
 0001:00100509       ?getECSUDataType@UnDecorator@@CA?AVDName@@XZ 00501509 f   LIBCMT:undname.obj
 0001:00100610       ?getSymbolName@UnDecorator@@CA?AVDName@@XZ 00501610 f i LIBCMT:undname.obj
 0001:0010065a       ?getBasedType@UnDecorator@@CA?AVDName@@XZ 0050165a f   LIBCMT:undname.obj
 0001:001006f2       ?composeDeclaration@UnDecorator@@CA?AVDName@@ABV2@@Z 005016f2 f i LIBCMT:undname.obj
 0001:0010128d       ?getDecoratedName@UnDecorator@@CA?AVDName@@XZ 0050228d f   LIBCMT:undname.obj
 0001:001014a5       ?getScope@UnDecorator@@CA?AVDName@@XZ 005024a5 f   LIBCMT:undname.obj
 0001:00101715       ?getFunctionIndirectType@UnDecorator@@CA?AVDName@@ABV2@@Z 00502715 f   LIBCMT:undname.obj
 0001:00101a69       ?getDataIndirectType@UnDecorator@@CA?AVDName@@ABV2@D0H@Z 00502a69 f   LIBCMT:undname.obj
 0001:00101f30       ??BUnDecorator@@QAEPADXZ   00502f30 f i LIBCMT:undname.obj
 0001:00102061       ?getPtrRefType@UnDecorator@@CA?AVDName@@ABV2@0D@Z 00503061 f   LIBCMT:undname.obj
 0001:0010215a       ?getPointerType@UnDecorator@@CA?AVDName@@ABV2@0@Z 0050315a f i LIBCMT:undname.obj
 0001:00102177       ?getPointerTypeArray@UnDecorator@@CA?AVDName@@ABV2@0@Z 00503177 f i LIBCMT:undname.obj
 0001:00102194       ?getReferenceType@UnDecorator@@CA?AVDName@@ABV2@0@Z 00503194 f i LIBCMT:undname.obj
 0001:001021b1       ___unDName                 005031b1 f   LIBCMT:undname.obj
 0001:0010224b       ___unDNameEx               0050324b f   LIBCMT:undname.obj
 0001:001022e5       ?getBasicDataType@UnDecorator@@CA?AVDName@@ABV2@@Z 005032e5 f   LIBCMT:undname.obj
 0001:0010269c       ?getPrimaryDataType@UnDecorator@@CA?AVDName@@ABV2@@Z 0050369c f   LIBCMT:undname.obj
 0001:001027d4       ?getDataType@UnDecorator@@CA?AVDName@@PAV2@@Z 005037d4 f   LIBCMT:undname.obj
 0001:00102894       ?getExternalDataType@UnDecorator@@CA?AVDName@@ABV2@@Z 00503894 f i LIBCMT:undname.obj
 0001:00102902       __isatty                   00503902 f   LIBCMT:isatty.obj
 0001:00102966       __wctomb_s_l               00503966 f   LIBCMT:wctomb.obj
 0001:00102ad2       _wctomb_s                  00503ad2 f   LIBCMT:wctomb.obj
 0001:00102aef       __wctomb_l                 00503aef f   LIBCMT:wctomb.obj
 0001:00102b40       _wctomb                    00503b40 f   LIBCMT:wctomb.obj
 0001:00102b80       __aulldvrm                 00503b80 f   LIBCMT:ulldvrm.obj
 0001:00102c15       __putwch_nolock            00503c15 f   LIBCMT:putwch.obj
 0001:00102cda       __cputws                   00503cda f   LIBCMT:putwch.obj
 0001:00102d79       __putwch                   00503d79 f   LIBCMT:putwch.obj
 0001:00102dbf       __mbtowc_l                 00503dbf f   LIBCMT:mbtowc.obj
 0001:00102ed6       _mbtowc                    00503ed6 f   LIBCMT:mbtowc.obj
 0001:00102ef0       __lseeki64_nolock          00503ef0 f   LIBCMT:lseeki64.obj
 0001:00102f75       __lseeki64                 00503f75 f   LIBCMT:lseeki64.obj
 0001:0010308e       __set_osfhnd               0050408e f   LIBCMT:osfinfo.obj
 0001:0010310f       __free_osfhnd              0050410f f   LIBCMT:osfinfo.obj
 0001:00103195       __get_osfhandle            00504195 f   LIBCMT:osfinfo.obj
 0001:0010320c       ___lock_fhandle            0050420c f   LIBCMT:osfinfo.obj
 0001:001032ac       __unlock_fhandle           005042ac f   LIBCMT:osfinfo.obj
 0001:001032d3       __alloc_osfhnd             005042d3 f   LIBCMT:osfinfo.obj
 0001:0010346d       __open_osfhandle           0050446d f   LIBCMT:osfinfo.obj
 0001:00103583       __recalloc                 00504583 f   LIBCMT:recalloc.obj
 0001:001035fe       ___crtMessageBoxA          005045fe f   LIBCMT:crtmbox.obj
 0001:00103767       __fptrap                   00504767 f   LIBCMT:crt0fp.obj
 0001:00103770       __isalpha_l                00504770 f i LIBCMT:_ctype.obj
 0001:001037c6       _isalpha                   005047c6 f i LIBCMT:_ctype.obj
 0001:001037f6       __isupper_l                005047f6 f i LIBCMT:_ctype.obj
 0001:00103847       _isupper                   00504847 f i LIBCMT:_ctype.obj
 0001:00103875       __islower_l                00504875 f i LIBCMT:_ctype.obj
 0001:001038c6       _islower                   005048c6 f i LIBCMT:_ctype.obj
 0001:001038f4       __isdigit_l                005048f4 f i LIBCMT:_ctype.obj
 0001:00103945       _isdigit                   00504945 f i LIBCMT:_ctype.obj
 0001:00103973       __isxdigit_l               00504973 f i LIBCMT:_ctype.obj
 0001:001039c9       _isxdigit                  005049c9 f i LIBCMT:_ctype.obj
 0001:001039f9       __isspace_l                005049f9 f i LIBCMT:_ctype.obj
 0001:00103a4a       _isspace                   00504a4a f i LIBCMT:_ctype.obj
 0001:00103a78       __ispunct_l                00504a78 f i LIBCMT:_ctype.obj
 0001:00103ac9       _ispunct                   00504ac9 f i LIBCMT:_ctype.obj
 0001:00103af7       __isalnum_l                00504af7 f i LIBCMT:_ctype.obj
 0001:00103b4d       _isalnum                   00504b4d f i LIBCMT:_ctype.obj
 0001:00103b7d       __isprint_l                00504b7d f i LIBCMT:_ctype.obj
 0001:00103bd3       _isprint                   00504bd3 f i LIBCMT:_ctype.obj
 0001:00103c03       __isgraph_l                00504c03 f i LIBCMT:_ctype.obj
 0001:00103c59       _isgraph                   00504c59 f i LIBCMT:_ctype.obj
 0001:00103c89       __iscntrl_l                00504c89 f i LIBCMT:_ctype.obj
 0001:00103cda       _iscntrl                   00504cda f i LIBCMT:_ctype.obj
 0001:00103d08       ___isascii                 00504d08 f i LIBCMT:_ctype.obj
 0001:00103d1a       ___toascii                 00504d1a f i LIBCMT:_ctype.obj
 0001:00103d27       __iscsymf_l                00504d27 f i LIBCMT:_ctype.obj
 0001:00103d4a       ___iscsymf                 00504d4a f i LIBCMT:_ctype.obj
 0001:00103d69       __iscsym_l                 00504d69 f i LIBCMT:_ctype.obj
 0001:00103d8c       ___iscsym                  00504d8c f i LIBCMT:_ctype.obj
 0001:00103dc6       ___crtGetLocaleInfoW       00504dc6 f   LIBCMT:w_loc.obj
 0001:00103f39       ___crtGetLocaleInfoA       00504f39 f   LIBCMT:a_loc.obj
 0001:00103f76       __mbsnbicmp_l              00504f76 f   LIBCMT:mbsnbicm.obj
 0001:001041a1       __mbsnbicmp                005051a1 f   LIBCMT:mbsnbicm.obj
 0001:001041bb       __mbsnbcmp_l               005051bb f   LIBCMT:mbsnbcmp.obj
 0001:00104325       __mbsnbcmp                 00505325 f   LIBCMT:mbsnbcmp.obj
 0001:00104340       __global_unwind2           00505340 f   LIBCMT:exsup.obj
 0001:001043a5       __local_unwind2            005053a5 f   LIBCMT:exsup.obj
 0001:00104429       __abnormal_termination     00505429 f   LIBCMT:exsup.obj
 0001:0010444c       __NLG_Notify1              0050544c f   LIBCMT:exsup.obj
 0001:00104455       __NLG_Notify               00505455 f   LIBCMT:exsup.obj
 0001:0010446c       __NLG_Dispatch2            0050546c     LIBCMT:exsup.obj
 0001:0010446c       __NLG_Dispatch             0050546c     LIBCMT:exsup.obj
 0001:00104474       __NLG_Call                 00505474 f   LIBCMT:exsup.obj
 0001:00104476       __NLG_Return2              00505476     LIBCMT:exsup.obj
 0001:00104480       _strrchr                   00505480 f   LIBCMT:strrchr.obj
 0001:001044ad       __atodbl_l                 005054ad f   LIBCMT:atodbl.obj
 0001:00104555       __atodbl                   00505555 f   LIBCMT:atodbl.obj
 0001:0010456c       __atoldbl_l                0050556c f   LIBCMT:atodbl.obj
 0001:00104615       __atoldbl                  00505615 f   LIBCMT:atodbl.obj
 0001:0010462c       __atoflt_l                 0050562c f   LIBCMT:atodbl.obj
 0001:001046d4       __atoflt                   005056d4 f   LIBCMT:atodbl.obj
 0001:001046eb       __set_output_format        005056eb f   LIBCMT:outputformat.obj
 0001:00104727       __get_output_format        00505727 f   LIBCMT:outputformat.obj
 0001:0010472d       __fptostr                  0050572d f   LIBCMT:_fptostr.obj
 0001:001047ec       ___dtold                   005057ec f   LIBCMT:_cfout_.obj
 0001:001048a9       __fltout2                  005058a9 f   LIBCMT:_cfout_.obj
 0001:00104940       __alldvrm                  00505940 f   LIBCMT:lldvrm.obj
 0001:00104a1f       __controlfp_s              00505a1f f   LIBCMT:_contrlfp_.obj
 0001:00104a8b       __chsize_nolock            00505a8b f   LIBCMT:chsize.obj
 0001:00104c41       __chsize_s                 00505c41 f   LIBCMT:chsize.obj
 0001:00104d2e       __chsize                   00505d2e f   LIBCMT:chsize.obj
 0001:00104d4a       __setmode_nolock           00505d4a f   LIBCMT:setmode.obj
 0001:00104e06       __set_fmode                00505e06 f   LIBCMT:setmode.obj
 0001:00104e52       __get_fmode                00505e52 f   LIBCMT:setmode.obj
 0001:00104e8b       __setmode                  00505e8b f   LIBCMT:setmode.obj
 0001:0010513c       ___crtGetStringTypeA       0050613c f   LIBCMT:a_str.obj
 0001:0010517e       ___pwctype_func            0050617e f   LIBCMT:ctype.obj
 0001:00105184       ___pctype_func             00506184 f   LIBCMT:ctype.obj
 0001:001055c8       ___free_lc_time            005065c8 f   LIBCMT:inittime.obj
 0001:0010575d       ___init_time               0050675d f   LIBCMT:inittime.obj
 0001:00105809       ___free_lconv_num          00506809 f   LIBCMT:initnum.obj
 0001:0010584e       ___init_numeric            0050684e f   LIBCMT:initnum.obj
 0001:00105a4b       ___free_lconv_mon          00506a4b f   LIBCMT:initmon.obj
 0001:00105ad9       ___init_monetary           00506ad9 f   LIBCMT:initmon.obj
 0001:00105d9f       ___init_ctype              00506d9f f   LIBCMT:initctyp.obj
 0001:00106141       ____mb_cur_max_func        00507141 f   LIBCMT:initctyp.obj
 0001:0010616a       ____mb_cur_max_l_func      0050716a f   LIBCMT:initctyp.obj
 0001:00106186       ____lc_codepage_func       00507186 f   LIBCMT:initctyp.obj
 0001:001061ac       ____lc_collate_cp_func     005071ac f   LIBCMT:initctyp.obj
 0001:001061d2       ____lc_handle_func         005071d2 f   LIBCMT:initctyp.obj
 0001:001061f8       ___init_collate            005071f8 f   LIBCMT:initcoll.obj
 0001:001061fb       __Getdays_l                005071fb f   LIBCMT:strftime.obj
 0001:001062fb       __Getdays                  005072fb f   LIBCMT:strftime.obj
 0001:00106304       __Getmonths_l              00507304 f   LIBCMT:strftime.obj
 0001:00106404       __Getmonths                00507404 f   LIBCMT:strftime.obj
 0001:0010640d       __Gettnames_l              0050740d f   LIBCMT:strftime.obj
 0001:00106764       __Gettnames                00507764 f   LIBCMT:strftime.obj
 0001:00107087       __Strftime_l               00508087 f   LIBCMT:strftime.obj
 0001:0010722b       __strftime_l               0050822b f   LIBCMT:strftime.obj
 0001:0010724b       _strftime                  0050824b f   LIBCMT:strftime.obj
 0001:0010726a       __Strftime                 0050826a f   LIBCMT:strftime.obj
 0001:0010728a       _localeconv                0050828a f   LIBCMT:lconv.obj
 0001:001072b0       _strcspn                   005082b0 f   LIBCMT:strcspn.obj
 0001:001078f1       ___get_qualified_locale    005088f1 f   LIBCMT:getqloc.obj
 0001:00109058       _memcmp                    0050a058 f   LIBCMT:memcmp.obj
 0001:0010a6d8       ___ansicp                  0050b6d8 f   LIBCMT:convrtcp.obj
 0001:0010a721       ___convertcp               0050b721 f   LIBCMT:convrtcp.obj
 0001:0010a8e0       __alloca_probe_16          0050b8e0 f   LIBCMT:alloca16.obj
 0001:0010a8f6       __alloca_probe_8           0050b8f6     LIBCMT:alloca16.obj
 0001:0010a90c       __iswctype_l               0050b90c f   LIBCMT:iswctype.obj
 0001:0010a996       _iswctype                  0050b996 f   LIBCMT:iswctype.obj
 0001:0010aa0c       _is_wctype                 0050ba0c f   LIBCMT:iswctype.obj
 0001:0010aa17       ?_ValidateRead@@YAHPBXI@Z  0050ba17 f   LIBCMT:validate.obj
 0001:0010aa29       ?_ValidateWrite@@YAHPAXI@Z 0050ba29 f   LIBCMT:validate.obj
 0001:0010aa3b       ?_ValidateExecute@@YAHP6GHXZ@Z 0050ba3b f   LIBCMT:validate.obj
 0001:0010aa4d       __matherr                  0050ba4d f   LIBCMT:_matherr_.obj
 0001:0010aa50       __frnd                     0050ba50 f   LIBCMT:_frnd_.obj
 0001:0010ab0c       __woutput_l                0050bb0c f   LIBCMT:woutput.obj
 0001:0010b74c       __woutput_s_l              0050c74c f   LIBCMT:woutputs.obj
 0001:0010c2ec       __validate_param_reuseW    0050d2ec f   LIBCMT:woutputp.obj
 0001:0010c4ea       __woutput_p_l              0050d4ea f   LIBCMT:woutputp.obj
 0001:0010d7aa       _vfwprintf_helper          0050e7aa f   LIBCMT:vfwprint.obj
 0001:0010d83d       __vfwprintf_l              0050e83d f   LIBCMT:vfwprint.obj
 0001:0010d85d       __vfwprintf_s_l            0050e85d f   LIBCMT:vfwprint.obj
 0001:0010d87d       __vfwprintf_p_l            0050e87d f   LIBCMT:vfwprint.obj
 0001:0010d89d       _vfwprintf                 0050e89d f   LIBCMT:vfwprint.obj
 0001:0010d8bc       _vfwprintf_s               0050e8bc f   LIBCMT:vfwprint.obj
 0001:0010d8db       __vfwprintf_p              0050e8db f   LIBCMT:vfwprint.obj
 0001:0010d8fa       __ZeroTail                 0050e8fa f i LIBCMT:_intrncvt_.obj
 0001:0010d943       __IncMan                   0050e943 f i LIBCMT:_intrncvt_.obj
 0001:0010d9b0       __RoundMan                 0050e9b0 f i LIBCMT:_intrncvt_.obj
 0001:0010daa0       __CopyMan                  0050eaa0 f i LIBCMT:_intrncvt_.obj
 0001:0010dabf       __FillZeroMan              0050eabf f i LIBCMT:_intrncvt_.obj
 0001:0010dad0       __IsZeroMan                0050ead0 f i LIBCMT:_intrncvt_.obj
 0001:0010daef       __ShrMan                   0050eaef f i LIBCMT:_intrncvt_.obj
 0001:0010db89       __ld12cvt                  0050eb89 f i LIBCMT:_intrncvt_.obj
 0001:0010e0b4       __ld12tod                  0050f0b4 f   LIBCMT:_intrncvt_.obj
 0001:0010e5f8       __ld12tof                  0050f5f8 f   LIBCMT:_intrncvt_.obj
 0001:0010eb3c       __ld12told                 0050fb3c f   LIBCMT:_intrncvt_.obj
 0001:0010ec03       ___add_12                  0050fc03 f i LIBCMT:_mantold_.obj
 0001:0010ec74       ___mtold12                 0050fc74 f   LIBCMT:_mantold_.obj
 0001:0010ee50       _fdiv_main_routine         0050fe50 f   LIBCMT:_adj_fdiv_.obj
 0001:0010ef67       __adj_fdiv_r               0050ff67 f   LIBCMT:_adj_fdiv_.obj
 0001:0010f406       __fdivp_sti_st             00510406 f   LIBCMT:_adj_fdiv_.obj
 0001:0010f419       __fdivrp_sti_st            00510419 f   LIBCMT:_adj_fdiv_.obj
 0001:0010f42c       __adj_fdiv_m32             0051042c f   LIBCMT:_adj_fdiv_.obj
 0001:0010f478       __adj_fdiv_m64             00510478 f   LIBCMT:_adj_fdiv_.obj
 0001:0010f4c4       __adj_fdiv_m16i            005104c4 f   LIBCMT:_adj_fdiv_.obj
 0001:0010f4f8       __adj_fdiv_m32i            005104f8 f   LIBCMT:_adj_fdiv_.obj
 0001:0010f52c       __adj_fdivr_m32            0051052c f   LIBCMT:_adj_fdiv_.obj
 0001:0010f578       __adj_fdivr_m64            00510578 f   LIBCMT:_adj_fdiv_.obj
 0001:0010f5c4       __adj_fdivr_m16i           005105c4 f   LIBCMT:_adj_fdiv_.obj
 0001:0010f5f8       __adj_fdivr_m32i           005105f8 f   LIBCMT:_adj_fdiv_.obj
 0001:0010f62c       __safe_fdiv                0051062c f   LIBCMT:_adj_fdiv_.obj
 0001:0010f641       __safe_fdivr               00510641 f   LIBCMT:_adj_fdiv_.obj
 0001:0010f656       __fprem_common             00510656 f   LIBCMT:_adj_fdiv_.obj
 0001:0010f85c       __adj_fprem                0051085c f   LIBCMT:_adj_fdiv_.obj
 0001:0010f90e       __fprem1_common            0051090e f   LIBCMT:_adj_fdiv_.obj
 0001:0010fb14       __adj_fprem1               00510b14 f   LIBCMT:_adj_fdiv_.obj
 0001:0010fbc9       __safe_fprem               00510bc9 f   LIBCMT:_adj_fdiv_.obj
 0001:0010fbcf       __safe_fprem1              00510bcf f   LIBCMT:_adj_fdiv_.obj
 0001:0010fbd5       __adj_fpatan               00510bd5 f   LIBCMT:_adj_fdiv_.obj
 0001:0010fbd8       __adj_fptan                00510bd8 f   LIBCMT:_adj_fdiv_.obj
 0001:0010fbdb       __87except                 00510bdb f   LIBCMT:_87except_.obj
 0001:0010fd1a       __getpath                  00510d1a f   LIBCMT:getpath.obj
 0001:0010fdaf       __mbschr_l                 00510daf f   LIBCMT:mbschr.obj
 0001:0010fe6b       __mbschr                   00510e6b f   LIBCMT:mbschr.obj
 0001:0010fe82       __dospawn                  00510e82 f   LIBCMT:dospawn.obj
 0001:00110091       __cenvarg                  00511091 f   LIBCMT:cenvarg.obj
 0001:0011046a       __mbsnbicoll_l             0051146a f   LIBCMT:mbsnbico.obj
 0001:00110558       __mbsnbicoll               00511558 f   LIBCMT:mbsnbico.obj
 0001:00110572       ___wtomb_environ           00511572 f   LIBCMT:wtombenv.obj
 0001:00110609       _strnlen                   00511609 f   LIBCMT:strlen_s.obj
 0001:00110679       __ismbbkalnum_l            00511679 f   LIBCMT:ismbbyte.obj
 0001:00110692       __ismbbkalnum              00511692 f   LIBCMT:ismbbyte.obj
 0001:001106aa       __ismbbkprint_l            005116aa f   LIBCMT:ismbbyte.obj
 0001:001106c3       __ismbbkprint              005116c3 f   LIBCMT:ismbbyte.obj
 0001:001106db       __ismbbkpunct_l            005116db f   LIBCMT:ismbbyte.obj
 0001:001106f4       __ismbbkpunct              005116f4 f   LIBCMT:ismbbyte.obj
 0001:0011070c       __ismbbalnum_l             0051170c f   LIBCMT:ismbbyte.obj
 0001:00110728       __ismbbalnum               00511728 f   LIBCMT:ismbbyte.obj
 0001:00110743       __ismbbalpha_l             00511743 f   LIBCMT:ismbbyte.obj
 0001:0011075f       __ismbbalpha               0051175f f   LIBCMT:ismbbyte.obj
 0001:0011077a       __ismbbgraph_l             0051177a f   LIBCMT:ismbbyte.obj
 0001:00110796       __ismbbgraph               00511796 f   LIBCMT:ismbbyte.obj
 0001:001107b1       __ismbbprint_l             005117b1 f   LIBCMT:ismbbyte.obj
 0001:001107cd       __ismbbprint               005117cd f   LIBCMT:ismbbyte.obj
 0001:001107e8       __ismbbpunct_l             005117e8 f   LIBCMT:ismbbyte.obj
 0001:00110801       __ismbbpunct               00511801 f   LIBCMT:ismbbyte.obj
 0001:00110819       __ismbblead_l              00511819 f   LIBCMT:ismbbyte.obj
 0001:00110832       __ismbblead                00511832 f   LIBCMT:ismbbyte.obj
 0001:0011084a       __ismbbtrail_l             0051184a f   LIBCMT:ismbbyte.obj
 0001:00110863       __ismbbtrail               00511863 f   LIBCMT:ismbbyte.obj
 0001:0011087b       __ismbbkana_l              0051187b f   LIBCMT:ismbbyte.obj
 0001:001108d0       __ismbbkana                005118d0 f   LIBCMT:ismbbyte.obj
 0001:001108e3       __purecall                 005118e3 f   LIBCMT:purevirt.obj
 0001:0011090d       __set_purecall_handler     0051190d f   LIBCMT:purevirt.obj
 0001:00110934       __get_purecall_handler     00511934 f   LIBCMT:purevirt.obj
 0001:00110941       ___initconin               00511941 f   LIBCMT:initcon.obj
 0001:00110960       ___initconout              00511960 f   LIBCMT:initcon.obj
 0001:0011097f       ___termcon                 0051197f f   LIBCMT:initcon.obj
 0001:001109ac       _$I10_OUTPUT               005119ac f   LIBCMT:_x10fout_.obj
 0001:001112d0       __set_controlfp            005122d0 f   LIBCMT:_ieee87_.obj
 0001:00111644       __statusfp                 00512644 f   LIBCMT:_ieee87_.obj
 0001:001116d6       __fpreset                  005126d6 f   LIBCMT:_ieee87_.obj
 0001:0011190f       __statusfp2                0051290f f   LIBCMT:_ieee87_.obj
 0001:00111969       __clearfp                  00512969 f   LIBCMT:_ieee87_.obj
 0001:00111a42       ___control87_2             00512a42 f   LIBCMT:_ieee87_.obj
 0001:00111d56       __control87                00512d56 f i LIBCMT:_ieee87_.obj
 0001:00112065       __controlfp                00513065 f   LIBCMT:_ieee87_.obj
 0001:0011239a       ___crtGetStringTypeW       0051339a f   LIBCMT:w_str.obj
 0001:001123d8       __fputwc_nolock            005133d8 f   LIBCMT:fputwc.obj
 0001:0011255f       _fputwc                    0051355f f   LIBCMT:fputwc.obj
 0001:001125d8       _putwc                     005135d8 f   LIBCMT:fputwc.obj
 0001:001127dd       _wcstol                    005137dd f   LIBCMT:wcstol.obj
 0001:00112808       __wcstol_l                 00513808 f   LIBCMT:wcstol.obj
 0001:00112825       _wcstoul                   00513825 f   LIBCMT:wcstol.obj
 0001:00112851       __wcstoul_l                00513851 f   LIBCMT:wcstol.obj
 0001:0011286e       __mbsnicmp_l               0051386e f   LIBCMT:mbsnicmp.obj
 0001:00112a36       __mbsnicmp                 00513a36 f   LIBCMT:mbsnicmp.obj
 0001:00112dde       ___crtCompareStringA       00513dde f   LIBCMT:a_cmp.obj
 0001:00112e20       __strnicoll_l              00513e20 f   LIBCMT:strnicol.obj
 0001:00112f1a       __strnicoll                00513f1a f   LIBCMT:strnicol.obj
 0001:00112fef       ___crtsetenv               00513fef f   LIBCMT:setenv.obj
 0001:0011323a       __flswbuf                  0051423a f   LIBCMT:_flswbuf.obj
 0001:001133ae       __wchartodigit             005143ae f   LIBCMT:wchtodig.obj
 0001:0011358a       _timeGetTime@0             0051458a f   winmm:WINMM.dll
 0001:00113590       _timeBeginPeriod@4         00514590 f   winmm:WINMM.dll
 0001:00113596       _FreeImage_GetBits@4       00514596 f   FreeImageDLL:FreeImage.dll
 0001:0011359c       _FreeImage_GetWidth@4      0051459c f   FreeImageDLL:FreeImage.dll
 0001:001135a2       _FreeImage_GetHeight@4     005145a2 f   FreeImageDLL:FreeImage.dll
 0001:001135a8       _FreeImage_GetBPP@4        005145a8 f   FreeImageDLL:FreeImage.dll
 0001:001135ae       _FreeImage_HasPixels@4     005145ae f   FreeImageDLL:FreeImage.dll
 0001:001135b4       _FreeImage_Unload@4        005145b4 f   FreeImageDLL:FreeImage.dll
 0001:001135ba       _FreeImage_Allocate@24     005145ba f   FreeImageDLL:FreeImage.dll
 0001:001135c0       _FreeImage_Clone@4         005145c0 f   FreeImageDLL:FreeImage.dll
 0001:001135c6       _FreeImage_Rescale@16      005145c6 f   FreeImageDLL:FreeImage.dll
 0001:001135cc       _FreeImage_FlipVertical@4  005145cc f   FreeImageDLL:FreeImage.dll
 0001:001135d2       _FreeImage_GetPalette@4    005145d2 f   FreeImageDLL:FreeImage.dll
 0001:001135d8       _FreeImage_Load@12         005145d8 f   FreeImageDLL:FreeImage.dll
 0001:001135de       _FreeImage_FIFSupportsReading@4 005145de f   FreeImageDLL:FreeImage.dll
 0001:001135e4       _FreeImage_GetFIFFromFilename@4 005145e4 f   FreeImageDLL:FreeImage.dll
 0001:001135ea       _FreeImage_Save@16         005145ea f   FreeImageDLL:FreeImage.dll
 0001:001135f0       _FreeImage_FIFSupportsWriting@4 005145f0 f   FreeImageDLL:FreeImage.dll
 0001:001135f6       _FreeImage_ConvertTo32Bits@4 005145f6 f   FreeImageDLL:FreeImage.dll
 0001:001135fc       _FreeImage_ConvertTo24Bits@4 005145fc f   FreeImageDLL:FreeImage.dll
 0001:00113602       _FreeImage_ConvertToType@12 00514602 f   FreeImageDLL:FreeImage.dll
 0001:00113608       _FreeImage_GetImageType@4  00514608 f   FreeImageDLL:FreeImage.dll
 0001:0011360e       _FreeImage_CloseMemory@4   0051460e f   FreeImageDLL:FreeImage.dll
 0001:00113614       _FreeImage_LoadFromMemory@12 00514614 f   FreeImageDLL:FreeImage.dll
 0001:0011361a       _FreeImage_OpenMemory@8    0051461a f   FreeImageDLL:FreeImage.dll
 0001:00113620       _FreeImage_IsTransparent@4 00514620 f   FreeImageDLL:FreeImage.dll
 0001:00113626       _FreeImage_GetColorType@4  00514626 f   FreeImageDLL:FreeImage.dll
 0001:0011362c       _FreeImage_SetOutputMessage@4 0051462c f   FreeImageDLL:FreeImage.dll
 0001:00113632       _FreeImage_GetVersion@0    00514632 f   FreeImageDLL:FreeImage.dll
 0001:00113660       ?GetCodecType@@YA?AW4_CodecType@@W4ATI_TC_FORMAT@@@Z 00514660 f   ATI_Compress_MT:ATI_Compress.obj
 0001:00113770       ?GetError@@YA?AW4ATI_TC_ERROR@@W4_CODECError@@@Z 00514770 f   ATI_Compress_MT:ATI_Compress.obj
 0001:001137a0       ?CalcBufferSize@@YAKW4ATI_TC_FORMAT@@KKK@Z 005147a0 f   ATI_Compress_MT:ATI_Compress.obj
 0001:001138c0       ?CompressTexture@@YA?AW4ATI_TC_ERROR@@PBUATI_TC_Texture@@PAU2@PBUATI_TC_CompressOptions@@P6A_NMKK@ZKKW4_CodecType@@@Z 005148c0 f   ATI_Compress_MT:ATI_Compress.obj
 0001:00113b40       ??0CATICompressThreadData@@QAE@XZ 00514b40 f   ATI_Compress_MT:ATI_Compress.obj
 0001:00113b60       ??1CATICompressThreadData@@QAE@XZ 00514b60 f   ATI_Compress_MT:ATI_Compress.obj
 0001:00113bb0       ?ThreadedCompressProc@@YGKPAX@Z 00514bb0 f   ATI_Compress_MT:ATI_Compress.obj
 0001:00113c10       ?ThreadedCompressTexture@@YA?AW4ATI_TC_ERROR@@PBUATI_TC_Texture@@PAU2@PBUATI_TC_CompressOptions@@P6A_NMKK@ZKKW4_CodecType@@@Z 00514c10 f   ATI_Compress_MT:ATI_Compress.obj
 0001:00114050       _ATI_TC_CalculateBufferSize 00515050 f   ATI_Compress_MT:ATI_Compress.obj
 0001:001140a0       ?CheckTexture@@YA?AW4ATI_TC_ERROR@@PBUATI_TC_Texture@@_N@Z 005150a0 f   ATI_Compress_MT:ATI_Compress.obj
 0001:00114130       _ATI_TC_ConvertTexture     00515130 f   ATI_Compress_MT:ATI_Compress.obj
 0001:00114660       ??0CCodec@ATI_Compress@@QAE@W4_CodecType@@@Z 00515660 f   ATI_Compress_MT:Codec.obj
 0001:00114680       ??1CCodec@ATI_Compress@@UAE@XZ 00515680 f   ATI_Compress_MT:Codec.obj
 0001:00114690       ?SetParameter@CCodec@ATI_Compress@@UAE_NPBDK@Z 00515690 f   ATI_Compress_MT:Codec.obj
 0001:001146a0       ?GetParameter@CCodec@ATI_Compress@@UAE_NPBDAAK@Z 005156a0 f   ATI_Compress_MT:Codec.obj
 0001:001146b0       ?SetParameter@CCodec@ATI_Compress@@UAE_NPBDM@Z 005156b0 f   ATI_Compress_MT:Codec.obj
 0001:001146c0       ?GetParameter@CCodec@ATI_Compress@@UAE_NPBDAAM@Z 005156c0 f   ATI_Compress_MT:Codec.obj
 0001:001146d0       ?SupportsSSE@@YA_NXZ       005156d0 f   ATI_Compress_MT:Codec.obj
 0001:001146e0       ?SupportsSSE2@@YA_NXZ      005156e0 f   ATI_Compress_MT:Codec.obj
 0001:001146f0       ?CreateCodec@@YAPAVCCodec@ATI_Compress@@W4_CodecType@@@Z 005156f0 f   ATI_Compress_MT:Codec.obj
 0001:00114b00       ?CalcBufferSize@@YAKW4_CodecType@@KK@Z 00515b00 f   ATI_Compress_MT:Codec.obj
 0001:00114b70       ?DeriveB@@YAEEE@Z          00515b70 f   ATI_Compress_MT:Codec.obj
 0001:00114c80       ?DeriveB@@YAMMM@Z          00515c80 f   ATI_Compress_MT:Codec.obj
 0001:00114d10       ?GetType@CCodec@ATI_Compress@@UBE?AW4_CodecType@@XZ 00515d10 f i ATI_Compress_MT:Codec.obj
 0001:00114d20       ?GetBlockHeight@CCodec@ATI_Compress@@UAEKXZ 00515d20 f i ATI_Compress_MT:Codec.obj
 0001:00114d30       ??_GCCodec@ATI_Compress@@UAEPAXI@Z 00515d30 f i ATI_Compress_MT:Codec.obj
 0001:00114d30       ??_ECCodec@ATI_Compress@@UAEPAXI@Z 00515d30 f i ATI_Compress_MT:Codec.obj
 0001:00114d50       ??0half@@QAE@XZ            00515d50 f i ATI_Compress_MT:CodecBuffer.obj
 0001:00114d60       ??0half@@QAE@M@Z           00515d60 f i ATI_Compress_MT:CodecBuffer.obj
 0001:00114dd0       ??Bhalf@@QBEMXZ            00515dd0 f i ATI_Compress_MT:CodecBuffer.obj
 0001:00114de0       ??4half@@QAEAAV0@V0@@Z     00515de0 f i ATI_Compress_MT:CodecBuffer.obj
 0001:00114df0       ??4half@@QAEAAV0@M@Z       00515df0 f i ATI_Compress_MT:CodecBuffer.obj
 0001:00114e10       ?GetWidth@CCodecBuffer@@QBE?BKXZ 00515e10 f i ATI_Compress_MT:CodecBuffer.obj
 0001:00114e20       ?GetHeight@CCodecBuffer@@QBE?BKXZ 00515e20 f i ATI_Compress_MT:CodecBuffer.obj
 0001:00114e30       ?CreateCodecBuffer@@YAPAVCCodecBuffer@@W4_CodecBufferType@@KKKPAE@Z 00515e30 f   ATI_Compress_MT:CodecBuffer.obj
 0001:00115410       ?GetCodecBufferType@@YA?AW4_CodecBufferType@@W4ATI_TC_FORMAT@@@Z 00516410 f   ATI_Compress_MT:CodecBuffer.obj
 0001:001154b0       ??0CCodecBuffer@@QAE@KKKPAE@Z 005164b0 f   ATI_Compress_MT:CodecBuffer.obj
 0001:001154f0       ??1CCodecBuffer@@UAE@XZ    005164f0 f   ATI_Compress_MT:CodecBuffer.obj
 0001:00115520       ?Copy@CCodecBuffer@@UAEXAAV1@@Z 00516520 f   ATI_Compress_MT:CodecBuffer.obj
 0001:001155e0       ?WriteBlock@CCodecBuffer@@UAE_NKKPAKK@Z 005165e0 f   ATI_Compress_MT:CodecBuffer.obj
 0001:001155f0       ?ReadBlock@CCodecBuffer@@UAE_NKKPAKK@Z 005165f0 f   ATI_Compress_MT:CodecBuffer.obj
 0001:00115600       ?ConvertBlock@CCodecBuffer@@IAEXQANQAMK@Z 00516600 f   ATI_Compress_MT:CodecBuffer.obj
 0001:00115680       ?ConvertBlock@CCodecBuffer@@IAEXQANQAVhalf@@K@Z 00516680 f   ATI_Compress_MT:CodecBuffer.obj
 0001:00115730       ?ConvertBlock@CCodecBuffer@@IAEXQANQAKK@Z 00516730 f   ATI_Compress_MT:CodecBuffer.obj
 0001:00115810       ?ConvertBlock@CCodecBuffer@@IAEXQANQAGK@Z 00516810 f   ATI_Compress_MT:CodecBuffer.obj
 0001:001158d0       ?ConvertBlock@CCodecBuffer@@IAEXQANQAEK@Z 005168d0 f   ATI_Compress_MT:CodecBuffer.obj
 0001:00115980       ?ConvertBlock@CCodecBuffer@@IAEXQAMQANK@Z 00516980 f   ATI_Compress_MT:CodecBuffer.obj
 0001:00115a00       ?ConvertBlock@CCodecBuffer@@IAEXQAMQAVhalf@@K@Z 00516a00 f   ATI_Compress_MT:CodecBuffer.obj
 0001:00115ab0       ?ConvertBlock@CCodecBuffer@@IAEXQAMQAKK@Z 00516ab0 f   ATI_Compress_MT:CodecBuffer.obj
 0001:00115ba0       ?ConvertBlock@CCodecBuffer@@IAEXQAMQAGK@Z 00516ba0 f   ATI_Compress_MT:CodecBuffer.obj
 0001:00115c60       ?ConvertBlock@CCodecBuffer@@IAEXQAMQAEK@Z 00516c60 f   ATI_Compress_MT:CodecBuffer.obj
 0001:00115d10       ?ConvertBlock@CCodecBuffer@@IAEXQAVhalf@@QANK@Z 00516d10 f   ATI_Compress_MT:CodecBuffer.obj
 0001:00115d60       ?ConvertBlock@CCodecBuffer@@IAEXQAVhalf@@QAMK@Z 00516d60 f   ATI_Compress_MT:CodecBuffer.obj
 0001:00115db0       ?ConvertBlock@CCodecBuffer@@IAEXQAVhalf@@QAKK@Z 00516db0 f   ATI_Compress_MT:CodecBuffer.obj
 0001:00115e20       ?ConvertBlock@CCodecBuffer@@IAEXQAVhalf@@QAGK@Z 00516e20 f   ATI_Compress_MT:CodecBuffer.obj
 0001:00115e80       ?ConvertBlock@CCodecBuffer@@IAEXQAVhalf@@QAEK@Z 00516e80 f   ATI_Compress_MT:CodecBuffer.obj
 0001:00115ee0       ?ConvertBlock@CCodecBuffer@@IAEXQAKQANK@Z 00516ee0 f   ATI_Compress_MT:CodecBuffer.obj
 0001:00115f50       ?ConvertBlock@CCodecBuffer@@IAEXQAKQAMK@Z 00516f50 f   ATI_Compress_MT:CodecBuffer.obj
 0001:00115fc0       ?ConvertBlock@CCodecBuffer@@IAEXQAKQAVhalf@@K@Z 00516fc0 f   ATI_Compress_MT:CodecBuffer.obj
 0001:00116040       ?ConvertBlock@CCodecBuffer@@IAEXQAKQAGK@Z 00517040 f   ATI_Compress_MT:CodecBuffer.obj
 0001:00116080       ?ConvertBlock@CCodecBuffer@@IAEXQAKQAEK@Z 00517080 f   ATI_Compress_MT:CodecBuffer.obj
 0001:001160d0       ?ConvertBlock@CCodecBuffer@@IAEXQAGQANK@Z 005170d0 f   ATI_Compress_MT:CodecBuffer.obj
 0001:00116140       ?ConvertBlock@CCodecBuffer@@IAEXQAGQAMK@Z 00517140 f   ATI_Compress_MT:CodecBuffer.obj
 0001:001161b0       ?ConvertBlock@CCodecBuffer@@IAEXQAGQAVhalf@@K@Z 005171b0 f   ATI_Compress_MT:CodecBuffer.obj
 0001:00116220       ?ConvertBlock@CCodecBuffer@@IAEXQAGQAKK@Z 00517220 f   ATI_Compress_MT:CodecBuffer.obj
 0001:00116300       ?ConvertBlock@CCodecBuffer@@IAEXQAGQAEK@Z 00517300 f   ATI_Compress_MT:CodecBuffer.obj
 0001:00116340       ?ConvertBlock@CCodecBuffer@@IAEXQAEQANK@Z 00517340 f   ATI_Compress_MT:CodecBuffer.obj
 0001:001163b0       ?ConvertBlock@CCodecBuffer@@IAEXQAEQAMK@Z 005173b0 f   ATI_Compress_MT:CodecBuffer.obj
 0001:00116420       ?ConvertBlock@CCodecBuffer@@IAEXQAEQAVhalf@@K@Z 00517420 f   ATI_Compress_MT:CodecBuffer.obj
 0001:00116490       ?ConvertBlock@CCodecBuffer@@IAEXQAEQAKK@Z 00517490 f   ATI_Compress_MT:CodecBuffer.obj
 0001:00116500       ?ConvertBlock@CCodecBuffer@@IAEXQAEQAGK@Z 00517500 f   ATI_Compress_MT:CodecBuffer.obj
 0001:00116570       ?SwizzleBlock@CCodecBuffer@@IAEXQANK@Z 00517570 f   ATI_Compress_MT:CodecBuffer.obj
 0001:00116610       ?SwizzleBlock@CCodecBuffer@@IAEXQAMK@Z 00517610 f   ATI_Compress_MT:CodecBuffer.obj
 0001:001166d0       ?SwizzleBlock@CCodecBuffer@@IAEXQAVhalf@@K@Z 005176d0 f   ATI_Compress_MT:CodecBuffer.obj
 0001:00116710       ?SwizzleBlock@CCodecBuffer@@IAEXQAKK@Z 00517710 f   ATI_Compress_MT:CodecBuffer.obj
 0001:00116740       ?SwizzleBlock@CCodecBuffer@@IAEXQAGK@Z 00517740 f   ATI_Compress_MT:CodecBuffer.obj
 0001:00116780       ?ReadBlockR@CCodecBuffer@@UAE_NKKEEQAE@Z 00517780 f   ATI_Compress_MT:CodecBuffer.obj
 0001:00116950       ?ReadBlockG@CCodecBuffer@@UAE_NKKEEQAE@Z 00517950 f   ATI_Compress_MT:CodecBuffer.obj
 0001:00116b20       ?ReadBlockB@CCodecBuffer@@UAE_NKKEEQAE@Z 00517b20 f   ATI_Compress_MT:CodecBuffer.obj
 0001:00116cf0       ?ReadBlockA@CCodecBuffer@@UAE_NKKEEQAE@Z 00517cf0 f   ATI_Compress_MT:CodecBuffer.obj
 0001:00116ec0       ?ReadBlockR@CCodecBuffer@@UAE_NKKEEQAG@Z 00517ec0 f   ATI_Compress_MT:CodecBuffer.obj
 0001:00117090       ?ReadBlockG@CCodecBuffer@@UAE_NKKEEQAG@Z 00518090 f   ATI_Compress_MT:CodecBuffer.obj
 0001:00117260       ?ReadBlockB@CCodecBuffer@@UAE_NKKEEQAG@Z 00518260 f   ATI_Compress_MT:CodecBuffer.obj
 0001:00117430       ?ReadBlockA@CCodecBuffer@@UAE_NKKEEQAG@Z 00518430 f   ATI_Compress_MT:CodecBuffer.obj
 0001:00117600       ?ReadBlockR@CCodecBuffer@@UAE_NKKEEQAK@Z 00518600 f   ATI_Compress_MT:CodecBuffer.obj
 0001:001177d0       ?ReadBlockG@CCodecBuffer@@UAE_NKKEEQAK@Z 005187d0 f   ATI_Compress_MT:CodecBuffer.obj
 0001:001179a0       ?ReadBlockB@CCodecBuffer@@UAE_NKKEEQAK@Z 005189a0 f   ATI_Compress_MT:CodecBuffer.obj
 0001:00117b70       ?ReadBlockA@CCodecBuffer@@UAE_NKKEEQAK@Z 00518b70 f   ATI_Compress_MT:CodecBuffer.obj
 0001:00117d40       ?ReadBlockR@CCodecBuffer@@UAE_NKKEEQAVhalf@@@Z 00518d40 f   ATI_Compress_MT:CodecBuffer.obj
 0001:00117f10       ?ReadBlockG@CCodecBuffer@@UAE_NKKEEQAVhalf@@@Z 00518f10 f   ATI_Compress_MT:CodecBuffer.obj
 0001:001180e0       ?ReadBlockB@CCodecBuffer@@UAE_NKKEEQAVhalf@@@Z 005190e0 f   ATI_Compress_MT:CodecBuffer.obj
 0001:001182b0       ?ReadBlockA@CCodecBuffer@@UAE_NKKEEQAVhalf@@@Z 005192b0 f   ATI_Compress_MT:CodecBuffer.obj
 0001:00118480       ?ReadBlockR@CCodecBuffer@@UAE_NKKEEQAM@Z 00519480 f   ATI_Compress_MT:CodecBuffer.obj
 0001:00118650       ?ReadBlockG@CCodecBuffer@@UAE_NKKEEQAM@Z 00519650 f   ATI_Compress_MT:CodecBuffer.obj
 0001:00118820       ?ReadBlockB@CCodecBuffer@@UAE_NKKEEQAM@Z 00519820 f   ATI_Compress_MT:CodecBuffer.obj
 0001:001189f0       ?ReadBlockA@CCodecBuffer@@UAE_NKKEEQAM@Z 005199f0 f   ATI_Compress_MT:CodecBuffer.obj
 0001:00118bc0       ?ReadBlockR@CCodecBuffer@@UAE_NKKEEQAN@Z 00519bc0 f   ATI_Compress_MT:CodecBuffer.obj
 0001:00118d90       ?ReadBlockG@CCodecBuffer@@UAE_NKKEEQAN@Z 00519d90 f   ATI_Compress_MT:CodecBuffer.obj
 0001:00118f60       ?ReadBlockB@CCodecBuffer@@UAE_NKKEEQAN@Z 00519f60 f   ATI_Compress_MT:CodecBuffer.obj
 0001:00119130       ?ReadBlockA@CCodecBuffer@@UAE_NKKEEQAN@Z 0051a130 f   ATI_Compress_MT:CodecBuffer.obj
 0001:00119300       ?WriteBlockR@CCodecBuffer@@UAE_NKKEEQAE@Z 0051a300 f   ATI_Compress_MT:CodecBuffer.obj
 0001:001194a0       ?WriteBlockG@CCodecBuffer@@UAE_NKKEEQAE@Z 0051a4a0 f   ATI_Compress_MT:CodecBuffer.obj
 0001:00119650       ?WriteBlockB@CCodecBuffer@@UAE_NKKEEQAE@Z 0051a650 f   ATI_Compress_MT:CodecBuffer.obj
 0001:00119800       ?WriteBlockA@CCodecBuffer@@UAE_NKKEEQAE@Z 0051a800 f   ATI_Compress_MT:CodecBuffer.obj
 0001:001199b0       ?WriteBlockR@CCodecBuffer@@UAE_NKKEEQAG@Z 0051a9b0 f   ATI_Compress_MT:CodecBuffer.obj
 0001:00119b50       ?WriteBlockG@CCodecBuffer@@UAE_NKKEEQAG@Z 0051ab50 f   ATI_Compress_MT:CodecBuffer.obj
 0001:00119d00       ?WriteBlockB@CCodecBuffer@@UAE_NKKEEQAG@Z 0051ad00 f   ATI_Compress_MT:CodecBuffer.obj
 0001:00119eb0       ?WriteBlockA@CCodecBuffer@@UAE_NKKEEQAG@Z 0051aeb0 f   ATI_Compress_MT:CodecBuffer.obj
 0001:0011a060       ?WriteBlockR@CCodecBuffer@@UAE_NKKEEQAK@Z 0051b060 f   ATI_Compress_MT:CodecBuffer.obj
 0001:0011a200       ?WriteBlockG@CCodecBuffer@@UAE_NKKEEQAK@Z 0051b200 f   ATI_Compress_MT:CodecBuffer.obj
 0001:0011a3b0       ?WriteBlockB@CCodecBuffer@@UAE_NKKEEQAK@Z 0051b3b0 f   ATI_Compress_MT:CodecBuffer.obj
 0001:0011a560       ?WriteBlockA@CCodecBuffer@@UAE_NKKEEQAK@Z 0051b560 f   ATI_Compress_MT:CodecBuffer.obj
 0001:0011a710       ?WriteBlockR@CCodecBuffer@@UAE_NKKEEQAVhalf@@@Z 0051b710 f   ATI_Compress_MT:CodecBuffer.obj
 0001:0011a8b0       ?WriteBlockG@CCodecBuffer@@UAE_NKKEEQAVhalf@@@Z 0051b8b0 f   ATI_Compress_MT:CodecBuffer.obj
 0001:0011aa60       ?WriteBlockB@CCodecBuffer@@UAE_NKKEEQAVhalf@@@Z 0051ba60 f   ATI_Compress_MT:CodecBuffer.obj
 0001:0011ac10       ?WriteBlockA@CCodecBuffer@@UAE_NKKEEQAVhalf@@@Z 0051bc10 f   ATI_Compress_MT:CodecBuffer.obj
 0001:0011adc0       ?WriteBlockR@CCodecBuffer@@UAE_NKKEEQAM@Z 0051bdc0 f   ATI_Compress_MT:CodecBuffer.obj
 0001:0011af60       ?WriteBlockG@CCodecBuffer@@UAE_NKKEEQAM@Z 0051bf60 f   ATI_Compress_MT:CodecBuffer.obj
 0001:0011b110       ?WriteBlockB@CCodecBuffer@@UAE_NKKEEQAM@Z 0051c110 f   ATI_Compress_MT:CodecBuffer.obj
 0001:0011b2c0       ?WriteBlockA@CCodecBuffer@@UAE_NKKEEQAM@Z 0051c2c0 f   ATI_Compress_MT:CodecBuffer.obj
 0001:0011b470       ?WriteBlockR@CCodecBuffer@@UAE_NKKEEQAN@Z 0051c470 f   ATI_Compress_MT:CodecBuffer.obj
 0001:0011b610       ?WriteBlockG@CCodecBuffer@@UAE_NKKEEQAN@Z 0051c610 f   ATI_Compress_MT:CodecBuffer.obj
 0001:0011b7c0       ?WriteBlockB@CCodecBuffer@@UAE_NKKEEQAN@Z 0051c7c0 f   ATI_Compress_MT:CodecBuffer.obj
 0001:0011b970       ?WriteBlockA@CCodecBuffer@@UAE_NKKEEQAN@Z 0051c970 f   ATI_Compress_MT:CodecBuffer.obj
 0001:0011bb20       ?WriteBlockRGBA@CCodecBuffer@@UAE_NKKEEQAE@Z 0051cb20 f   ATI_Compress_MT:CodecBuffer.obj
 0001:0011bd80       ?ReadBlockRGBA@CCodecBuffer@@UAE_NKKEEQAE@Z 0051cd80 f   ATI_Compress_MT:CodecBuffer.obj
 0001:0011bff0       ?WriteBlockRGBA@CCodecBuffer@@UAE_NKKEEQAK@Z 0051cff0 f   ATI_Compress_MT:CodecBuffer.obj
 0001:0011c180       ?ReadBlockRGBA@CCodecBuffer@@UAE_NKKEEQAK@Z 0051d180 f   ATI_Compress_MT:CodecBuffer.obj
 0001:0011c380       ?WriteBlockRGBA@CCodecBuffer@@UAE_NKKEEQAG@Z 0051d380 f   ATI_Compress_MT:CodecBuffer.obj
 0001:0011c510       ?ReadBlockRGBA@CCodecBuffer@@UAE_NKKEEQAG@Z 0051d510 f   ATI_Compress_MT:CodecBuffer.obj
 0001:0011c6d0       ?WriteBlockRGBA@CCodecBuffer@@UAE_NKKEEQAVhalf@@@Z 0051d6d0 f   ATI_Compress_MT:CodecBuffer.obj
 0001:0011c860       ?ReadBlockRGBA@CCodecBuffer@@UAE_NKKEEQAVhalf@@@Z 0051d860 f   ATI_Compress_MT:CodecBuffer.obj
 0001:0011ca20       ?WriteBlockRGBA@CCodecBuffer@@UAE_NKKEEQAM@Z 0051da20 f   ATI_Compress_MT:CodecBuffer.obj
 0001:0011cbb0       ?ReadBlockRGBA@CCodecBuffer@@UAE_NKKEEQAM@Z 0051dbb0 f   ATI_Compress_MT:CodecBuffer.obj
 0001:0011cd70       ?WriteBlockRGBA@CCodecBuffer@@UAE_NKKEEQAN@Z 0051dd70 f   ATI_Compress_MT:CodecBuffer.obj
 0001:0011cf00       ?ReadBlockRGBA@CCodecBuffer@@UAE_NKKEEQAN@Z 0051df00 f   ATI_Compress_MT:CodecBuffer.obj
 0001:0011d0c0       ?GetBufferType@CCodecBuffer@@UBE?AW4_CodecBufferType@@XZ 0051e0c0 f i ATI_Compress_MT:CodecBuffer.obj
 0001:0011d0d0       ??_GCCodecBuffer@@UAEPAXI@Z 0051e0d0 f i ATI_Compress_MT:CodecBuffer.obj
 0001:0011d0d0       ??_ECCodecBuffer@@UAEPAXI@Z 0051e0d0 f i ATI_Compress_MT:CodecBuffer.obj
 0001:0011d110       ??0CCodec_ETC_RGB@@QAE@XZ  0051e110 f   ATI_Compress_MT:Codec_ETC_RGB.obj
 0001:0011d130       ??1CCodec_ETC_RGB@@UAE@XZ  0051e130 f   ATI_Compress_MT:Codec_ETC_RGB.obj
 0001:0011d140       ?CreateBuffer@CCodec_ETC_RGB@@UBEPAVCCodecBuffer@@KKKPAE@Z 0051e140 f   ATI_Compress_MT:Codec_ETC_RGB.obj
 0001:0011d170       ?Compress@CCodec_ETC_RGB@@UAE?AW4_CODECError@@AAVCCodecBuffer@@0P6A_NMKK@ZKK@Z 0051e170 f   ATI_Compress_MT:Codec_ETC_RGB.obj
 0001:0011d310       ?Decompress@CCodec_ETC_RGB@@UAE?AW4_CODECError@@AAVCCodecBuffer@@0@Z 0051e310 f   ATI_Compress_MT:Codec_ETC_RGB.obj
 0001:0011d410       ?GetBlockHeight@CCodec_Block_4x4@@UAEKXZ 0051e410 f i ATI_Compress_MT:Codec_ETC_RGB.obj
 0001:0011d420       ??_GCCodec_ETC_RGB@@UAEPAXI@Z 0051e420 f i ATI_Compress_MT:Codec_ETC_RGB.obj
 0001:0011d420       ??_ECCodec_ETC_RGB@@UAEPAXI@Z 0051e420 f i ATI_Compress_MT:Codec_ETC_RGB.obj
 0001:0011d450       ??0CCodec_ATC_RGBA_Interpolated@@QAE@XZ 0051e450 f   ATI_Compress_MT:Codec_ATC_RGBA_Interpolated.obj
 0001:0011d470       ??1CCodec_ATC_RGBA_Interpolated@@UAE@XZ 0051e470 f   ATI_Compress_MT:Codec_ATC_RGBA_Interpolated.obj
 0001:0011d480       ?Compress@CCodec_ATC_RGBA_Interpolated@@UAE?AW4_CODECError@@AAVCCodecBuffer@@0P6A_NMKK@ZKK@Z 0051e480 f   ATI_Compress_MT:Codec_ATC_RGBA_Interpolated.obj
 0001:0011d620       ?Decompress@CCodec_ATC_RGBA_Interpolated@@UAE?AW4_CODECError@@AAVCCodecBuffer@@0@Z 0051e620 f   ATI_Compress_MT:Codec_ATC_RGBA_Interpolated.obj
 0001:0011d720       ??_ECCodec_ATC_RGBA_Interpolated@@UAEPAXI@Z 0051e720 f i ATI_Compress_MT:Codec_ATC_RGBA_Interpolated.obj
 0001:0011d720       ??_GCCodec_ATC_RGBA_Interpolated@@UAEPAXI@Z 0051e720 f i ATI_Compress_MT:Codec_ATC_RGBA_Interpolated.obj
 0001:0011d750       ??0CCodec_ATC_RGBA_Explicit@@QAE@XZ 0051e750 f   ATI_Compress_MT:Codec_ATC_RGBA_Explicit.obj
 0001:0011d770       ??1CCodec_ATC_RGBA_Explicit@@UAE@XZ 0051e770 f   ATI_Compress_MT:Codec_ATC_RGBA_Explicit.obj
 0001:0011d780       ?Compress@CCodec_ATC_RGBA_Explicit@@UAE?AW4_CODECError@@AAVCCodecBuffer@@0P6A_NMKK@ZKK@Z 0051e780 f   ATI_Compress_MT:Codec_ATC_RGBA_Explicit.obj
 0001:0011d920       ?Decompress@CCodec_ATC_RGBA_Explicit@@UAE?AW4_CODECError@@AAVCCodecBuffer@@0@Z 0051e920 f   ATI_Compress_MT:Codec_ATC_RGBA_Explicit.obj
 0001:0011da20       ??_GCCodec_ATC_RGBA_Explicit@@UAEPAXI@Z 0051ea20 f i ATI_Compress_MT:Codec_ATC_RGBA_Explicit.obj
 0001:0011da20       ??_ECCodec_ATC_RGBA_Explicit@@UAEPAXI@Z 0051ea20 f i ATI_Compress_MT:Codec_ATC_RGBA_Explicit.obj
 0001:0011da50       ??0CCodec_ATC_RGB@@QAE@XZ  0051ea50 f   ATI_Compress_MT:Codec_ATC_RGB.obj
 0001:0011da70       ??1CCodec_ATC_RGB@@UAE@XZ  0051ea70 f   ATI_Compress_MT:Codec_ATC_RGB.obj
 0001:0011da80       ?CreateBuffer@CCodec_ATC_RGB@@UBEPAVCCodecBuffer@@KKKPAE@Z 0051ea80 f   ATI_Compress_MT:Codec_ATC_RGB.obj
 0001:0011dab0       ?Compress@CCodec_ATC_RGB@@UAE?AW4_CODECError@@AAVCCodecBuffer@@0P6A_NMKK@ZKK@Z 0051eab0 f   ATI_Compress_MT:Codec_ATC_RGB.obj
 0001:0011dc40       ?Decompress@CCodec_ATC_RGB@@UAE?AW4_CODECError@@AAVCCodecBuffer@@0@Z 0051ec40 f   ATI_Compress_MT:Codec_ATC_RGB.obj
 0001:0011dd40       ??_ECCodec_ATC_RGB@@UAEPAXI@Z 0051ed40 f i ATI_Compress_MT:Codec_ATC_RGB.obj
 0001:0011dd40       ??_GCCodec_ATC_RGB@@UAEPAXI@Z 0051ed40 f i ATI_Compress_MT:Codec_ATC_RGB.obj
 0001:0011dd70       ??0CCodec_ATI2N_DXT5@@QAE@XZ 0051ed70 f   ATI_Compress_MT:Codec_ATI2N_DXT5.obj
 0001:0011dd90       ??1CCodec_ATI2N_DXT5@@UAE@XZ 0051ed90 f   ATI_Compress_MT:Codec_ATI2N_DXT5.obj
 0001:0011dda0       ?Compress@CCodec_ATI2N_DXT5@@UAE?AW4_CODECError@@AAVCCodecBuffer@@0P6A_NMKK@ZKK@Z 0051eda0 f   ATI_Compress_MT:Codec_ATI2N_DXT5.obj
 0001:0011e050       ?Decompress@CCodec_ATI2N_DXT5@@UAE?AW4_CODECError@@AAVCCodecBuffer@@0@Z 0051f050 f   ATI_Compress_MT:Codec_ATI2N_DXT5.obj
 0001:0011e260       ??_ECCodec_ATI2N_DXT5@@UAEPAXI@Z 0051f260 f i ATI_Compress_MT:Codec_ATI2N_DXT5.obj
 0001:0011e260       ??_GCCodec_ATI2N_DXT5@@UAEPAXI@Z 0051f260 f i ATI_Compress_MT:Codec_ATI2N_DXT5.obj
 0001:0011e290       ??0CCodec_ATI2N@@QAE@W4_CodecType@@@Z 0051f290 f   ATI_Compress_MT:Codec_ATI2N.obj
 0001:0011e2b0       ??1CCodec_ATI2N@@UAE@XZ    0051f2b0 f   ATI_Compress_MT:Codec_ATI2N.obj
 0001:0011e2c0       ?Compress@CCodec_ATI2N@@UAE?AW4_CODECError@@AAVCCodecBuffer@@0P6A_NMKK@ZKK@Z 0051f2c0 f   ATI_Compress_MT:Codec_ATI2N.obj
 0001:0011e570       ?Compress_Fast@CCodec_ATI2N@@UAE?AW4_CODECError@@AAVCCodecBuffer@@0P6A_NMKK@ZKK@Z 0051f570 f   ATI_Compress_MT:Codec_ATI2N.obj
 0001:0011e760       ?Decompress@CCodec_ATI2N@@UAE?AW4_CODECError@@AAVCCodecBuffer@@0@Z 0051f760 f   ATI_Compress_MT:Codec_ATI2N.obj
 0001:0011ea50       ?DeriveBlockB@CCodec_ATI2N@@MAEXQAE00@Z 0051fa50 f   ATI_Compress_MT:Codec_ATI2N.obj
 0001:0011eaa0       ?DeriveBlockB@CCodec_ATI2N@@MAEXQAM00@Z 0051faa0 f   ATI_Compress_MT:Codec_ATI2N.obj
 0001:0011eaf0       ??_GCCodec_ATI2N@@UAEPAXI@Z 0051faf0 f i ATI_Compress_MT:Codec_ATI2N.obj
 0001:0011eaf0       ??_ECCodec_ATI2N@@UAEPAXI@Z 0051faf0 f i ATI_Compress_MT:Codec_ATI2N.obj
 0001:0011eb20       ??0CCodec_ATI1N@@QAE@W4_CodecType@@@Z 0051fb20 f   ATI_Compress_MT:Codec_ATI1N.obj
 0001:0011eb40       ??1CCodec_ATI1N@@UAE@XZ    0051fb40 f   ATI_Compress_MT:Codec_ATI1N.obj
 0001:0011eb50       ?CreateBuffer@CCodec_ATI1N@@UBEPAVCCodecBuffer@@KKKPAE@Z 0051fb50 f   ATI_Compress_MT:Codec_ATI1N.obj
 0001:0011eb80       ?Compress@CCodec_ATI1N@@UAE?AW4_CODECError@@AAVCCodecBuffer@@0P6A_NMKK@ZKK@Z 0051fb80 f   ATI_Compress_MT:Codec_ATI1N.obj
 0001:0011edc0       ?Compress_Fast@CCodec_ATI1N@@UAE?AW4_CODECError@@AAVCCodecBuffer@@0P6A_NMKK@ZKK@Z 0051fdc0 f   ATI_Compress_MT:Codec_ATI1N.obj
 0001:0011ef50       ?Decompress@CCodec_ATI1N@@UAE?AW4_CODECError@@AAVCCodecBuffer@@0@Z 0051ff50 f   ATI_Compress_MT:Codec_ATI1N.obj
 0001:0011f150       ??_ECCodec_ATI1N@@UAEPAXI@Z 00520150 f i ATI_Compress_MT:Codec_ATI1N.obj
 0001:0011f150       ??_GCCodec_ATI1N@@UAEPAXI@Z 00520150 f i ATI_Compress_MT:Codec_ATI1N.obj
 0001:0011f180       ??0CCodec_DXT5_xGxR@@QAE@XZ 00520180 f   ATI_Compress_MT:Codec_DXT5_xGxR.obj
 0001:0011f1a0       ??1CCodec_DXT5_xGxR@@UAE@XZ 005201a0 f   ATI_Compress_MT:Codec_DXT5_xGxR.obj
 0001:0011f1b0       ?ReadBlock@CCodec_DXT5_xGxR@@MAEXAAVCCodecBuffer@@KKQAE@Z 005201b0 f   ATI_Compress_MT:Codec_DXT5_xGxR.obj
 0001:0011f290       ?WriteBlock@CCodec_DXT5_xGxR@@MAEXAAVCCodecBuffer@@KKQAE@Z 00520290 f   ATI_Compress_MT:Codec_DXT5_xGxR.obj
 0001:0011f380       ?ReadBlock@CCodec_DXT5_xGxR@@MAEXAAVCCodecBuffer@@KKQAM@Z 00520380 f   ATI_Compress_MT:Codec_DXT5_xGxR.obj
 0001:0011f3f0       ?WriteBlock@CCodec_DXT5_xGxR@@MAEXAAVCCodecBuffer@@KKQAM@Z 005203f0 f   ATI_Compress_MT:Codec_DXT5_xGxR.obj
 0001:0011f480       ??_ECCodec_DXT5_xGxR@@UAEPAXI@Z 00520480 f i ATI_Compress_MT:Codec_DXT5_xGxR.obj
 0001:0011f480       ??_GCCodec_DXT5_xGxR@@UAEPAXI@Z 00520480 f i ATI_Compress_MT:Codec_DXT5_xGxR.obj
 0001:0011f4b0       ??0CCodec_DXT5_RGxB@@QAE@XZ 005204b0 f   ATI_Compress_MT:Codec_DXT5_RGxB.obj
 0001:0011f4d0       ??1CCodec_DXT5_RGxB@@UAE@XZ 005204d0 f   ATI_Compress_MT:Codec_DXT5_RGxB.obj
 0001:0011f4e0       ?ReadBlock@CCodec_DXT5_RGxB@@MAEXAAVCCodecBuffer@@KKQAE@Z 005204e0 f   ATI_Compress_MT:Codec_DXT5_RGxB.obj
 0001:0011f600       ?WriteBlock@CCodec_DXT5_RGxB@@MAEXAAVCCodecBuffer@@KKQAE@Z 00520600 f   ATI_Compress_MT:Codec_DXT5_RGxB.obj
 0001:0011f710       ?ReadBlock@CCodec_DXT5_RGxB@@MAEXAAVCCodecBuffer@@KKQAM@Z 00520710 f   ATI_Compress_MT:Codec_DXT5_RGxB.obj
 0001:0011f790       ?WriteBlock@CCodec_DXT5_RGxB@@MAEXAAVCCodecBuffer@@KKQAM@Z 00520790 f   ATI_Compress_MT:Codec_DXT5_RGxB.obj
 0001:0011f810       ??_ECCodec_DXT5_RGxB@@UAEPAXI@Z 00520810 f i ATI_Compress_MT:Codec_DXT5_RGxB.obj
 0001:0011f810       ??_GCCodec_DXT5_RGxB@@UAEPAXI@Z 00520810 f i ATI_Compress_MT:Codec_DXT5_RGxB.obj
 0001:0011f840       ??0CCodec_DXT5_xRBG@@QAE@XZ 00520840 f   ATI_Compress_MT:Codec_DXT5_xRBG.obj
 0001:0011f860       ??1CCodec_DXT5_xRBG@@UAE@XZ 00520860 f   ATI_Compress_MT:Codec_DXT5_xRBG.obj
 0001:0011f870       ?ReadBlock@CCodec_DXT5_xRBG@@MAEXAAVCCodecBuffer@@KKQAE@Z 00520870 f   ATI_Compress_MT:Codec_DXT5_xRBG.obj
 0001:0011f980       ?WriteBlock@CCodec_DXT5_xRBG@@MAEXAAVCCodecBuffer@@KKQAE@Z 00520980 f   ATI_Compress_MT:Codec_DXT5_xRBG.obj
 0001:0011fa90       ?ReadBlock@CCodec_DXT5_xRBG@@MAEXAAVCCodecBuffer@@KKQAM@Z 00520a90 f   ATI_Compress_MT:Codec_DXT5_xRBG.obj
 0001:0011fb10       ?WriteBlock@CCodec_DXT5_xRBG@@MAEXAAVCCodecBuffer@@KKQAM@Z 00520b10 f   ATI_Compress_MT:Codec_DXT5_xRBG.obj
 0001:0011fb90       ?SetParameter@CCodec_DXT5_xRBG@@UAE_NPBDM@Z 00520b90 f   ATI_Compress_MT:Codec_DXT5_xRBG.obj
 0001:0011fc20       ?GetParameter@CCodec_DXT5_xRBG@@UAE_NPBDAAM@Z 00520c20 f   ATI_Compress_MT:Codec_DXT5_xRBG.obj
 0001:0011fca0       __tcscmp                   00520ca0 f i ATI_Compress_MT:Codec_DXT5_xRBG.obj
 0001:0011fcb0       ??_ECCodec_DXT5_xRBG@@UAEPAXI@Z 00520cb0 f i ATI_Compress_MT:Codec_DXT5_xRBG.obj
 0001:0011fcb0       ??_GCCodec_DXT5_xRBG@@UAEPAXI@Z 00520cb0 f i ATI_Compress_MT:Codec_DXT5_xRBG.obj
 0001:0011fce0       ??0CCodec_DXT5_RBxG@@QAE@XZ 00520ce0 f   ATI_Compress_MT:Codec_DXT5_RBxG.obj
 0001:0011fd00       ??1CCodec_DXT5_RBxG@@UAE@XZ 00520d00 f   ATI_Compress_MT:Codec_DXT5_RBxG.obj
 0001:0011fd10       ?ReadBlock@CCodec_DXT5_RBxG@@MAEXAAVCCodecBuffer@@KKQAE@Z 00520d10 f   ATI_Compress_MT:Codec_DXT5_RBxG.obj
 0001:0011fe30       ?WriteBlock@CCodec_DXT5_RBxG@@MAEXAAVCCodecBuffer@@KKQAE@Z 00520e30 f   ATI_Compress_MT:Codec_DXT5_RBxG.obj
 0001:0011ff40       ?ReadBlock@CCodec_DXT5_RBxG@@MAEXAAVCCodecBuffer@@KKQAM@Z 00520f40 f   ATI_Compress_MT:Codec_DXT5_RBxG.obj
 0001:0011ffc0       ?WriteBlock@CCodec_DXT5_RBxG@@MAEXAAVCCodecBuffer@@KKQAM@Z 00520fc0 f   ATI_Compress_MT:Codec_DXT5_RBxG.obj
 0001:00120040       ?SetParameter@CCodec_DXT5_RBxG@@UAE_NPBDM@Z 00521040 f   ATI_Compress_MT:Codec_DXT5_RBxG.obj
 0001:001200d0       ?GetParameter@CCodec_DXT5_RBxG@@UAE_NPBDAAM@Z 005210d0 f   ATI_Compress_MT:Codec_DXT5_RBxG.obj
 0001:00120150       ??_ECCodec_DXT5_RBxG@@UAEPAXI@Z 00521150 f i ATI_Compress_MT:Codec_DXT5_RBxG.obj
 0001:00120150       ??_GCCodec_DXT5_RBxG@@UAEPAXI@Z 00521150 f i ATI_Compress_MT:Codec_DXT5_RBxG.obj
 0001:00120180       ??0CCodec_DXT5_RxBG@@QAE@XZ 00521180 f   ATI_Compress_MT:Codec_DXT5_RxBG.obj
 0001:001201a0       ??1CCodec_DXT5_RxBG@@UAE@XZ 005211a0 f   ATI_Compress_MT:Codec_DXT5_RxBG.obj
 0001:001201b0       ?ReadBlock@CCodec_DXT5_RxBG@@MAEXAAVCCodecBuffer@@KKQAE@Z 005211b0 f   ATI_Compress_MT:Codec_DXT5_RxBG.obj
 0001:001202c0       ?WriteBlock@CCodec_DXT5_RxBG@@MAEXAAVCCodecBuffer@@KKQAE@Z 005212c0 f   ATI_Compress_MT:Codec_DXT5_RxBG.obj
 0001:001203d0       ?ReadBlock@CCodec_DXT5_RxBG@@MAEXAAVCCodecBuffer@@KKQAM@Z 005213d0 f   ATI_Compress_MT:Codec_DXT5_RxBG.obj
 0001:00120450       ?WriteBlock@CCodec_DXT5_RxBG@@MAEXAAVCCodecBuffer@@KKQAM@Z 00521450 f   ATI_Compress_MT:Codec_DXT5_RxBG.obj
 0001:001204d0       ??_ECCodec_DXT5_RxBG@@UAEPAXI@Z 005214d0 f i ATI_Compress_MT:Codec_DXT5_RxBG.obj
 0001:001204d0       ??_GCCodec_DXT5_RxBG@@UAEPAXI@Z 005214d0 f i ATI_Compress_MT:Codec_DXT5_RxBG.obj
 0001:00120500       ??0CCodec_DXT5_xGBR@@QAE@XZ 00521500 f   ATI_Compress_MT:Codec_DXT5_xGBR.obj
 0001:00120520       ??1CCodec_DXT5_xGBR@@UAE@XZ 00521520 f   ATI_Compress_MT:Codec_DXT5_xGBR.obj
 0001:00120530       ?ReadBlock@CCodec_DXT5_xGBR@@MAEXAAVCCodecBuffer@@KKQAE@Z 00521530 f   ATI_Compress_MT:Codec_DXT5_xGBR.obj
 0001:00120640       ?WriteBlock@CCodec_DXT5_xGBR@@MAEXAAVCCodecBuffer@@KKQAE@Z 00521640 f   ATI_Compress_MT:Codec_DXT5_xGBR.obj
 0001:00120750       ?ReadBlock@CCodec_DXT5_xGBR@@MAEXAAVCCodecBuffer@@KKQAM@Z 00521750 f   ATI_Compress_MT:Codec_DXT5_xGBR.obj
 0001:001207d0       ?WriteBlock@CCodec_DXT5_xGBR@@MAEXAAVCCodecBuffer@@KKQAM@Z 005217d0 f   ATI_Compress_MT:Codec_DXT5_xGBR.obj
 0001:00120860       ??_GCCodec_DXT5_xGBR@@UAEPAXI@Z 00521860 f i ATI_Compress_MT:Codec_DXT5_xGBR.obj
 0001:00120860       ??_ECCodec_DXT5_xGBR@@UAEPAXI@Z 00521860 f i ATI_Compress_MT:Codec_DXT5_xGBR.obj
 0001:00120890       ??0CCodec_DXT5@@QAE@XZ     00521890 f   ATI_Compress_MT:Codec_DXT5.obj
 0001:001208b0       ??1CCodec_DXT5@@UAE@XZ     005218b0 f   ATI_Compress_MT:Codec_DXT5.obj
 0001:001208c0       ?Compress@CCodec_DXT5@@UAE?AW4_CODECError@@AAVCCodecBuffer@@0P6A_NMKK@ZKK@Z 005218c0 f   ATI_Compress_MT:Codec_DXT5.obj
 0001:00120b40       ?Compress_Fast@CCodec_DXT5@@UAE?AW4_CODECError@@AAVCCodecBuffer@@0P6A_NMKK@ZKK@Z 00521b40 f   ATI_Compress_MT:Codec_DXT5.obj
 0001:00120ce0       ?Compress_SuperFast@CCodec_DXT5@@UAE?AW4_CODECError@@AAVCCodecBuffer@@0P6A_NMKK@ZKK@Z 00521ce0 f   ATI_Compress_MT:Codec_DXT5.obj
 0001:00120e80       ?Decompress@CCodec_DXT5@@UAE?AW4_CODECError@@AAVCCodecBuffer@@0@Z 00521e80 f   ATI_Compress_MT:Codec_DXT5.obj
 0001:00120ff0       ??_ECCodec_DXT5@@UAEPAXI@Z 00521ff0 f i ATI_Compress_MT:Codec_DXT5.obj
 0001:00120ff0       ??_GCCodec_DXT5@@UAEPAXI@Z 00521ff0 f i ATI_Compress_MT:Codec_DXT5.obj
 0001:00121020       ??0CCodec_DXT3@@QAE@XZ     00522020 f   ATI_Compress_MT:Codec_DXT3.obj
 0001:00121040       ??1CCodec_DXT3@@UAE@XZ     00522040 f   ATI_Compress_MT:Codec_DXT3.obj
 0001:00121050       ?Compress@CCodec_DXT3@@UAE?AW4_CODECError@@AAVCCodecBuffer@@0P6A_NMKK@ZKK@Z 00522050 f   ATI_Compress_MT:Codec_DXT3.obj
 0001:001212d0       ?Compress_Fast@CCodec_DXT3@@UAE?AW4_CODECError@@AAVCCodecBuffer@@0P6A_NMKK@ZKK@Z 005222d0 f   ATI_Compress_MT:Codec_DXT3.obj
 0001:00121470       ?Compress_SuperFast@CCodec_DXT3@@UAE?AW4_CODECError@@AAVCCodecBuffer@@0P6A_NMKK@ZKK@Z 00522470 f   ATI_Compress_MT:Codec_DXT3.obj
 0001:00121610       ?Decompress@CCodec_DXT3@@UAE?AW4_CODECError@@AAVCCodecBuffer@@0@Z 00522610 f   ATI_Compress_MT:Codec_DXT3.obj
 0001:00121780       ??_GCCodec_DXT3@@UAEPAXI@Z 00522780 f i ATI_Compress_MT:Codec_DXT3.obj
 0001:00121780       ??_ECCodec_DXT3@@UAEPAXI@Z 00522780 f i ATI_Compress_MT:Codec_DXT3.obj
 0001:001217b0       ??0CCodec_DXT1@@QAE@XZ     005227b0 f   ATI_Compress_MT:Codec_DXT1.obj
 0001:001217d0       ??1CCodec_DXT1@@UAE@XZ     005227d0 f   ATI_Compress_MT:Codec_DXT1.obj
 0001:001217e0       ?CreateBuffer@CCodec_DXT1@@UBEPAVCCodecBuffer@@KKKPAE@Z 005227e0 f   ATI_Compress_MT:Codec_DXT1.obj
 0001:00121810       ?Compress@CCodec_DXT1@@UAE?AW4_CODECError@@AAVCCodecBuffer@@0P6A_NMKK@ZKK@Z 00522810 f   ATI_Compress_MT:Codec_DXT1.obj
 0001:00121b10       ?Compress_Fast@CCodec_DXT1@@UAE?AW4_CODECError@@AAVCCodecBuffer@@0P6A_NMKK@ZKK@Z 00522b10 f   ATI_Compress_MT:Codec_DXT1.obj
 0001:00121ca0       ?Compress_SuperFast@CCodec_DXT1@@UAE?AW4_CODECError@@AAVCCodecBuffer@@0P6A_NMKK@ZKK@Z 00522ca0 f   ATI_Compress_MT:Codec_DXT1.obj
 0001:00121e30       ?Decompress@CCodec_DXT1@@UAE?AW4_CODECError@@AAVCCodecBuffer@@0@Z 00522e30 f   ATI_Compress_MT:Codec_DXT1.obj
 0001:00121fb0       ?SetParameter@CCodec_DXT1@@UAE_NPBDK@Z 00522fb0 f   ATI_Compress_MT:Codec_DXT1.obj
 0001:00122010       ?GetParameter@CCodec_DXT1@@UAE_NPBDAAK@Z 00523010 f   ATI_Compress_MT:Codec_DXT1.obj
 0001:00122080       ??_ECCodec_DXT1@@UAEPAXI@Z 00523080 f i ATI_Compress_MT:Codec_DXT1.obj
 0001:00122080       ??_GCCodec_DXT1@@UAEPAXI@Z 00523080 f i ATI_Compress_MT:Codec_DXT1.obj
 0001:001220b0       ?overflow@half@@CAMXZ      005230b0 f   ATI_Compress_MT:half.obj
 0001:001220e0       ?convert@half@@CAFH@Z      005230e0 f   ATI_Compress_MT:half.obj
 0001:00122190       ?GetData@CCodecBuffer@@IBEPAEXZ 00523190 f i ATI_Compress_MT:CodecBuffer_Block.obj
 0001:001221a0       ??0CCodecBuffer_Block@@QAE@W4_CodecBufferType@@KKKPAE@Z 005231a0 f   ATI_Compress_MT:CodecBuffer_Block.obj
 0001:001222e0       ??1CCodecBuffer_Block@@UAE@XZ 005232e0 f   ATI_Compress_MT:CodecBuffer_Block.obj
 0001:001222f0       ?ReadBlock@CCodecBuffer_Block@@UAE_NKKPAKK@Z 005232f0 f   ATI_Compress_MT:CodecBuffer_Block.obj
 0001:00122360       ?WriteBlock@CCodecBuffer_Block@@UAE_NKKPAKK@Z 00523360 f   ATI_Compress_MT:CodecBuffer_Block.obj
 0001:001223d0       ?GetBufferType@CCodecBuffer_Block@@UBE?AW4_CodecBufferType@@XZ 005233d0 f i ATI_Compress_MT:CodecBuffer_Block.obj
 0001:001223e0       ?GetChannelDepth@CCodecBuffer_Block@@UBEKXZ 005233e0 f i ATI_Compress_MT:CodecBuffer_Block.obj
 0001:001223f0       ?GetChannelCount@CCodecBuffer_Block@@UBEKXZ 005233f0 f i ATI_Compress_MT:CodecBuffer_Block.obj
 0001:00122400       ?IsFloat@CCodecBuffer_Block@@UBE_NXZ 00523400 f i ATI_Compress_MT:CodecBuffer_Block.obj
 0001:00122410       ??_ECCodecBuffer_Block@@UAEPAXI@Z 00523410 f i ATI_Compress_MT:CodecBuffer_Block.obj
 0001:00122410       ??_GCCodecBuffer_Block@@UAEPAXI@Z 00523410 f i ATI_Compress_MT:CodecBuffer_Block.obj
 0001:00122440       ??0CCodecBuffer_R32F@@QAE@KKKPAE@Z 00523440 f   ATI_Compress_MT:CodecBuffer_R32F.obj
 0001:001224a0       ??1CCodecBuffer_R32F@@UAE@XZ 005234a0 f   ATI_Compress_MT:CodecBuffer_R32F.obj
 0001:001224b0       ?Copy@CCodecBuffer_R32F@@UAEXAAVCCodecBuffer@@@Z 005234b0 f   ATI_Compress_MT:CodecBuffer_R32F.obj
 0001:00122570       ?WriteBlock@CCodecBuffer_R32F@@MAE_NKKEEQAMK@Z 00523570 f   ATI_Compress_MT:CodecBuffer_R32F.obj
 0001:001226b0       ?ReadBlockA@CCodecBuffer_R32F@@UAE_NKKEEQAM@Z 005236b0 f   ATI_Compress_MT:CodecBuffer_R32F.obj
 0001:001226f0       ?ReadBlockR@CCodecBuffer_R32F@@UAE_NKKEEQAM@Z 005236f0 f   ATI_Compress_MT:CodecBuffer_R32F.obj
 0001:00122720       ?ReadBlockG@CCodecBuffer_R32F@@UAE_NKKEEQAM@Z 00523720 f   ATI_Compress_MT:CodecBuffer_R32F.obj
 0001:00122760       ?ReadBlockB@CCodecBuffer_R32F@@UAE_NKKEEQAM@Z 00523760 f   ATI_Compress_MT:CodecBuffer_R32F.obj
 0001:001227a0       ?WriteBlockA@CCodecBuffer_R32F@@UAE_NKKEEQAM@Z 005237a0 f   ATI_Compress_MT:CodecBuffer_R32F.obj
 0001:001227c0       ?WriteBlockR@CCodecBuffer_R32F@@UAE_NKKEEQAM@Z 005237c0 f   ATI_Compress_MT:CodecBuffer_R32F.obj
 0001:001227f0       ?WriteBlockG@CCodecBuffer_R32F@@UAE_NKKEEQAM@Z 005237f0 f   ATI_Compress_MT:CodecBuffer_R32F.obj
 0001:00122810       ?WriteBlockB@CCodecBuffer_R32F@@UAE_NKKEEQAM@Z 00523810 f   ATI_Compress_MT:CodecBuffer_R32F.obj
 0001:00122830       ?WriteBlockRGBA@CCodecBuffer_R32F@@UAE_NKKEEQAM@Z 00523830 f   ATI_Compress_MT:CodecBuffer_R32F.obj
 0001:001228e0       ?ReadBlock@CCodecBuffer_R32F@@MAE_NKKEEQAMK@Z 005238e0 f   ATI_Compress_MT:CodecBuffer_R32F.obj
 0001:00122a80       ?ReadBlockRGBA@CCodecBuffer_R32F@@UAE_NKKEEQAM@Z 00523a80 f   ATI_Compress_MT:CodecBuffer_R32F.obj
 0001:00122c60       ?GetBufferType@CCodecBuffer_R32F@@UBE?AW4_CodecBufferType@@XZ 00523c60 f i ATI_Compress_MT:CodecBuffer_R32F.obj
 0001:00122c70       ?GetChannelDepth@CCodecBuffer_R32F@@UBEKXZ 00523c70 f i ATI_Compress_MT:CodecBuffer_R32F.obj
 0001:00122c80       ?GetChannelCount@CCodecBuffer_R32F@@UBEKXZ 00523c80 f i ATI_Compress_MT:CodecBuffer_R32F.obj
 0001:00122c90       ?IsFloat@CCodecBuffer_R32F@@UBE_NXZ 00523c90 f i ATI_Compress_MT:CodecBuffer_R32F.obj
 0001:00122ca0       ??$PadLine@M@@YAXKEEQAM@Z  00523ca0 f i ATI_Compress_MT:CodecBuffer_R32F.obj
 0001:00122d00       ??$PadBlock@M@@YAXKEEEQAM@Z 00523d00 f i ATI_Compress_MT:CodecBuffer_R32F.obj
 0001:00122d70       ??_GCCodecBuffer_R32F@@UAEPAXI@Z 00523d70 f i ATI_Compress_MT:CodecBuffer_R32F.obj
 0001:00122d70       ??_ECCodecBuffer_R32F@@UAEPAXI@Z 00523d70 f i ATI_Compress_MT:CodecBuffer_R32F.obj
 0001:00122da0       ??0CCodecBuffer_RG32F@@QAE@KKKPAE@Z 00523da0 f   ATI_Compress_MT:CodecBuffer_RG32F.obj
 0001:00122e00       ??1CCodecBuffer_RG32F@@UAE@XZ 00523e00 f   ATI_Compress_MT:CodecBuffer_RG32F.obj
 0001:00122e10       ?Copy@CCodecBuffer_RG32F@@UAEXAAVCCodecBuffer@@@Z 00523e10 f   ATI_Compress_MT:CodecBuffer_RG32F.obj
 0001:00122ed0       ?WriteBlock@CCodecBuffer_RG32F@@MAE_NKKEEQAMK@Z 00523ed0 f   ATI_Compress_MT:CodecBuffer_RG32F.obj
 0001:00123010       ?ReadBlockA@CCodecBuffer_RG32F@@UAE_NKKEEQAM@Z 00524010 f   ATI_Compress_MT:CodecBuffer_RG32F.obj
 0001:00123050       ?ReadBlockR@CCodecBuffer_RG32F@@UAE_NKKEEQAM@Z 00524050 f   ATI_Compress_MT:CodecBuffer_RG32F.obj
 0001:00123080       ?ReadBlockG@CCodecBuffer_RG32F@@UAE_NKKEEQAM@Z 00524080 f   ATI_Compress_MT:CodecBuffer_RG32F.obj
 0001:001230b0       ?ReadBlockB@CCodecBuffer_RG32F@@UAE_NKKEEQAM@Z 005240b0 f   ATI_Compress_MT:CodecBuffer_RG32F.obj
 0001:001230f0       ?WriteBlockA@CCodecBuffer_RG32F@@UAE_NKKEEQAM@Z 005240f0 f   ATI_Compress_MT:CodecBuffer_RG32F.obj
 0001:00123110       ?WriteBlockR@CCodecBuffer_RG32F@@UAE_NKKEEQAM@Z 00524110 f   ATI_Compress_MT:CodecBuffer_RG32F.obj
 0001:00123140       ?WriteBlockG@CCodecBuffer_RG32F@@UAE_NKKEEQAM@Z 00524140 f   ATI_Compress_MT:CodecBuffer_RG32F.obj
 0001:00123170       ?WriteBlockB@CCodecBuffer_RG32F@@UAE_NKKEEQAM@Z 00524170 f   ATI_Compress_MT:CodecBuffer_RG32F.obj
 0001:00123190       ?WriteBlockRGBA@CCodecBuffer_RG32F@@UAE_NKKEEQAM@Z 00524190 f   ATI_Compress_MT:CodecBuffer_RG32F.obj
 0001:00123250       ?ReadBlock@CCodecBuffer_RG32F@@MAE_NKKEEQAMK@Z 00524250 f   ATI_Compress_MT:CodecBuffer_RG32F.obj
 0001:001233f0       ?ReadBlockRGBA@CCodecBuffer_RG32F@@UAE_NKKEEQAM@Z 005243f0 f   ATI_Compress_MT:CodecBuffer_RG32F.obj
 0001:00123610       ?GetBufferType@CCodecBuffer_RG32F@@UBE?AW4_CodecBufferType@@XZ 00524610 f i ATI_Compress_MT:CodecBuffer_RG32F.obj
 0001:00123620       ?GetChannelDepth@CCodecBuffer_RG32F@@UBEKXZ 00524620 f i ATI_Compress_MT:CodecBuffer_RG32F.obj
 0001:00123630       ?GetChannelCount@CCodecBuffer_RG32F@@UBEKXZ 00524630 f i ATI_Compress_MT:CodecBuffer_RG32F.obj
 0001:00123640       ?IsFloat@CCodecBuffer_RG32F@@UBE_NXZ 00524640 f i ATI_Compress_MT:CodecBuffer_RG32F.obj
 0001:00123650       ??_GCCodecBuffer_RG32F@@UAEPAXI@Z 00524650 f i ATI_Compress_MT:CodecBuffer_RG32F.obj
 0001:00123650       ??_ECCodecBuffer_RG32F@@UAEPAXI@Z 00524650 f i ATI_Compress_MT:CodecBuffer_RG32F.obj
 0001:00123680       ??0CCodecBuffer_RGBA32F@@QAE@KKKPAE@Z 00524680 f   ATI_Compress_MT:CodecBuffer_RGBA32F.obj
 0001:001236e0       ??1CCodecBuffer_RGBA32F@@UAE@XZ 005246e0 f   ATI_Compress_MT:CodecBuffer_RGBA32F.obj
 0001:001236f0       ?Copy@CCodecBuffer_RGBA32F@@UAEXAAVCCodecBuffer@@@Z 005246f0 f   ATI_Compress_MT:CodecBuffer_RGBA32F.obj
 0001:001237b0       ?WriteBlock@CCodecBuffer_RGBA32F@@MAE_NKKEEQAMK@Z 005247b0 f   ATI_Compress_MT:CodecBuffer_RGBA32F.obj
 0001:001238f0       ?ReadBlockA@CCodecBuffer_RGBA32F@@UAE_NKKEEQAM@Z 005248f0 f   ATI_Compress_MT:CodecBuffer_RGBA32F.obj
 0001:00123920       ?ReadBlockR@CCodecBuffer_RGBA32F@@UAE_NKKEEQAM@Z 00524920 f   ATI_Compress_MT:CodecBuffer_RGBA32F.obj
 0001:00123950       ?ReadBlockG@CCodecBuffer_RGBA32F@@UAE_NKKEEQAM@Z 00524950 f   ATI_Compress_MT:CodecBuffer_RGBA32F.obj
 0001:00123980       ?ReadBlockB@CCodecBuffer_RGBA32F@@UAE_NKKEEQAM@Z 00524980 f   ATI_Compress_MT:CodecBuffer_RGBA32F.obj
 0001:001239b0       ?WriteBlockA@CCodecBuffer_RGBA32F@@UAE_NKKEEQAM@Z 005249b0 f   ATI_Compress_MT:CodecBuffer_RGBA32F.obj
 0001:001239e0       ?WriteBlockR@CCodecBuffer_RGBA32F@@UAE_NKKEEQAM@Z 005249e0 f   ATI_Compress_MT:CodecBuffer_RGBA32F.obj
 0001:00123a10       ?WriteBlockG@CCodecBuffer_RGBA32F@@UAE_NKKEEQAM@Z 00524a10 f   ATI_Compress_MT:CodecBuffer_RGBA32F.obj
 0001:00123a40       ?WriteBlockB@CCodecBuffer_RGBA32F@@UAE_NKKEEQAM@Z 00524a40 f   ATI_Compress_MT:CodecBuffer_RGBA32F.obj
 0001:00123a70       ?WriteBlockRGBA@CCodecBuffer_RGBA32F@@UAE_NKKEEQAM@Z 00524a70 f   ATI_Compress_MT:CodecBuffer_RGBA32F.obj
 0001:00123b00       ?ReadBlock@CCodecBuffer_RGBA32F@@MAE_NKKEEQAMK@Z 00524b00 f   ATI_Compress_MT:CodecBuffer_RGBA32F.obj
 0001:00123ca0       ?ReadBlockRGBA@CCodecBuffer_RGBA32F@@UAE_NKKEEQAM@Z 00524ca0 f   ATI_Compress_MT:CodecBuffer_RGBA32F.obj
 0001:00123df0       ?GetBufferType@CCodecBuffer_RGBA32F@@UBE?AW4_CodecBufferType@@XZ 00524df0 f i ATI_Compress_MT:CodecBuffer_RGBA32F.obj
 0001:00123e00       ?GetChannelDepth@CCodecBuffer_RGBA32F@@UBEKXZ 00524e00 f i ATI_Compress_MT:CodecBuffer_RGBA32F.obj
 0001:00123e10       ?GetChannelCount@CCodecBuffer_RGBA32F@@UBEKXZ 00524e10 f i ATI_Compress_MT:CodecBuffer_RGBA32F.obj
 0001:00123e20       ?IsFloat@CCodecBuffer_RGBA32F@@UBE_NXZ 00524e20 f i ATI_Compress_MT:CodecBuffer_RGBA32F.obj
 0001:00123e30       ??_GCCodecBuffer_RGBA32F@@UAEPAXI@Z 00524e30 f i ATI_Compress_MT:CodecBuffer_RGBA32F.obj
 0001:00123e30       ??_ECCodecBuffer_RGBA32F@@UAEPAXI@Z 00524e30 f i ATI_Compress_MT:CodecBuffer_RGBA32F.obj
 0001:00123e60       ??0CCodecBuffer_R32@@QAE@KKKPAE@Z 00524e60 f   ATI_Compress_MT:CodecBuffer_R32.obj
 0001:00123ec0       ??1CCodecBuffer_R32@@UAE@XZ 00524ec0 f   ATI_Compress_MT:CodecBuffer_R32.obj
 0001:00123ed0       ?Copy@CCodecBuffer_R32@@UAEXAAVCCodecBuffer@@@Z 00524ed0 f   ATI_Compress_MT:CodecBuffer_R32.obj
 0001:00123f90       ?WriteBlock@CCodecBuffer_R32@@MAE_NKKEEQAKK@Z 00524f90 f   ATI_Compress_MT:CodecBuffer_R32.obj
 0001:00124050       ?ReadBlockA@CCodecBuffer_R32@@UAE_NKKEEQAK@Z 00525050 f   ATI_Compress_MT:CodecBuffer_R32.obj
 0001:00124090       ?ReadBlockR@CCodecBuffer_R32@@UAE_NKKEEQAK@Z 00525090 f   ATI_Compress_MT:CodecBuffer_R32.obj
 0001:001240c0       ?ReadBlockG@CCodecBuffer_R32@@UAE_NKKEEQAK@Z 005250c0 f   ATI_Compress_MT:CodecBuffer_R32.obj
 0001:00124100       ?ReadBlockB@CCodecBuffer_R32@@UAE_NKKEEQAK@Z 00525100 f   ATI_Compress_MT:CodecBuffer_R32.obj
 0001:00124140       ?WriteBlockA@CCodecBuffer_R32@@UAE_NKKEEQAK@Z 00525140 f   ATI_Compress_MT:CodecBuffer_R32.obj
 0001:00124160       ?WriteBlockR@CCodecBuffer_R32@@UAE_NKKEEQAK@Z 00525160 f   ATI_Compress_MT:CodecBuffer_R32.obj
 0001:00124190       ?WriteBlockG@CCodecBuffer_R32@@UAE_NKKEEQAK@Z 00525190 f   ATI_Compress_MT:CodecBuffer_R32.obj
 0001:001241b0       ?WriteBlockB@CCodecBuffer_R32@@UAE_NKKEEQAK@Z 005251b0 f   ATI_Compress_MT:CodecBuffer_R32.obj
 0001:001241d0       ?WriteBlockRGBA@CCodecBuffer_R32@@UAE_NKKEEQAK@Z 005251d0 f   ATI_Compress_MT:CodecBuffer_R32.obj
 0001:00124280       ?ReadBlock@CCodecBuffer_R32@@MAE_NKKEEQAKK@Z 00525280 f   ATI_Compress_MT:CodecBuffer_R32.obj
 0001:001243e0       ?ReadBlockRGBA@CCodecBuffer_R32@@UAE_NKKEEQAK@Z 005253e0 f   ATI_Compress_MT:CodecBuffer_R32.obj
 0001:00124540       ?GetBufferType@CCodecBuffer_R32@@UBE?AW4_CodecBufferType@@XZ 00525540 f i ATI_Compress_MT:CodecBuffer_R32.obj
 0001:00124550       ?GetChannelDepth@CCodecBuffer_R32@@UBEKXZ 00525550 f i ATI_Compress_MT:CodecBuffer_R32.obj
 0001:00124560       ?GetChannelCount@CCodecBuffer_R32@@UBEKXZ 00525560 f i ATI_Compress_MT:CodecBuffer_R32.obj
 0001:00124570       ?IsFloat@CCodecBuffer_R32@@UBE_NXZ 00525570 f i ATI_Compress_MT:CodecBuffer_R32.obj
 0001:00124580       ??$PadLine@K@@YAXKEEQAK@Z  00525580 f i ATI_Compress_MT:CodecBuffer_R32.obj
 0001:001245e0       ??$PadBlock@K@@YAXKEEEQAK@Z 005255e0 f i ATI_Compress_MT:CodecBuffer_R32.obj
 0001:00124650       ??_ECCodecBuffer_R32@@UAEPAXI@Z 00525650 f i ATI_Compress_MT:CodecBuffer_R32.obj
 0001:00124650       ??_GCCodecBuffer_R32@@UAEPAXI@Z 00525650 f i ATI_Compress_MT:CodecBuffer_R32.obj
 0001:00124680       ??0CCodecBuffer_RG32@@QAE@KKKPAE@Z 00525680 f   ATI_Compress_MT:CodecBuffer_RG32.obj
 0001:001246e0       ??1CCodecBuffer_RG32@@UAE@XZ 005256e0 f   ATI_Compress_MT:CodecBuffer_RG32.obj
 0001:001246f0       ?Copy@CCodecBuffer_RG32@@UAEXAAVCCodecBuffer@@@Z 005256f0 f   ATI_Compress_MT:CodecBuffer_RG32.obj
 0001:001247b0       ?WriteBlock@CCodecBuffer_RG32@@MAE_NKKEEQAKK@Z 005257b0 f   ATI_Compress_MT:CodecBuffer_RG32.obj
 0001:00124870       ?ReadBlockA@CCodecBuffer_RG32@@UAE_NKKEEQAK@Z 00525870 f   ATI_Compress_MT:CodecBuffer_RG32.obj
 0001:001248b0       ?ReadBlockR@CCodecBuffer_RG32@@UAE_NKKEEQAK@Z 005258b0 f   ATI_Compress_MT:CodecBuffer_RG32.obj
 0001:001248e0       ?ReadBlockG@CCodecBuffer_RG32@@UAE_NKKEEQAK@Z 005258e0 f   ATI_Compress_MT:CodecBuffer_RG32.obj
 0001:00124910       ?ReadBlockB@CCodecBuffer_RG32@@UAE_NKKEEQAK@Z 00525910 f   ATI_Compress_MT:CodecBuffer_RG32.obj
 0001:00124950       ?WriteBlockA@CCodecBuffer_RG32@@UAE_NKKEEQAK@Z 00525950 f   ATI_Compress_MT:CodecBuffer_RG32.obj
 0001:00124970       ?WriteBlockR@CCodecBuffer_RG32@@UAE_NKKEEQAK@Z 00525970 f   ATI_Compress_MT:CodecBuffer_RG32.obj
 0001:001249a0       ?WriteBlockG@CCodecBuffer_RG32@@UAE_NKKEEQAK@Z 005259a0 f   ATI_Compress_MT:CodecBuffer_RG32.obj
 0001:001249d0       ?WriteBlockB@CCodecBuffer_RG32@@UAE_NKKEEQAK@Z 005259d0 f   ATI_Compress_MT:CodecBuffer_RG32.obj
 0001:001249f0       ?WriteBlockRGBA@CCodecBuffer_RG32@@UAE_NKKEEQAK@Z 005259f0 f   ATI_Compress_MT:CodecBuffer_RG32.obj
 0001:00124ab0       ?ReadBlock@CCodecBuffer_RG32@@MAE_NKKEEQAKK@Z 00525ab0 f   ATI_Compress_MT:CodecBuffer_RG32.obj
 0001:00124c10       ?ReadBlockRGBA@CCodecBuffer_RG32@@UAE_NKKEEQAK@Z 00525c10 f   ATI_Compress_MT:CodecBuffer_RG32.obj
 0001:00124d70       ?GetBufferType@CCodecBuffer_RG32@@UBE?AW4_CodecBufferType@@XZ 00525d70 f i ATI_Compress_MT:CodecBuffer_RG32.obj
 0001:00124d80       ?GetChannelDepth@CCodecBuffer_RG32@@UBEKXZ 00525d80 f i ATI_Compress_MT:CodecBuffer_RG32.obj
 0001:00124d90       ?GetChannelCount@CCodecBuffer_RG32@@UBEKXZ 00525d90 f i ATI_Compress_MT:CodecBuffer_RG32.obj
 0001:00124da0       ?IsFloat@CCodecBuffer_RG32@@UBE_NXZ 00525da0 f i ATI_Compress_MT:CodecBuffer_RG32.obj
 0001:00124db0       ??_GCCodecBuffer_RG32@@UAEPAXI@Z 00525db0 f i ATI_Compress_MT:CodecBuffer_RG32.obj
 0001:00124db0       ??_ECCodecBuffer_RG32@@UAEPAXI@Z 00525db0 f i ATI_Compress_MT:CodecBuffer_RG32.obj
 0001:00124de0       ??0CCodecBuffer_RGBA32@@QAE@KKKPAE@Z 00525de0 f   ATI_Compress_MT:CodecBuffer_RGBA32.obj
 0001:00124e40       ??1CCodecBuffer_RGBA32@@UAE@XZ 00525e40 f   ATI_Compress_MT:CodecBuffer_RGBA32.obj
 0001:00124e50       ?Copy@CCodecBuffer_RGBA32@@UAEXAAVCCodecBuffer@@@Z 00525e50 f   ATI_Compress_MT:CodecBuffer_RGBA32.obj
 0001:00124f10       ?WriteBlock@CCodecBuffer_RGBA32@@MAE_NKKEEQAKK@Z 00525f10 f   ATI_Compress_MT:CodecBuffer_RGBA32.obj
 0001:00124fd0       ?ReadBlockA@CCodecBuffer_RGBA32@@UAE_NKKEEQAK@Z 00525fd0 f   ATI_Compress_MT:CodecBuffer_RGBA32.obj
 0001:00125000       ?ReadBlockR@CCodecBuffer_RGBA32@@UAE_NKKEEQAK@Z 00526000 f   ATI_Compress_MT:CodecBuffer_RGBA32.obj
 0001:00125030       ?ReadBlockG@CCodecBuffer_RGBA32@@UAE_NKKEEQAK@Z 00526030 f   ATI_Compress_MT:CodecBuffer_RGBA32.obj
 0001:00125060       ?ReadBlockB@CCodecBuffer_RGBA32@@UAE_NKKEEQAK@Z 00526060 f   ATI_Compress_MT:CodecBuffer_RGBA32.obj
 0001:00125090       ?WriteBlockA@CCodecBuffer_RGBA32@@UAE_NKKEEQAK@Z 00526090 f   ATI_Compress_MT:CodecBuffer_RGBA32.obj
 0001:001250c0       ?WriteBlockR@CCodecBuffer_RGBA32@@UAE_NKKEEQAK@Z 005260c0 f   ATI_Compress_MT:CodecBuffer_RGBA32.obj
 0001:001250f0       ?WriteBlockG@CCodecBuffer_RGBA32@@UAE_NKKEEQAK@Z 005260f0 f   ATI_Compress_MT:CodecBuffer_RGBA32.obj
 0001:00125120       ?WriteBlockB@CCodecBuffer_RGBA32@@UAE_NKKEEQAK@Z 00526120 f   ATI_Compress_MT:CodecBuffer_RGBA32.obj
 0001:00125150       ?WriteBlockRGBA@CCodecBuffer_RGBA32@@UAE_NKKEEQAK@Z 00526150 f   ATI_Compress_MT:CodecBuffer_RGBA32.obj
 0001:001251e0       ?ReadBlock@CCodecBuffer_RGBA32@@MAE_NKKEEQAKK@Z 005261e0 f   ATI_Compress_MT:CodecBuffer_RGBA32.obj
 0001:00125340       ?ReadBlockRGBA@CCodecBuffer_RGBA32@@UAE_NKKEEQAK@Z 00526340 f   ATI_Compress_MT:CodecBuffer_RGBA32.obj
 0001:00125490       ?GetBufferType@CCodecBuffer_RGBA32@@UBE?AW4_CodecBufferType@@XZ 00526490 f i ATI_Compress_MT:CodecBuffer_RGBA32.obj
 0001:001254a0       ?GetChannelDepth@CCodecBuffer_RGBA32@@UBEKXZ 005264a0 f i ATI_Compress_MT:CodecBuffer_RGBA32.obj
 0001:001254b0       ?GetChannelCount@CCodecBuffer_RGBA32@@UBEKXZ 005264b0 f i ATI_Compress_MT:CodecBuffer_RGBA32.obj
 0001:001254c0       ?IsFloat@CCodecBuffer_RGBA32@@UBE_NXZ 005264c0 f i ATI_Compress_MT:CodecBuffer_RGBA32.obj
 0001:001254d0       ??_GCCodecBuffer_RGBA32@@UAEPAXI@Z 005264d0 f i ATI_Compress_MT:CodecBuffer_RGBA32.obj
 0001:001254d0       ??_ECCodecBuffer_RGBA32@@UAEPAXI@Z 005264d0 f i ATI_Compress_MT:CodecBuffer_RGBA32.obj
 0001:00125500       ??0CCodecBuffer_R16F@@QAE@KKKPAE@Z 00526500 f   ATI_Compress_MT:CodecBuffer_R16F.obj
 0001:00125550       ??1CCodecBuffer_R16F@@UAE@XZ 00526550 f   ATI_Compress_MT:CodecBuffer_R16F.obj
 0001:00125560       ?WriteBlock@CCodecBuffer_R16F@@MAE_NKKEEQAVhalf@@K@Z 00526560 f   ATI_Compress_MT:CodecBuffer_R16F.obj
 0001:00125620       ?ReadBlockA@CCodecBuffer_R16F@@UAE_NKKEEQAVhalf@@@Z 00526620 f   ATI_Compress_MT:CodecBuffer_R16F.obj
 0001:00125660       ?ReadBlockR@CCodecBuffer_R16F@@UAE_NKKEEQAVhalf@@@Z 00526660 f   ATI_Compress_MT:CodecBuffer_R16F.obj
 0001:00125690       ?ReadBlockG@CCodecBuffer_R16F@@UAE_NKKEEQAVhalf@@@Z 00526690 f   ATI_Compress_MT:CodecBuffer_R16F.obj
 0001:001256d0       ?ReadBlockB@CCodecBuffer_R16F@@UAE_NKKEEQAVhalf@@@Z 005266d0 f   ATI_Compress_MT:CodecBuffer_R16F.obj
 0001:00125710       ?WriteBlockA@CCodecBuffer_R16F@@UAE_NKKEEQAVhalf@@@Z 00526710 f   ATI_Compress_MT:CodecBuffer_R16F.obj
 0001:00125730       ?WriteBlockR@CCodecBuffer_R16F@@UAE_NKKEEQAVhalf@@@Z 00526730 f   ATI_Compress_MT:CodecBuffer_R16F.obj
 0001:00125760       ?WriteBlockG@CCodecBuffer_R16F@@UAE_NKKEEQAVhalf@@@Z 00526760 f   ATI_Compress_MT:CodecBuffer_R16F.obj
 0001:00125780       ?WriteBlockB@CCodecBuffer_R16F@@UAE_NKKEEQAVhalf@@@Z 00526780 f   ATI_Compress_MT:CodecBuffer_R16F.obj
 0001:001257a0       ?WriteBlockRGBA@CCodecBuffer_R16F@@UAE_NKKEEQAVhalf@@@Z 005267a0 f   ATI_Compress_MT:CodecBuffer_R16F.obj
 0001:00125860       ?Copy@CCodecBuffer_R16F@@UAEXAAVCCodecBuffer@@@Z 00526860 f   ATI_Compress_MT:CodecBuffer_R16F.obj
 0001:00125940       ?ReadBlock@CCodecBuffer_R16F@@MAE_NKKEEQAVhalf@@K@Z 00526940 f   ATI_Compress_MT:CodecBuffer_R16F.obj
 0001:00125aa0       ?ReadBlockRGBA@CCodecBuffer_R16F@@UAE_NKKEEQAVhalf@@@Z 00526aa0 f   ATI_Compress_MT:CodecBuffer_R16F.obj
 0001:00125c70       ?GetBufferType@CCodecBuffer_R16F@@UBE?AW4_CodecBufferType@@XZ 00526c70 f i ATI_Compress_MT:CodecBuffer_R16F.obj
 0001:00125c80       ?GetChannelDepth@CCodecBuffer_R16F@@UBEKXZ 00526c80 f i ATI_Compress_MT:CodecBuffer_R16F.obj
 0001:00125c90       ?GetChannelCount@CCodecBuffer_R16F@@UBEKXZ 00526c90 f i ATI_Compress_MT:CodecBuffer_R16F.obj
 0001:00125ca0       ?IsFloat@CCodecBuffer_R16F@@UBE_NXZ 00526ca0 f i ATI_Compress_MT:CodecBuffer_R16F.obj
 0001:00125cb0       ??$PadLine@Vhalf@@@@YAXKEEQAVhalf@@@Z 00526cb0 f i ATI_Compress_MT:CodecBuffer_R16F.obj
 0001:00125d10       ??$PadBlock@Vhalf@@@@YAXKEEEQAVhalf@@@Z 00526d10 f i ATI_Compress_MT:CodecBuffer_R16F.obj
 0001:00125d80       ??_ECCodecBuffer_R16F@@UAEPAXI@Z 00526d80 f i ATI_Compress_MT:CodecBuffer_R16F.obj
 0001:00125d80       ??_GCCodecBuffer_R16F@@UAEPAXI@Z 00526d80 f i ATI_Compress_MT:CodecBuffer_R16F.obj
 0001:00125db0       ??0CCodecBuffer_RG16F@@QAE@KKKPAE@Z 00526db0 f   ATI_Compress_MT:CodecBuffer_RG16F.obj
 0001:00125e10       ??1CCodecBuffer_RG16F@@UAE@XZ 00526e10 f   ATI_Compress_MT:CodecBuffer_RG16F.obj
 0001:00125e20       ?WriteBlock@CCodecBuffer_RG16F@@MAE_NKKEEQAVhalf@@K@Z 00526e20 f   ATI_Compress_MT:CodecBuffer_RG16F.obj
 0001:00125ee0       ?ReadBlockA@CCodecBuffer_RG16F@@UAE_NKKEEQAVhalf@@@Z 00526ee0 f   ATI_Compress_MT:CodecBuffer_RG16F.obj
 0001:00125f20       ?ReadBlockR@CCodecBuffer_RG16F@@UAE_NKKEEQAVhalf@@@Z 00526f20 f   ATI_Compress_MT:CodecBuffer_RG16F.obj
 0001:00125f50       ?ReadBlockG@CCodecBuffer_RG16F@@UAE_NKKEEQAVhalf@@@Z 00526f50 f   ATI_Compress_MT:CodecBuffer_RG16F.obj
 0001:00125f80       ?ReadBlockB@CCodecBuffer_RG16F@@UAE_NKKEEQAVhalf@@@Z 00526f80 f   ATI_Compress_MT:CodecBuffer_RG16F.obj
 0001:00125fc0       ?WriteBlockA@CCodecBuffer_RG16F@@UAE_NKKEEQAVhalf@@@Z 00526fc0 f   ATI_Compress_MT:CodecBuffer_RG16F.obj
 0001:00125fe0       ?WriteBlockR@CCodecBuffer_RG16F@@UAE_NKKEEQAVhalf@@@Z 00526fe0 f   ATI_Compress_MT:CodecBuffer_RG16F.obj
 0001:00126010       ?WriteBlockG@CCodecBuffer_RG16F@@UAE_NKKEEQAVhalf@@@Z 00527010 f   ATI_Compress_MT:CodecBuffer_RG16F.obj
 0001:00126040       ?WriteBlockB@CCodecBuffer_RG16F@@UAE_NKKEEQAVhalf@@@Z 00527040 f   ATI_Compress_MT:CodecBuffer_RG16F.obj
 0001:00126060       ?WriteBlockRGBA@CCodecBuffer_RG16F@@UAE_NKKEEQAVhalf@@@Z 00527060 f   ATI_Compress_MT:CodecBuffer_RG16F.obj
 0001:00126120       ?Copy@CCodecBuffer_RG16F@@UAEXAAVCCodecBuffer@@@Z 00527120 f   ATI_Compress_MT:CodecBuffer_RG16F.obj
 0001:00126200       ?ReadBlock@CCodecBuffer_RG16F@@MAE_NKKEEQAVhalf@@K@Z 00527200 f   ATI_Compress_MT:CodecBuffer_RG16F.obj
 0001:00126360       ?ReadBlockRGBA@CCodecBuffer_RG16F@@UAE_NKKEEQAVhalf@@@Z 00527360 f   ATI_Compress_MT:CodecBuffer_RG16F.obj
 0001:00126520       ?GetBufferType@CCodecBuffer_RG16F@@UBE?AW4_CodecBufferType@@XZ 00527520 f i ATI_Compress_MT:CodecBuffer_RG16F.obj
 0001:00126530       ?GetChannelDepth@CCodecBuffer_RG16F@@UBEKXZ 00527530 f i ATI_Compress_MT:CodecBuffer_RG16F.obj
 0001:00126540       ?GetChannelCount@CCodecBuffer_RG16F@@UBEKXZ 00527540 f i ATI_Compress_MT:CodecBuffer_RG16F.obj
 0001:00126550       ?IsFloat@CCodecBuffer_RG16F@@UBE_NXZ 00527550 f i ATI_Compress_MT:CodecBuffer_RG16F.obj
 0001:00126560       ??_GCCodecBuffer_RG16F@@UAEPAXI@Z 00527560 f i ATI_Compress_MT:CodecBuffer_RG16F.obj
 0001:00126560       ??_ECCodecBuffer_RG16F@@UAEPAXI@Z 00527560 f i ATI_Compress_MT:CodecBuffer_RG16F.obj
 0001:00126590       ??0CCodecBuffer_RGBA16F@@QAE@KKKPAE@Z 00527590 f   ATI_Compress_MT:CodecBuffer_RGBA16F.obj
 0001:001265f0       ??1CCodecBuffer_RGBA16F@@UAE@XZ 005275f0 f   ATI_Compress_MT:CodecBuffer_RGBA16F.obj
 0001:00126600       ?WriteBlock@CCodecBuffer_RGBA16F@@MAE_NKKEEQAVhalf@@K@Z 00527600 f   ATI_Compress_MT:CodecBuffer_RGBA16F.obj
 0001:001266c0       ?ReadBlockA@CCodecBuffer_RGBA16F@@UAE_NKKEEQAVhalf@@@Z 005276c0 f   ATI_Compress_MT:CodecBuffer_RGBA16F.obj
 0001:001266f0       ?ReadBlockR@CCodecBuffer_RGBA16F@@UAE_NKKEEQAVhalf@@@Z 005276f0 f   ATI_Compress_MT:CodecBuffer_RGBA16F.obj
 0001:00126720       ?ReadBlockG@CCodecBuffer_RGBA16F@@UAE_NKKEEQAVhalf@@@Z 00527720 f   ATI_Compress_MT:CodecBuffer_RGBA16F.obj
 0001:00126750       ?ReadBlockB@CCodecBuffer_RGBA16F@@UAE_NKKEEQAVhalf@@@Z 00527750 f   ATI_Compress_MT:CodecBuffer_RGBA16F.obj
 0001:00126780       ?WriteBlockA@CCodecBuffer_RGBA16F@@UAE_NKKEEQAVhalf@@@Z 00527780 f   ATI_Compress_MT:CodecBuffer_RGBA16F.obj
 0001:001267b0       ?WriteBlockR@CCodecBuffer_RGBA16F@@UAE_NKKEEQAVhalf@@@Z 005277b0 f   ATI_Compress_MT:CodecBuffer_RGBA16F.obj
 0001:001267e0       ?WriteBlockG@CCodecBuffer_RGBA16F@@UAE_NKKEEQAVhalf@@@Z 005277e0 f   ATI_Compress_MT:CodecBuffer_RGBA16F.obj
 0001:00126810       ?WriteBlockB@CCodecBuffer_RGBA16F@@UAE_NKKEEQAVhalf@@@Z 00527810 f   ATI_Compress_MT:CodecBuffer_RGBA16F.obj
 0001:00126840       ?WriteBlockRGBA@CCodecBuffer_RGBA16F@@UAE_NKKEEQAVhalf@@@Z 00527840 f   ATI_Compress_MT:CodecBuffer_RGBA16F.obj
 0001:001268e0       ?Copy@CCodecBuffer_RGBA16F@@UAEXAAVCCodecBuffer@@@Z 005278e0 f   ATI_Compress_MT:CodecBuffer_RGBA16F.obj
 0001:001269c0       ?ReadBlock@CCodecBuffer_RGBA16F@@MAE_NKKEEQAVhalf@@K@Z 005279c0 f   ATI_Compress_MT:CodecBuffer_RGBA16F.obj
 0001:00126b20       ?ReadBlockRGBA@CCodecBuffer_RGBA16F@@UAE_NKKEEQAVhalf@@@Z 00527b20 f   ATI_Compress_MT:CodecBuffer_RGBA16F.obj
 0001:00126c60       ?GetBufferType@CCodecBuffer_RGBA16F@@UBE?AW4_CodecBufferType@@XZ 00527c60 f i ATI_Compress_MT:CodecBuffer_RGBA16F.obj
 0001:00126c70       ?GetChannelDepth@CCodecBuffer_RGBA16F@@UBEKXZ 00527c70 f i ATI_Compress_MT:CodecBuffer_RGBA16F.obj
 0001:00126c80       ?GetChannelCount@CCodecBuffer_RGBA16F@@UBEKXZ 00527c80 f i ATI_Compress_MT:CodecBuffer_RGBA16F.obj
 0001:00126c90       ?IsFloat@CCodecBuffer_RGBA16F@@UBE_NXZ 00527c90 f i ATI_Compress_MT:CodecBuffer_RGBA16F.obj
 0001:00126ca0       ??_GCCodecBuffer_RGBA16F@@UAEPAXI@Z 00527ca0 f i ATI_Compress_MT:CodecBuffer_RGBA16F.obj
 0001:00126ca0       ??_ECCodecBuffer_RGBA16F@@UAEPAXI@Z 00527ca0 f i ATI_Compress_MT:CodecBuffer_RGBA16F.obj
 0001:00126cd0       ??0CCodecBuffer_R16@@QAE@KKKPAE@Z 00527cd0 f   ATI_Compress_MT:CodecBuffer_R16.obj
 0001:00126d20       ??1CCodecBuffer_R16@@UAE@XZ 00527d20 f   ATI_Compress_MT:CodecBuffer_R16.obj
 0001:00126d30       ?Copy@CCodecBuffer_R16@@UAEXAAVCCodecBuffer@@@Z 00527d30 f   ATI_Compress_MT:CodecBuffer_R16.obj
 0001:00126e10       ?WriteBlock@CCodecBuffer_R16@@MAE_NKKEEQAG@Z 00527e10 f   ATI_Compress_MT:CodecBuffer_R16.obj
 0001:00126ed0       ?ReadBlockA@CCodecBuffer_R16@@UAE_NKKEEQAG@Z 00527ed0 f   ATI_Compress_MT:CodecBuffer_R16.obj
 0001:00126f10       ?ReadBlockR@CCodecBuffer_R16@@UAE_NKKEEQAG@Z 00527f10 f   ATI_Compress_MT:CodecBuffer_R16.obj
 0001:00126f20       ?ReadBlockG@CCodecBuffer_R16@@UAE_NKKEEQAG@Z 00527f20 f   ATI_Compress_MT:CodecBuffer_R16.obj
 0001:00126f60       ?ReadBlockB@CCodecBuffer_R16@@UAE_NKKEEQAG@Z 00527f60 f   ATI_Compress_MT:CodecBuffer_R16.obj
 0001:00126fa0       ?WriteBlockA@CCodecBuffer_R16@@UAE_NKKEEQAG@Z 00527fa0 f   ATI_Compress_MT:CodecBuffer_R16.obj
 0001:00126fc0       ?WriteBlockR@CCodecBuffer_R16@@UAE_NKKEEQAG@Z 00527fc0 f   ATI_Compress_MT:CodecBuffer_R16.obj
 0001:00126fd0       ?WriteBlockG@CCodecBuffer_R16@@UAE_NKKEEQAG@Z 00527fd0 f   ATI_Compress_MT:CodecBuffer_R16.obj
 0001:00126ff0       ?WriteBlockB@CCodecBuffer_R16@@UAE_NKKEEQAG@Z 00527ff0 f   ATI_Compress_MT:CodecBuffer_R16.obj
 0001:00127010       ?WriteBlockRGBA@CCodecBuffer_R16@@UAE_NKKEEQAG@Z 00528010 f   ATI_Compress_MT:CodecBuffer_R16.obj
 0001:001270d0       ?ReadBlock@CCodecBuffer_R16@@MAE_NKKEEQAG@Z 005280d0 f   ATI_Compress_MT:CodecBuffer_R16.obj
 0001:00127210       ?ReadBlockRGBA@CCodecBuffer_R16@@UAE_NKKEEQAG@Z 00528210 f   ATI_Compress_MT:CodecBuffer_R16.obj
 0001:00127360       ?GetBufferType@CCodecBuffer_R16@@UBE?AW4_CodecBufferType@@XZ 00528360 f i ATI_Compress_MT:CodecBuffer_R16.obj
 0001:00127370       ?GetChannelDepth@CCodecBuffer_R16@@UBEKXZ 00528370 f i ATI_Compress_MT:CodecBuffer_R16.obj
 0001:00127380       ?GetChannelCount@CCodecBuffer_R16@@UBEKXZ 00528380 f i ATI_Compress_MT:CodecBuffer_R16.obj
 0001:00127390       ?IsFloat@CCodecBuffer_R16@@UBE_NXZ 00528390 f i ATI_Compress_MT:CodecBuffer_R16.obj
 0001:001273a0       ??$PadLine@G@@YAXKEEQAG@Z  005283a0 f i ATI_Compress_MT:CodecBuffer_R16.obj
 0001:00127400       ??$PadBlock@G@@YAXKEEEQAG@Z 00528400 f i ATI_Compress_MT:CodecBuffer_R16.obj
 0001:00127470       ??_GCCodecBuffer_R16@@UAEPAXI@Z 00528470 f i ATI_Compress_MT:CodecBuffer_R16.obj
 0001:00127470       ??_ECCodecBuffer_R16@@UAEPAXI@Z 00528470 f i ATI_Compress_MT:CodecBuffer_R16.obj
 0001:001274a0       ??0CCodecBuffer_RG16@@QAE@KKKPAE@Z 005284a0 f   ATI_Compress_MT:CodecBuffer_RG16.obj
 0001:00127500       ??1CCodecBuffer_RG16@@UAE@XZ 00528500 f   ATI_Compress_MT:CodecBuffer_RG16.obj
 0001:00127510       ?Copy@CCodecBuffer_RG16@@UAEXAAVCCodecBuffer@@@Z 00528510 f   ATI_Compress_MT:CodecBuffer_RG16.obj
 0001:001275f0       ?WriteBlock@CCodecBuffer_RG16@@MAE_NKKEEQAGK@Z 005285f0 f   ATI_Compress_MT:CodecBuffer_RG16.obj
 0001:001276b0       ?ReadBlockA@CCodecBuffer_RG16@@UAE_NKKEEQAG@Z 005286b0 f   ATI_Compress_MT:CodecBuffer_RG16.obj
 0001:001276f0       ?ReadBlockR@CCodecBuffer_RG16@@UAE_NKKEEQAG@Z 005286f0 f   ATI_Compress_MT:CodecBuffer_RG16.obj
 0001:00127720       ?ReadBlockG@CCodecBuffer_RG16@@UAE_NKKEEQAG@Z 00528720 f   ATI_Compress_MT:CodecBuffer_RG16.obj
 0001:00127750       ?ReadBlockB@CCodecBuffer_RG16@@UAE_NKKEEQAG@Z 00528750 f   ATI_Compress_MT:CodecBuffer_RG16.obj
 0001:00127790       ?WriteBlockA@CCodecBuffer_RG16@@UAE_NKKEEQAG@Z 00528790 f   ATI_Compress_MT:CodecBuffer_RG16.obj
 0001:001277b0       ?WriteBlockR@CCodecBuffer_RG16@@UAE_NKKEEQAG@Z 005287b0 f   ATI_Compress_MT:CodecBuffer_RG16.obj
 0001:001277e0       ?WriteBlockG@CCodecBuffer_RG16@@UAE_NKKEEQAG@Z 005287e0 f   ATI_Compress_MT:CodecBuffer_RG16.obj
 0001:00127810       ?WriteBlockB@CCodecBuffer_RG16@@UAE_NKKEEQAG@Z 00528810 f   ATI_Compress_MT:CodecBuffer_RG16.obj
 0001:00127830       ?WriteBlockRGBA@CCodecBuffer_RG16@@UAE_NKKEEQAG@Z 00528830 f   ATI_Compress_MT:CodecBuffer_RG16.obj
 0001:001278f0       ?ReadBlock@CCodecBuffer_RG16@@MAE_NKKEEQAGK@Z 005288f0 f   ATI_Compress_MT:CodecBuffer_RG16.obj
 0001:00127a50       ?ReadBlockRGBA@CCodecBuffer_RG16@@UAE_NKKEEQAG@Z 00528a50 f   ATI_Compress_MT:CodecBuffer_RG16.obj
 0001:00127ba0       ?GetBufferType@CCodecBuffer_RG16@@UBE?AW4_CodecBufferType@@XZ 00528ba0 f i ATI_Compress_MT:CodecBuffer_RG16.obj
 0001:00127bb0       ?GetChannelDepth@CCodecBuffer_RG16@@UBEKXZ 00528bb0 f i ATI_Compress_MT:CodecBuffer_RG16.obj
 0001:00127bc0       ?GetChannelCount@CCodecBuffer_RG16@@UBEKXZ 00528bc0 f i ATI_Compress_MT:CodecBuffer_RG16.obj
 0001:00127bd0       ?IsFloat@CCodecBuffer_RG16@@UBE_NXZ 00528bd0 f i ATI_Compress_MT:CodecBuffer_RG16.obj
 0001:00127be0       ??_GCCodecBuffer_RG16@@UAEPAXI@Z 00528be0 f i ATI_Compress_MT:CodecBuffer_RG16.obj
 0001:00127be0       ??_ECCodecBuffer_RG16@@UAEPAXI@Z 00528be0 f i ATI_Compress_MT:CodecBuffer_RG16.obj
 0001:00127c10       ??0CCodecBuffer_RGBA16@@QAE@KKKPAE@Z 00528c10 f   ATI_Compress_MT:CodecBuffer_RGBA16.obj
 0001:00127c70       ??1CCodecBuffer_RGBA16@@UAE@XZ 00528c70 f   ATI_Compress_MT:CodecBuffer_RGBA16.obj
 0001:00127c80       ?Copy@CCodecBuffer_RGBA16@@UAEXAAVCCodecBuffer@@@Z 00528c80 f   ATI_Compress_MT:CodecBuffer_RGBA16.obj
 0001:00127d60       ?WriteBlock@CCodecBuffer_RGBA16@@MAE_NKKEEQAGK@Z 00528d60 f   ATI_Compress_MT:CodecBuffer_RGBA16.obj
 0001:00127e20       ?ReadBlockA@CCodecBuffer_RGBA16@@UAE_NKKEEQAG@Z 00528e20 f   ATI_Compress_MT:CodecBuffer_RGBA16.obj
 0001:00127e50       ?ReadBlockR@CCodecBuffer_RGBA16@@UAE_NKKEEQAG@Z 00528e50 f   ATI_Compress_MT:CodecBuffer_RGBA16.obj
 0001:00127e80       ?ReadBlockG@CCodecBuffer_RGBA16@@UAE_NKKEEQAG@Z 00528e80 f   ATI_Compress_MT:CodecBuffer_RGBA16.obj
 0001:00127eb0       ?ReadBlockB@CCodecBuffer_RGBA16@@UAE_NKKEEQAG@Z 00528eb0 f   ATI_Compress_MT:CodecBuffer_RGBA16.obj
 0001:00127ee0       ?WriteBlockA@CCodecBuffer_RGBA16@@UAE_NKKEEQAG@Z 00528ee0 f   ATI_Compress_MT:CodecBuffer_RGBA16.obj
 0001:00127f10       ?WriteBlockR@CCodecBuffer_RGBA16@@UAE_NKKEEQAG@Z 00528f10 f   ATI_Compress_MT:CodecBuffer_RGBA16.obj
 0001:00127f40       ?WriteBlockG@CCodecBuffer_RGBA16@@UAE_NKKEEQAG@Z 00528f40 f   ATI_Compress_MT:CodecBuffer_RGBA16.obj
 0001:00127f70       ?WriteBlockB@CCodecBuffer_RGBA16@@UAE_NKKEEQAG@Z 00528f70 f   ATI_Compress_MT:CodecBuffer_RGBA16.obj
 0001:00127fa0       ?WriteBlockRGBA@CCodecBuffer_RGBA16@@UAE_NKKEEQAG@Z 00528fa0 f   ATI_Compress_MT:CodecBuffer_RGBA16.obj
 0001:00128040       ?ReadBlock@CCodecBuffer_RGBA16@@MAE_NKKEEQAGK@Z 00529040 f   ATI_Compress_MT:CodecBuffer_RGBA16.obj
 0001:001281a0       ?ReadBlockRGBA@CCodecBuffer_RGBA16@@UAE_NKKEEQAG@Z 005291a0 f   ATI_Compress_MT:CodecBuffer_RGBA16.obj
 0001:001282e0       ?GetBufferType@CCodecBuffer_RGBA16@@UBE?AW4_CodecBufferType@@XZ 005292e0 f i ATI_Compress_MT:CodecBuffer_RGBA16.obj
 0001:001282f0       ?GetChannelDepth@CCodecBuffer_RGBA16@@UBEKXZ 005292f0 f i ATI_Compress_MT:CodecBuffer_RGBA16.obj
 0001:00128300       ?GetChannelCount@CCodecBuffer_RGBA16@@UBEKXZ 00529300 f i ATI_Compress_MT:CodecBuffer_RGBA16.obj
 0001:00128310       ?IsFloat@CCodecBuffer_RGBA16@@UBE_NXZ 00529310 f i ATI_Compress_MT:CodecBuffer_RGBA16.obj
 0001:00128320       ??_GCCodecBuffer_RGBA16@@UAEPAXI@Z 00529320 f i ATI_Compress_MT:CodecBuffer_RGBA16.obj
 0001:00128320       ??_ECCodecBuffer_RGBA16@@UAEPAXI@Z 00529320 f i ATI_Compress_MT:CodecBuffer_RGBA16.obj
 0001:00128350       ??0CCodecBuffer_RGBA2101010@@QAE@KKKPAE@Z 00529350 f   ATI_Compress_MT:CodecBuffer_RGBA2101010.obj
 0001:001283b0       ??1CCodecBuffer_RGBA2101010@@UAE@XZ 005293b0 f   ATI_Compress_MT:CodecBuffer_RGBA2101010.obj
 0001:001283c0       ?Copy@CCodecBuffer_RGBA2101010@@UAEXAAVCCodecBuffer@@@Z 005293c0 f   ATI_Compress_MT:CodecBuffer_RGBA2101010.obj
 0001:00128480       ?WriteBlock@CCodecBuffer_RGBA2101010@@MAE_NKKEEQAGKK_N@Z 00529480 f   ATI_Compress_MT:CodecBuffer_RGBA2101010.obj
 0001:00128590       ?ReadBlockA@CCodecBuffer_RGBA2101010@@UAE_NKKEEQAG@Z 00529590 f   ATI_Compress_MT:CodecBuffer_RGBA2101010.obj
 0001:001285c0       ?ReadBlockR@CCodecBuffer_RGBA2101010@@UAE_NKKEEQAG@Z 005295c0 f   ATI_Compress_MT:CodecBuffer_RGBA2101010.obj
 0001:001285f0       ?ReadBlockG@CCodecBuffer_RGBA2101010@@UAE_NKKEEQAG@Z 005295f0 f   ATI_Compress_MT:CodecBuffer_RGBA2101010.obj
 0001:00128620       ?ReadBlockB@CCodecBuffer_RGBA2101010@@UAE_NKKEEQAG@Z 00529620 f   ATI_Compress_MT:CodecBuffer_RGBA2101010.obj
 0001:00128650       ?WriteBlockA@CCodecBuffer_RGBA2101010@@UAE_NKKEEQAG@Z 00529650 f   ATI_Compress_MT:CodecBuffer_RGBA2101010.obj
 0001:00128680       ?WriteBlockR@CCodecBuffer_RGBA2101010@@UAE_NKKEEQAG@Z 00529680 f   ATI_Compress_MT:CodecBuffer_RGBA2101010.obj
 0001:001286b0       ?WriteBlockG@CCodecBuffer_RGBA2101010@@UAE_NKKEEQAG@Z 005296b0 f   ATI_Compress_MT:CodecBuffer_RGBA2101010.obj
 0001:001286e0       ?WriteBlockB@CCodecBuffer_RGBA2101010@@UAE_NKKEEQAG@Z 005296e0 f   ATI_Compress_MT:CodecBuffer_RGBA2101010.obj
 0001:00128710       ?WriteBlockRGBA@CCodecBuffer_RGBA2101010@@UAE_NKKEEQAK@Z 00529710 f   ATI_Compress_MT:CodecBuffer_RGBA2101010.obj
 0001:001287d0       ?WriteBlockRGBA@CCodecBuffer_RGBA2101010@@UAE_NKKEEQAG@Z 005297d0 f   ATI_Compress_MT:CodecBuffer_RGBA2101010.obj
 0001:001288c0       ?ReadBlock@CCodecBuffer_RGBA2101010@@MAE_NKKEEQAGKK_N@Z 005298c0 f   ATI_Compress_MT:CodecBuffer_RGBA2101010.obj
 0001:00128a80       ?ReadBlockRGBA@CCodecBuffer_RGBA2101010@@UAE_NKKEEQAK@Z 00529a80 f   ATI_Compress_MT:CodecBuffer_RGBA2101010.obj
 0001:00128bd0       ?ReadBlockRGBA@CCodecBuffer_RGBA2101010@@UAE_NKKEEQAG@Z 00529bd0 f   ATI_Compress_MT:CodecBuffer_RGBA2101010.obj
 0001:00128da0       ?GetBufferType@CCodecBuffer_RGBA2101010@@UBE?AW4_CodecBufferType@@XZ 00529da0 f i ATI_Compress_MT:CodecBuffer_RGBA2101010.obj
 0001:00128db0       ?GetChannelDepth@CCodecBuffer_RGBA2101010@@UBEKXZ 00529db0 f i ATI_Compress_MT:CodecBuffer_RGBA2101010.obj
 0001:00128dc0       ?GetChannelCount@CCodecBuffer_RGBA2101010@@UBEKXZ 00529dc0 f i ATI_Compress_MT:CodecBuffer_RGBA2101010.obj
 0001:00128dd0       ?IsFloat@CCodecBuffer_RGBA2101010@@UBE_NXZ 00529dd0 f i ATI_Compress_MT:CodecBuffer_RGBA2101010.obj
 0001:00128de0       ??_ECCodecBuffer_RGBA2101010@@UAEPAXI@Z 00529de0 f i ATI_Compress_MT:CodecBuffer_RGBA2101010.obj
 0001:00128de0       ??_GCCodecBuffer_RGBA2101010@@UAEPAXI@Z 00529de0 f i ATI_Compress_MT:CodecBuffer_RGBA2101010.obj
 0001:00128e10       ??0CCodecBuffer_R8@@QAE@KKKPAE@Z 00529e10 f   ATI_Compress_MT:CodecBuffer_R8.obj
 0001:00128e60       ??1CCodecBuffer_R8@@UAE@XZ 00529e60 f   ATI_Compress_MT:CodecBuffer_R8.obj
 0001:00128e70       ?Copy@CCodecBuffer_R8@@UAEXAAVCCodecBuffer@@@Z 00529e70 f   ATI_Compress_MT:CodecBuffer_R8.obj
 0001:00128f40       ?WriteBlock@CCodecBuffer_R8@@MAE_NKKEEQAE@Z 00529f40 f   ATI_Compress_MT:CodecBuffer_R8.obj
 0001:00128fd0       ?ReadBlockA@CCodecBuffer_R8@@UAE_NKKEEQAE@Z 00529fd0 f   ATI_Compress_MT:CodecBuffer_R8.obj
 0001:00129010       ?ReadBlockR@CCodecBuffer_R8@@UAE_NKKEEQAE@Z 0052a010 f   ATI_Compress_MT:CodecBuffer_R8.obj
 0001:00129020       ?ReadBlockG@CCodecBuffer_R8@@UAE_NKKEEQAE@Z 0052a020 f   ATI_Compress_MT:CodecBuffer_R8.obj
 0001:00129060       ?ReadBlockB@CCodecBuffer_R8@@UAE_NKKEEQAE@Z 0052a060 f   ATI_Compress_MT:CodecBuffer_R8.obj
 0001:001290a0       ?WriteBlockA@CCodecBuffer_R8@@UAE_NKKEEQAE@Z 0052a0a0 f   ATI_Compress_MT:CodecBuffer_R8.obj
 0001:001290c0       ?WriteBlockR@CCodecBuffer_R8@@UAE_NKKEEQAE@Z 0052a0c0 f   ATI_Compress_MT:CodecBuffer_R8.obj
 0001:001290d0       ?WriteBlockG@CCodecBuffer_R8@@UAE_NKKEEQAE@Z 0052a0d0 f   ATI_Compress_MT:CodecBuffer_R8.obj
 0001:001290f0       ?WriteBlockB@CCodecBuffer_R8@@UAE_NKKEEQAE@Z 0052a0f0 f   ATI_Compress_MT:CodecBuffer_R8.obj
 0001:00129110       ?WriteBlockRGBA@CCodecBuffer_R8@@UAE_NKKEEQAE@Z 0052a110 f   ATI_Compress_MT:CodecBuffer_R8.obj
 0001:001291d0       ?ReadBlock@CCodecBuffer_R8@@MAE_NKKEEQAE@Z 0052a1d0 f   ATI_Compress_MT:CodecBuffer_R8.obj
 0001:001292e0       ?ReadBlockRGBA@CCodecBuffer_R8@@UAE_NKKEEQAE@Z 0052a2e0 f   ATI_Compress_MT:CodecBuffer_R8.obj
 0001:00129440       ?GetBufferType@CCodecBuffer_R8@@UBE?AW4_CodecBufferType@@XZ 0052a440 f i ATI_Compress_MT:CodecBuffer_R8.obj
 0001:00129450       ?GetChannelDepth@CCodecBuffer_R8@@UBEKXZ 0052a450 f i ATI_Compress_MT:CodecBuffer_R8.obj
 0001:00129460       ?GetChannelCount@CCodecBuffer_R8@@UBEKXZ 0052a460 f i ATI_Compress_MT:CodecBuffer_R8.obj
 0001:00129470       ?IsFloat@CCodecBuffer_R8@@UBE_NXZ 0052a470 f i ATI_Compress_MT:CodecBuffer_R8.obj
 0001:00129480       ??$PadLine@E@@YAXKEEQAE@Z  0052a480 f i ATI_Compress_MT:CodecBuffer_R8.obj
 0001:001294e0       ??$PadBlock@E@@YAXKEEEQAE@Z 0052a4e0 f i ATI_Compress_MT:CodecBuffer_R8.obj
 0001:00129550       ??_GCCodecBuffer_R8@@UAEPAXI@Z 0052a550 f i ATI_Compress_MT:CodecBuffer_R8.obj
 0001:00129550       ??_ECCodecBuffer_R8@@UAEPAXI@Z 0052a550 f i ATI_Compress_MT:CodecBuffer_R8.obj
 0001:00129580       ??0CCodecBuffer_RG8@@QAE@KKKPAE@Z 0052a580 f   ATI_Compress_MT:CodecBuffer_RG8.obj
 0001:001295d0       ??1CCodecBuffer_RG8@@UAE@XZ 0052a5d0 f   ATI_Compress_MT:CodecBuffer_RG8.obj
 0001:001295e0       ?Copy@CCodecBuffer_RG8@@UAEXAAVCCodecBuffer@@@Z 0052a5e0 f   ATI_Compress_MT:CodecBuffer_RG8.obj
 0001:001296b0       ?WriteBlock@CCodecBuffer_RG8@@MAE_NKKEEQAEK@Z 0052a6b0 f   ATI_Compress_MT:CodecBuffer_RG8.obj
 0001:00129790       ?ReadBlockA@CCodecBuffer_RG8@@UAE_NKKEEQAE@Z 0052a790 f   ATI_Compress_MT:CodecBuffer_RG8.obj
 0001:001297d0       ?ReadBlockR@CCodecBuffer_RG8@@UAE_NKKEEQAE@Z 0052a7d0 f   ATI_Compress_MT:CodecBuffer_RG8.obj
 0001:00129800       ?ReadBlockG@CCodecBuffer_RG8@@UAE_NKKEEQAE@Z 0052a800 f   ATI_Compress_MT:CodecBuffer_RG8.obj
 0001:00129830       ?ReadBlockB@CCodecBuffer_RG8@@UAE_NKKEEQAE@Z 0052a830 f   ATI_Compress_MT:CodecBuffer_RG8.obj
 0001:00129870       ?WriteBlockA@CCodecBuffer_RG8@@UAE_NKKEEQAE@Z 0052a870 f   ATI_Compress_MT:CodecBuffer_RG8.obj
 0001:00129890       ?WriteBlockR@CCodecBuffer_RG8@@UAE_NKKEEQAE@Z 0052a890 f   ATI_Compress_MT:CodecBuffer_RG8.obj
 0001:001298c0       ?WriteBlockG@CCodecBuffer_RG8@@UAE_NKKEEQAE@Z 0052a8c0 f   ATI_Compress_MT:CodecBuffer_RG8.obj
 0001:001298f0       ?WriteBlockB@CCodecBuffer_RG8@@UAE_NKKEEQAE@Z 0052a8f0 f   ATI_Compress_MT:CodecBuffer_RG8.obj
 0001:00129910       ?WriteBlockRGBA@CCodecBuffer_RG8@@UAE_NKKEEQAE@Z 0052a910 f   ATI_Compress_MT:CodecBuffer_RG8.obj
 0001:001299d0       ?ReadBlock@CCodecBuffer_RG8@@MAE_NKKEEQAEK@Z 0052a9d0 f   ATI_Compress_MT:CodecBuffer_RG8.obj
 0001:00129b10       ?ReadBlockRGBA@CCodecBuffer_RG8@@UAE_NKKEEQAE@Z 0052ab10 f   ATI_Compress_MT:CodecBuffer_RG8.obj
 0001:00129c60       ?GetBufferType@CCodecBuffer_RG8@@UBE?AW4_CodecBufferType@@XZ 0052ac60 f i ATI_Compress_MT:CodecBuffer_RG8.obj
 0001:00129c70       ?GetChannelDepth@CCodecBuffer_RG8@@UBEKXZ 0052ac70 f i ATI_Compress_MT:CodecBuffer_RG8.obj
 0001:00129c80       ?GetChannelCount@CCodecBuffer_RG8@@UBEKXZ 0052ac80 f i ATI_Compress_MT:CodecBuffer_RG8.obj
 0001:00129c90       ?IsFloat@CCodecBuffer_RG8@@UBE_NXZ 0052ac90 f i ATI_Compress_MT:CodecBuffer_RG8.obj
 0001:00129ca0       ??_ECCodecBuffer_RG8@@UAEPAXI@Z 0052aca0 f i ATI_Compress_MT:CodecBuffer_RG8.obj
 0001:00129ca0       ??_GCCodecBuffer_RG8@@UAEPAXI@Z 0052aca0 f i ATI_Compress_MT:CodecBuffer_RG8.obj
 0001:00129cd0       ??0CCodecBuffer_RGB888@@QAE@KKKPAE@Z 0052acd0 f   ATI_Compress_MT:CodecBuffer_RGB888.obj
 0001:00129d20       ??1CCodecBuffer_RGB888@@UAE@XZ 0052ad20 f   ATI_Compress_MT:CodecBuffer_RGB888.obj
 0001:00129d30       ?Copy@CCodecBuffer_RGB888@@UAEXAAVCCodecBuffer@@@Z 0052ad30 f   ATI_Compress_MT:CodecBuffer_RGB888.obj
 0001:00129e00       ?WriteBlock@CCodecBuffer_RGB888@@MAE_NKKEEQAEK@Z 0052ae00 f   ATI_Compress_MT:CodecBuffer_RGB888.obj
 0001:00129e90       ?ReadBlockA@CCodecBuffer_RGB888@@UAE_NKKEEQAE@Z 0052ae90 f   ATI_Compress_MT:CodecBuffer_RGB888.obj
 0001:00129ec0       ?ReadBlockR@CCodecBuffer_RGB888@@UAE_NKKEEQAE@Z 0052aec0 f   ATI_Compress_MT:CodecBuffer_RGB888.obj
 0001:00129ef0       ?ReadBlockG@CCodecBuffer_RGB888@@UAE_NKKEEQAE@Z 0052aef0 f   ATI_Compress_MT:CodecBuffer_RGB888.obj
 0001:00129f20       ?ReadBlockB@CCodecBuffer_RGB888@@UAE_NKKEEQAE@Z 0052af20 f   ATI_Compress_MT:CodecBuffer_RGB888.obj
 0001:00129f50       ?WriteBlockA@CCodecBuffer_RGB888@@UAE_NKKEEQAE@Z 0052af50 f   ATI_Compress_MT:CodecBuffer_RGB888.obj
 0001:00129f60       ?WriteBlockR@CCodecBuffer_RGB888@@UAE_NKKEEQAE@Z 0052af60 f   ATI_Compress_MT:CodecBuffer_RGB888.obj
 0001:00129f90       ?WriteBlockG@CCodecBuffer_RGB888@@UAE_NKKEEQAE@Z 0052af90 f   ATI_Compress_MT:CodecBuffer_RGB888.obj
 0001:00129fc0       ?WriteBlockB@CCodecBuffer_RGB888@@UAE_NKKEEQAE@Z 0052afc0 f   ATI_Compress_MT:CodecBuffer_RGB888.obj
 0001:00129ff0       ?WriteBlockRGBA@CCodecBuffer_RGB888@@UAE_NKKEEQAE@Z 0052aff0 f   ATI_Compress_MT:CodecBuffer_RGB888.obj
 0001:0012a0c0       ?ReadBlock@CCodecBuffer_RGB888@@MAE_NKKEEQAEK@Z 0052b0c0 f   ATI_Compress_MT:CodecBuffer_RGB888.obj
 0001:0012a1e0       ?ReadBlockRGBA@CCodecBuffer_RGB888@@UAE_NKKEEQAE@Z 0052b1e0 f   ATI_Compress_MT:CodecBuffer_RGB888.obj
 0001:0012a340       ?GetBufferType@CCodecBuffer_RGB888@@UBE?AW4_CodecBufferType@@XZ 0052b340 f i ATI_Compress_MT:CodecBuffer_RGB888.obj
 0001:0012a350       ?GetChannelDepth@CCodecBuffer_RGB888@@UBEKXZ 0052b350 f i ATI_Compress_MT:CodecBuffer_RGB888.obj
 0001:0012a360       ?GetChannelCount@CCodecBuffer_RGB888@@UBEKXZ 0052b360 f i ATI_Compress_MT:CodecBuffer_RGB888.obj
 0001:0012a370       ?IsFloat@CCodecBuffer_RGB888@@UBE_NXZ 0052b370 f i ATI_Compress_MT:CodecBuffer_RGB888.obj
 0001:0012a380       ??_ECCodecBuffer_RGB888@@UAEPAXI@Z 0052b380 f i ATI_Compress_MT:CodecBuffer_RGB888.obj
 0001:0012a380       ??_GCCodecBuffer_RGB888@@UAEPAXI@Z 0052b380 f i ATI_Compress_MT:CodecBuffer_RGB888.obj
 0001:0012a3b0       ??0CCodecBuffer_RGBA8888@@QAE@KKKPAE@Z 0052b3b0 f   ATI_Compress_MT:CodecBuffer_RGBA8888.obj
 0001:0012a410       ??1CCodecBuffer_RGBA8888@@UAE@XZ 0052b410 f   ATI_Compress_MT:CodecBuffer_RGBA8888.obj
 0001:0012a420       ?Copy@CCodecBuffer_RGBA8888@@UAEXAAVCCodecBuffer@@@Z 0052b420 f   ATI_Compress_MT:CodecBuffer_RGBA8888.obj
 0001:0012a4f0       ?WriteBlock@CCodecBuffer_RGBA8888@@MAE_NKKEEQAEK@Z 0052b4f0 f   ATI_Compress_MT:CodecBuffer_RGBA8888.obj
 0001:0012a5c0       ?ReadBlockA@CCodecBuffer_RGBA8888@@UAE_NKKEEQAE@Z 0052b5c0 f   ATI_Compress_MT:CodecBuffer_RGBA8888.obj
 0001:0012a5f0       ?ReadBlockR@CCodecBuffer_RGBA8888@@UAE_NKKEEQAE@Z 0052b5f0 f   ATI_Compress_MT:CodecBuffer_RGBA8888.obj
 0001:0012a620       ?ReadBlockG@CCodecBuffer_RGBA8888@@UAE_NKKEEQAE@Z 0052b620 f   ATI_Compress_MT:CodecBuffer_RGBA8888.obj
 0001:0012a650       ?ReadBlockB@CCodecBuffer_RGBA8888@@UAE_NKKEEQAE@Z 0052b650 f   ATI_Compress_MT:CodecBuffer_RGBA8888.obj
 0001:0012a680       ?WriteBlockA@CCodecBuffer_RGBA8888@@UAE_NKKEEQAE@Z 0052b680 f   ATI_Compress_MT:CodecBuffer_RGBA8888.obj
 0001:0012a6b0       ?WriteBlockR@CCodecBuffer_RGBA8888@@UAE_NKKEEQAE@Z 0052b6b0 f   ATI_Compress_MT:CodecBuffer_RGBA8888.obj
 0001:0012a6e0       ?WriteBlockG@CCodecBuffer_RGBA8888@@UAE_NKKEEQAE@Z 0052b6e0 f   ATI_Compress_MT:CodecBuffer_RGBA8888.obj
 0001:0012a710       ?WriteBlockB@CCodecBuffer_RGBA8888@@UAE_NKKEEQAE@Z 0052b710 f   ATI_Compress_MT:CodecBuffer_RGBA8888.obj
 0001:0012a740       ?WriteBlockRGBA@CCodecBuffer_RGBA8888@@UAE_NKKEEQAE@Z 0052b740 f   ATI_Compress_MT:CodecBuffer_RGBA8888.obj
 0001:0012a800       ?ReadBlock@CCodecBuffer_RGBA8888@@MAE_NKKEEQAEK@Z 0052b800 f   ATI_Compress_MT:CodecBuffer_RGBA8888.obj
 0001:0012a940       ?ReadBlockRGBA@CCodecBuffer_RGBA8888@@UAE_NKKEEQAE@Z 0052b940 f   ATI_Compress_MT:CodecBuffer_RGBA8888.obj
 0001:0012ab40       ?GetBufferType@CCodecBuffer_RGBA8888@@UBE?AW4_CodecBufferType@@XZ 0052bb40 f i ATI_Compress_MT:CodecBuffer_RGBA8888.obj
 0001:0012ab50       ?GetChannelDepth@CCodecBuffer_RGBA8888@@UBEKXZ 0052bb50 f i ATI_Compress_MT:CodecBuffer_RGBA8888.obj
 0001:0012ab60       ?GetChannelCount@CCodecBuffer_RGBA8888@@UBEKXZ 0052bb60 f i ATI_Compress_MT:CodecBuffer_RGBA8888.obj
 0001:0012ab70       ?IsFloat@CCodecBuffer_RGBA8888@@UBE_NXZ 0052bb70 f i ATI_Compress_MT:CodecBuffer_RGBA8888.obj
 0001:0012ab80       ??_ECCodecBuffer_RGBA8888@@UAEPAXI@Z 0052bb80 f i ATI_Compress_MT:CodecBuffer_RGBA8888.obj
 0001:0012ab80       ??_GCCodecBuffer_RGBA8888@@UAEPAXI@Z 0052bb80 f i ATI_Compress_MT:CodecBuffer_RGBA8888.obj
 0001:0012abb0       ??0CCodec_ETC@@QAE@W4_CodecType@@@Z 0052bbb0 f   ATI_Compress_MT:Codec_ETC.obj
 0001:0012abd0       ??1CCodec_ETC@@UAE@XZ      0052bbd0 f   ATI_Compress_MT:Codec_ETC.obj
 0001:0012abe0       ?CompressRGBBlock@CCodec_ETC@@IAE?AW4_CODECError@@QAEQAK@Z 0052bbe0 f   ATI_Compress_MT:Codec_ETC.obj
 0001:0012acd0       ?DecompressRGBBlock@CCodec_ETC@@IAEXQAEQAK@Z 0052bcd0 f   ATI_Compress_MT:Codec_ETC.obj
 0001:0012ada0       ?CompressExplicitAlphaBlock@CCodec_ETC@@IAE?AW4_CODECError@@QAEQAK@Z 0052bda0 f   ATI_Compress_MT:Codec_ETC.obj
 0001:0012af30       ?DecompressExplicitAlphaBlock@CCodec_ETC@@IAEXQAEQAK@Z 0052bf30 f   ATI_Compress_MT:Codec_ETC.obj
 0001:0012af70       ?EncodeAlphaBlock@CCodec_ETC@@IAEXQAKQAE1@Z 0052bf70 f   ATI_Compress_MT:Codec_ETC.obj
 0001:0012b0d0       ?GetCompressedAlphaRamp@CCodec_ETC@@IAEXQAEQAK@Z 0052c0d0 f   ATI_Compress_MT:Codec_ETC.obj
 0001:0012b240       ?CompressRGBABlock_ExplicitAlpha@CCodec_ETC@@IAE?AW4_CODECError@@QAEQAK@Z 0052c240 f   ATI_Compress_MT:Codec_ETC.obj
 0001:0012b2a0       ?DecompressRGBABlock_ExplicitAlpha@CCodec_ETC@@IAEXQAEQAK@Z 0052c2a0 f   ATI_Compress_MT:Codec_ETC.obj
 0001:0012b360       ?CompressInterpolatedAlphaBlock@CCodec_ETC@@IAE?AW4_CODECError@@QAEQAK@Z 0052c360 f   ATI_Compress_MT:Codec_ETC.obj
 0001:0012b430       ?DecompressInterpolatedAlphaBlock@CCodec_ETC@@IAEXQAEQAK@Z 0052c430 f   ATI_Compress_MT:Codec_ETC.obj
 0001:0012b590       ?CompressRGBABlock_InterpolatedAlpha@CCodec_ETC@@IAE?AW4_CODECError@@QAEQAK@Z 0052c590 f   ATI_Compress_MT:Codec_ETC.obj
 0001:0012b5f0       ?DecompressRGBABlock_InterpolatedAlpha@CCodec_ETC@@IAEXQAEQAK@Z 0052c5f0 f   ATI_Compress_MT:Codec_ETC.obj
 0001:0012b6b0       ??_ECCodec_ETC@@UAEPAXI@Z  0052c6b0 f i ATI_Compress_MT:Codec_ETC.obj
 0001:0012b6b0       ??_GCCodec_ETC@@UAEPAXI@Z  0052c6b0 f i ATI_Compress_MT:Codec_ETC.obj
 0001:0012b6e0       ??0CCodec_Block_4x4@@QAE@W4_CodecType@@@Z 0052c6e0 f   ATI_Compress_MT:Codec_Block_4x4.obj
 0001:0012b750       ??1CCodec_Block_4x4@@UAE@XZ 0052c750 f   ATI_Compress_MT:Codec_Block_4x4.obj
 0001:0012b760       ?CreateBuffer@CCodec_Block_4x4@@UBEPAVCCodecBuffer@@KKKPAE@Z 0052c760 f   ATI_Compress_MT:Codec_Block_4x4.obj
 0001:0012b790       ?SetParameter@CCodec_Block_4x4@@UAE_NPBDM@Z 0052c790 f   ATI_Compress_MT:Codec_Block_4x4.obj
 0001:0012b7b0       ?GetParameter@CCodec_Block_4x4@@UAE_NPBDAAM@Z 0052c7b0 f   ATI_Compress_MT:Codec_Block_4x4.obj
 0001:0012b7c0       ?SetParameter@CCodec_Block_4x4@@UAE_NPBDK@Z 0052c7c0 f   ATI_Compress_MT:Codec_Block_4x4.obj
 0001:0012b840       ?GetParameter@CCodec_Block_4x4@@UAE_NPBDAAK@Z 0052c840 f   ATI_Compress_MT:Codec_Block_4x4.obj
 0001:0012b8a0       ??_ECCodec_Block_4x4@@UAEPAXI@Z 0052c8a0 f i ATI_Compress_MT:Codec_Block_4x4.obj
 0001:0012b8a0       ??_GCCodec_Block_4x4@@UAEPAXI@Z 0052c8a0 f i ATI_Compress_MT:Codec_Block_4x4.obj
 0001:0012b8d0       _readCompressParams        0052c8d0 f   ATI_Compress_MT:etcpack.obj
 0001:0012baf0       ?computeAverageColor2x4noQuantFloat@@YAXPAEHHHHPAM@Z 0052caf0 f   ATI_Compress_MT:etcpack.obj
 0001:0012bc50       ?computeAverageColor4x2noQuantFloat@@YAXPAEHHHHPAM@Z 0052cc50 f   ATI_Compress_MT:etcpack.obj
 0001:0012bdb0       ?compressBlockWithTable2x4@@YAHPAEHHHH0HPAI1@Z 0052cdb0 f   ATI_Compress_MT:etcpack.obj
 0001:0012bf90       ?compressBlockWithTable2x4percep@@YAMPAEHHHH0HPAI1@Z 0052cf90 f   ATI_Compress_MT:etcpack.obj
 0001:0012c1d0       ?compressBlockWithTable4x2@@YAHPAEHHHH0HPAI1@Z 0052d1d0 f   ATI_Compress_MT:etcpack.obj
 0001:0012c3c0       ?compressBlockWithTable4x2percep@@YAMPAEHHHH0HPAI1@Z 0052d3c0 f   ATI_Compress_MT:etcpack.obj
 0001:0012c600       ?tryalltables_3bittable2x4@@YAHPAEHHHH0AAI11@Z 0052d600 f   ATI_Compress_MT:etcpack.obj
 0001:0012c680       ?tryalltables_3bittable2x4percep@@YAHPAEHHHH0AAI11@Z 0052d680 f   ATI_Compress_MT:etcpack.obj
 0001:0012c720       ?tryalltables_3bittable4x2@@YAHPAEHHHH0AAI11@Z 0052d720 f   ATI_Compress_MT:etcpack.obj
 0001:0012c7a0       ?tryalltables_3bittable4x2percep@@YAHPAEHHHH0AAI11@Z 0052d7a0 f   ATI_Compress_MT:etcpack.obj
 0001:0012c840       ?quantize444ColorCombined@@YAXPAMPAHPAE@Z 0052d840 f   ATI_Compress_MT:etcpack.obj
 0001:0012ccb0       ?quantize555ColorCombined@@YAXPAMPAHPAE@Z 0052dcb0 f   ATI_Compress_MT:etcpack.obj
 0001:0012d0f0       ?quantize444ColorCombinedPerceptual@@YAXPAMPAHPAE@Z 0052e0f0 f   ATI_Compress_MT:etcpack.obj
 0001:0012d540       ?quantize555ColorCombinedPerceptual@@YAXPAMPAHPAE@Z 0052e540 f   ATI_Compress_MT:etcpack.obj
 0001:0012d9d0       ?compressBlockDiffFlipCombined@@YAXPAEHHHHAAI1@Z 0052e9d0 f   ATI_Compress_MT:etcpack.obj
 0001:0012e200       ?compressBlockDiffFlipAveragePerceptual@@YAXPAEHHHHAAI1@Z 0052f200 f   ATI_Compress_MT:etcpack.obj
 0001:0012ec30       ?compressBlockDiffFlipCombinedPerceptual@@YAXPAEHHHHAAI1@Z 0052fc30 f   ATI_Compress_MT:etcpack.obj
 0001:0012f460       ?decompressBlockDiffFlip@@YAXIIPAEHHHH@Z 00530460 f   ATI_Compress_MT:etcpack.obj
 0001:0012fef0       ?calcBlockErrorRGB@@YANPAE0HHHH@Z 00530ef0 f   ATI_Compress_MT:etcpack.obj
 0001:00130360       ?calcBlockPerceptualErrorRGB@@YANPAE0HHHH@Z 00531360 f   ATI_Compress_MT:etcpack.obj
 0001:00130800       ?compressBlockDiffFlipFastPerceptual@@YAXPAE0HHHHAAI1@Z 00531800 f   ATI_Compress_MT:etcpack.obj
 0001:001308f0       ?write_big_endian_2byte_word@@YAXPAGPAU_iobuf@@@Z 005318f0 f   ATI_Compress_MT:etcpack.obj
 0001:00130930       ?read_big_endian_2byte_word@@YAXPAGPAU_iobuf@@@Z 00531930 f   ATI_Compress_MT:etcpack.obj
 0001:00130980       ?write_big_endian_4byte_word@@YAXPAIPAU_iobuf@@@Z 00531980 f   ATI_Compress_MT:etcpack.obj
 0001:001309f0       ?read_big_endian_4byte_word@@YAXPAIPAU_iobuf@@@Z 005319f0 f   ATI_Compress_MT:etcpack.obj
 0001:00130a70       _atiEncodeRGBBlockETC      00531a70 f   ATI_Compress_MT:etcpack.obj
 0001:00130ad0       _atiDecodeRGBBlockETC      00531ad0 f   ATI_Compress_MT:etcpack.obj
 0001:00130af0       ??0CCodec_ATC@@QAE@W4_CodecType@@@Z 00531af0 f   ATI_Compress_MT:Codec_ATC.obj
 0001:00130b10       ??1CCodec_ATC@@UAE@XZ      00531b10 f   ATI_Compress_MT:Codec_ATC.obj
 0001:00130b20       ?CompressRGBBlock@CCodec_ATC@@IAE?AW4_CODECError@@QAEQAK@Z 00531b20 f   ATI_Compress_MT:Codec_ATC.obj
 0001:00130bd0       ?DecompressRGBBlock@CCodec_ATC@@IAEXQAEQAK@Z 00531bd0 f   ATI_Compress_MT:Codec_ATC.obj
 0001:00130c70       ?CompressExplicitAlphaBlock@CCodec_ATC@@IAE?AW4_CODECError@@QAEQAK@Z 00531c70 f   ATI_Compress_MT:Codec_ATC.obj
 0001:00130e00       ?DecompressExplicitAlphaBlock@CCodec_ATC@@IAEXQAEQAK@Z 00531e00 f   ATI_Compress_MT:Codec_ATC.obj
 0001:00130e40       ?EncodeAlphaBlock@CCodec_ATC@@IAEXQAKQAE1@Z 00531e40 f   ATI_Compress_MT:Codec_ATC.obj
 0001:00130fa0       ?GetCompressedAlphaRamp@CCodec_ATC@@IAEXQAEQAK@Z 00531fa0 f   ATI_Compress_MT:Codec_ATC.obj
 0001:00131110       ?CompressRGBABlock_ExplicitAlpha@CCodec_ATC@@IAE?AW4_CODECError@@QAEQAK@Z 00532110 f   ATI_Compress_MT:Codec_ATC.obj
 0001:00131170       ?DecompressRGBABlock_ExplicitAlpha@CCodec_ATC@@IAEXQAEQAK@Z 00532170 f   ATI_Compress_MT:Codec_ATC.obj
 0001:00131230       ?CompressInterpolatedAlphaBlock@CCodec_ATC@@IAE?AW4_CODECError@@QAEQAK@Z 00532230 f   ATI_Compress_MT:Codec_ATC.obj
 0001:00131300       ?DecompressInterpolatedAlphaBlock@CCodec_ATC@@IAEXQAEQAK@Z 00532300 f   ATI_Compress_MT:Codec_ATC.obj
 0001:00131460       ?CompressRGBABlock_InterpolatedAlpha@CCodec_ATC@@IAE?AW4_CODECError@@QAEQAK@Z 00532460 f   ATI_Compress_MT:Codec_ATC.obj
 0001:001314c0       ?DecompressRGBABlock_InterpolatedAlpha@CCodec_ATC@@IAEXQAEQAK@Z 005324c0 f   ATI_Compress_MT:Codec_ATC.obj
 0001:00131580       ??_GCCodec_ATC@@UAEPAXI@Z  00532580 f i ATI_Compress_MT:Codec_ATC.obj
 0001:00131580       ??_ECCodec_ATC@@UAEPAXI@Z  00532580 f i ATI_Compress_MT:Codec_ATC.obj
 0001:001315b0       ??0CCodec_DXTC@@QAE@W4_CodecType@@@Z 005325b0 f   ATI_Compress_MT:Codec_DXTC.obj
 0001:00131610       ??1CCodec_DXTC@@UAE@XZ     00532610 f   ATI_Compress_MT:Codec_DXTC.obj
 0001:00131620       ?SetParameter@CCodec_DXTC@@UAE_NPBDK@Z 00532620 f   ATI_Compress_MT:Codec_DXTC.obj
 0001:00131710       ?GetParameter@CCodec_DXTC@@UAE_NPBDAAK@Z 00532710 f   ATI_Compress_MT:Codec_DXTC.obj
 0001:00131800       ?SetParameter@CCodec_DXTC@@UAE_NPBDM@Z 00532800 f   ATI_Compress_MT:Codec_DXTC.obj
 0001:001318b0       ?GetParameter@CCodec_DXTC@@UAE_NPBDAAM@Z 005328b0 f   ATI_Compress_MT:Codec_DXTC.obj
 0001:00131960       ??_ECCodec_DXTC@@UAEPAXI@Z 00532960 f i ATI_Compress_MT:Codec_DXTC.obj
 0001:00131960       ??_GCCodec_DXTC@@UAEPAXI@Z 00532960 f i ATI_Compress_MT:Codec_DXTC.obj
 0001:00131990       ?CompressAlphaBlock_Fast@CCodec_DXTC@@MAE?AW4_CODECError@@QAEQAK@Z 00532990 f   ATI_Compress_MT:Codec_DXTC_Alpha.obj
 0001:001319b0       ?EncodeAlphaBlock@CCodec_DXTC@@IAEXQAKQAE1@Z 005329b0 f   ATI_Compress_MT:Codec_DXTC_Alpha.obj
 0001:00131b10       ?CompressExplicitAlphaBlock@CCodec_DXTC@@MAE?AW4_CODECError@@QAEQAK@Z 00532b10 f   ATI_Compress_MT:Codec_DXTC_Alpha.obj
 0001:00131b30       ?CompressExplicitAlphaBlock_Fast@CCodec_DXTC@@MAE?AW4_CODECError@@QAEQAK@Z 00532b30 f   ATI_Compress_MT:Codec_DXTC_Alpha.obj
 0001:00131b50       ?CompressExplicitAlphaBlock@CCodec_DXTC@@MAE?AW4_CODECError@@QAMQAK@Z 00532b50 f   ATI_Compress_MT:Codec_DXTC_Alpha.obj
 0001:00131bf0       ?DecompressExplicitAlphaBlock@CCodec_DXTC@@MAEXQAEQAK@Z 00532bf0 f   ATI_Compress_MT:Codec_DXTC_Alpha.obj
 0001:00131c30       ?DecompressExplicitAlphaBlock@CCodec_DXTC@@MAEXQAMQAK@Z 00532c30 f   ATI_Compress_MT:Codec_DXTC_Alpha.obj
 0001:00131e00       ?GetCompressedAlphaRamp@CCodec_DXTC@@IAEXQAEQAK@Z 00532e00 f   ATI_Compress_MT:Codec_DXTC_Alpha.obj
 0001:00131f70       ?GetCompressedAlphaRamp@CCodec_DXTC@@IAEXQAMQAK@Z 00532f70 f   ATI_Compress_MT:Codec_DXTC_Alpha.obj
 0001:00132090       ?CompressAlphaBlock@CCodec_DXTC@@MAE?AW4_CODECError@@QAEQAK@Z 00533090 f   ATI_Compress_MT:Codec_DXTC_Alpha.obj
 0001:00132160       ?CompressAlphaBlock@CCodec_DXTC@@MAE?AW4_CODECError@@QAMQAK@Z 00533160 f   ATI_Compress_MT:Codec_DXTC_Alpha.obj
 0001:00132230       ?DecompressAlphaBlock@CCodec_DXTC@@MAEXQAEQAK@Z 00533230 f   ATI_Compress_MT:Codec_DXTC_Alpha.obj
 0001:00132390       ?DecompressAlphaBlock@CCodec_DXTC@@MAEXQAMQAK@Z 00533390 f   ATI_Compress_MT:Codec_DXTC_Alpha.obj
 0001:001325e0       ?CompressRGBABlock@CCodec_DXTC@@MAE?AW4_CODECError@@QAEQAKPAM@Z 005335e0 f   ATI_Compress_MT:Codec_DXTC_RGBA.obj
 0001:00132650       ?DecompressRGBABlock@CCodec_DXTC@@MAEXQAEQAK@Z 00533650 f   ATI_Compress_MT:Codec_DXTC_RGBA.obj
 0001:00132710       ?CompressRGBABlock_ExplicitAlpha@CCodec_DXTC@@MAE?AW4_CODECError@@QAEQAKPAM@Z 00533710 f   ATI_Compress_MT:Codec_DXTC_RGBA.obj
 0001:00132780       ?DecompressRGBABlock_ExplicitAlpha@CCodec_DXTC@@MAEXQAEQAK@Z 00533780 f   ATI_Compress_MT:Codec_DXTC_RGBA.obj
 0001:00132840       ?CompressRGBBlock@CCodec_DXTC@@MAE?AW4_CODECError@@QAEQAKPAM_N3E@Z 00533840 f   ATI_Compress_MT:Codec_DXTC_RGBA.obj
 0001:00132b30       ?CompressRGBBlock_Fast@CCodec_DXTC@@MAE?AW4_CODECError@@QAEQAK@Z 00533b30 f   ATI_Compress_MT:Codec_DXTC_RGBA.obj
 0001:00132b50       ?CompressRGBBlock_SuperFast@CCodec_DXTC@@MAE?AW4_CODECError@@QAEQAK@Z 00533b50 f   ATI_Compress_MT:Codec_DXTC_RGBA.obj
 0001:00132b70       ?CompressRGBABlock_Fast@CCodec_DXTC@@MAE?AW4_CODECError@@QAEQAK@Z 00533b70 f   ATI_Compress_MT:Codec_DXTC_RGBA.obj
 0001:00132be0       ?CompressRGBABlock_SuperFast@CCodec_DXTC@@MAE?AW4_CODECError@@QAEQAK@Z 00533be0 f   ATI_Compress_MT:Codec_DXTC_RGBA.obj
 0001:00132c50       ?CompressRGBABlock_ExplicitAlpha_Fast@CCodec_DXTC@@MAE?AW4_CODECError@@QAEQAK@Z 00533c50 f   ATI_Compress_MT:Codec_DXTC_RGBA.obj
 0001:00132cc0       ?CompressRGBABlock_ExplicitAlpha_SuperFast@CCodec_DXTC@@MAE?AW4_CODECError@@QAEQAK@Z 00533cc0 f   ATI_Compress_MT:Codec_DXTC_RGBA.obj
 0001:00132d30       ?CompressRGBABlock@CCodec_DXTC@@MAE?AW4_CODECError@@QAMQAKPAM@Z 00533d30 f   ATI_Compress_MT:Codec_DXTC_RGBA.obj
 0001:00132dc0       ?CompressRGBABlock_ExplicitAlpha@CCodec_DXTC@@MAE?AW4_CODECError@@QAMQAKPAM@Z 00533dc0 f   ATI_Compress_MT:Codec_DXTC_RGBA.obj
 0001:00132e50       ?CompressRGBBlock@CCodec_DXTC@@MAE?AW4_CODECError@@QAMQAKPAM_N3M@Z 00533e50 f   ATI_Compress_MT:Codec_DXTC_RGBA.obj
 0001:00133110       ?DecompressRGBABlock@CCodec_DXTC@@MAEXQAMQAK@Z 00534110 f   ATI_Compress_MT:Codec_DXTC_RGBA.obj
 0001:001331a0       ?DecompressRGBABlock_ExplicitAlpha@CCodec_DXTC@@MAEXQAMQAK@Z 005341a0 f   ATI_Compress_MT:Codec_DXTC_RGBA.obj
 0001:00133230       ?DecompressRGBBlock@CCodec_DXTC@@MAEXQAEQAK_N@Z 00534230 f   ATI_Compress_MT:Codec_DXTC_RGBA.obj
 0001:00133470       ?DecompressRGBBlock@CCodec_DXTC@@MAEXQAMQAK_N@Z 00534470 f   ATI_Compress_MT:Codec_DXTC_RGBA.obj
 0001:001337e0       ?CalculateColourWeightings@CCodec_DXTC@@IAEPAMQAE@Z 005347e0 f   ATI_Compress_MT:Codec_DXTC_RGBA.obj
 0001:00133b00       ?CalculateColourWeightings@CCodec_DXTC@@IAEPAMQAM@Z 00534b00 f   ATI_Compress_MT:Codec_DXTC_RGBA.obj
 0001:00133e20       ??0CCodec_DXT5_Swizzled@@QAE@W4_CodecType@@@Z 00534e20 f   ATI_Compress_MT:Codec_DXT5_Swizzled.obj
 0001:00133e40       ??1CCodec_DXT5_Swizzled@@UAE@XZ 00534e40 f   ATI_Compress_MT:Codec_DXT5_Swizzled.obj
 0001:00133e50       ?Compress@CCodec_DXT5_Swizzled@@UAE?AW4_CODECError@@AAVCCodecBuffer@@0P6A_NMKK@ZKK@Z 00534e50 f   ATI_Compress_MT:Codec_DXT5_Swizzled.obj
 0001:001340c0       ?Compress_Fast@CCodec_DXT5_Swizzled@@UAE?AW4_CODECError@@AAVCCodecBuffer@@0P6A_NMKK@ZKK@Z 005350c0 f   ATI_Compress_MT:Codec_DXT5_Swizzled.obj
 0001:00134260       ?Compress_SuperFast@CCodec_DXT5_Swizzled@@UAE?AW4_CODECError@@AAVCCodecBuffer@@0P6A_NMKK@ZKK@Z 00535260 f   ATI_Compress_MT:Codec_DXT5_Swizzled.obj
 0001:00134400       ?Decompress@CCodec_DXT5_Swizzled@@UAE?AW4_CODECError@@AAVCCodecBuffer@@0@Z 00535400 f   ATI_Compress_MT:Codec_DXT5_Swizzled.obj
 0001:00134560       ??_GCCodec_DXT5_Swizzled@@UAEPAXI@Z 00535560 f i ATI_Compress_MT:Codec_DXT5_Swizzled.obj
 0001:00134560       ??_ECCodec_DXT5_Swizzled@@UAEPAXI@Z 00535560 f i ATI_Compress_MT:Codec_DXT5_Swizzled.obj
 0001:00134590       ?ConstructColor@@YAKEEEEEE@Z 00535590 f   ATI_Compress_MT:ATiXCodec.obj
 0001:00135fa0       ?CompBlock1X@@YAMPAMGQAEPAEE_N3HH3@Z 00536fa0 f   ATI_Compress_MT:ATiXCodec.obj
 0001:00136080       ?CompBlock1X@@YAMPAEGQAE0E_N2HH2@Z 00537080 f   ATI_Compress_MT:ATiXCodec.obj
 0001:001363f0       ?Clstr@@YAMQAKGQAY01EPAEEPAM_NEEEE@Z 005373f0 f   ATI_Compress_MT:ATiXCodec.obj
 0001:001367a0       ?Clstr@@YAMQAMGQAY01EPAEEPAM_NMEEE@Z 005377a0 f   ATI_Compress_MT:ATiXCodec.obj
 0001:0013ab00       ?CompressRGBBlockXSSE2@@YAXQAY01MQAY03MQAMHE_NEPAMEEE@Z 0053bb00 f   ATI_Compress_MT:ATiXCodec.obj
 0001:0013bc20       ?CompRGBBlock@@YAMPAMGEEEQAY01EPAEE_N3E03M@Z 0053cc20 f   ATI_Compress_MT:ATiXCodec.obj
 0001:0013c310       ?CompRGBBlock@@YAMPAKGEEEQAY01EPAEE_N3EPAM3E@Z 0053d310 f   ATI_Compress_MT:ATiXCodec.obj
 0001:0013c640       ?abs@@YAMM@Z               0053d640 f i ATI_Compress_MT:ATiXCodec.obj
 0001:0013c650       ?MkWkRmpPts@@YAXPA_NQAY01M1EEE@Z 0053d650 f i ATI_Compress_MT:ATiXCodec.obj
 0001:0013c7b0       ?BldClrRmp@@YAXQAM0E@Z     0053d7b0 f i ATI_Compress_MT:ATiXCodec.obj
 0001:0013c880       ?BldRmp@@YAXQAY0BA@MQAY01ME@Z 0053d880 f i ATI_Compress_MT:ATiXCodec.obj
 0001:0013c8b0       ??0CCodec_Block@@QAE@W4_CodecType@@@Z 0053d8b0 f   ATI_Compress_MT:Codec_Block.obj
 0001:0013c8d0       ??1CCodec_Block@@UAE@XZ    0053d8d0 f   ATI_Compress_MT:Codec_Block.obj
 0001:0013c8e0       ??_ECCodec_Block@@UAEPAXI@Z 0053d8e0 f i ATI_Compress_MT:Codec_Block.obj
 0001:0013c8e0       ??_GCCodec_Block@@UAEPAXI@Z 0053d8e0 f i ATI_Compress_MT:Codec_Block.obj
 0001:0013d030       _atiDecodeRGBBlockATITC    0053e030 f   ATI_Compress_MT:ati_tc.obj
 0001:0013d440       _CollatePixelsIntoRegions  0053e440 f   ATI_Compress_MT:ati_tc.obj
 0001:0013d970       _atiEncodeRGBBlockATITC    0053e970 f   ATI_Compress_MT:ati_tc.obj
 0001:0013dd60       _atiEncodeAlphaBlockATITCA4 0053ed60 f   ATI_Compress_MT:ati_tc.obj
 0001:0013de40       _atiDecodeAlphaBlockATITCA4 0053ee40 f   ATI_Compress_MT:ati_tc.obj
 0001:0013df10       _DXTCV11CompressBlock      0053ef10 f   ATI_Compress_MT:dxtc_v11_compress.obj
 0001:0013f220       _DXTCV11CompressAlphaBlock 00540220 f   ATI_Compress_MT:dxtc_v11_compress.obj
 0001:0013f500       _DXTCV11CompressExplicitAlphaBlock 00540500 f   ATI_Compress_MT:dxtc_v11_compress.obj
 0001:0013f650       @DXTCV11CompressExplicitAlphaBlockMMX@8 00540650 f   ATI_Compress_MT:dxtc_v11_compress_sse2.obj
 0001:0013f6c7       _DXTCV11CompressBlockSSE2  005406c7 f   ATI_Compress_MT:dxtc_v11_compress_sse2.obj
 0001:0013fe40       @DXTCV11CompressBlockSSE2Strided@12 00540e40 f   ATI_Compress_MT:dxtc_v11_compress_sse2.obj
 0001:001405b0       _DXTCV11CompressBlockSSE   005415b0 f   ATI_Compress_MT:dxtc_v11_compress_asm.obj
 0001:00140aa0       ?check@crn_comp_params@@QBE_NXZ 00541aa0 f i crnlib_VC9:crnlib.obj
 0001:00140bc0       ?get_flag@crn_comp_params@@QBE_NW4crn_comp_flags@@@Z 00541bc0 f i crnlib_VC9:crnlib.obj
 0001:00140bd0       ?check@crn_mipmap_params@@QBE_NXZ 00541bd0 f i crnlib_VC9:crnlib.obj
 0001:00140be0       ?get_dxt_format@pixel_format_helpers@crnlib@@YA?AW4dxt_format@2@W4pixel_format@2@@Z 00541be0 f i crnlib_VC9:crnlib.obj
 0001:00140c80       ?is_valid@dxt_image@crnlib@@QBE_NXZ 00541c80 f i crnlib_VC9:crnlib.obj
 0001:00140c90       ?get_bytes_per_block@dxt_image@crnlib@@QBEIXZ 00541c90 f i crnlib_VC9:crnlib.obj
 0001:00140ca0       ?clear@pack_params@dxt_image@crnlib@@QAEXXZ 00541ca0 f i crnlib_VC9:crnlib.obj
 0001:00140cf0       ?init@pack_params@dxt_image@crnlib@@QAEXABUcrn_comp_params@@@Z 00541cf0 f i crnlib_VC9:crnlib.obj
 0001:00140d60       ??0data_stream_serializer@crnlib@@QAE@AAVdata_stream@1@@Z 00541d60 f i crnlib_VC9:crnlib.obj
 0001:00140d70       ?get_image@mip_level@crnlib@@QBEPAV?$image@V?$color_quad@EH@crnlib@@@2@XZ 00541d70 f i crnlib_VC9:crnlib.obj
 0001:00140d80       ?get_width@dds_texture@crnlib@@QBEIXZ 00541d80 f i crnlib_VC9:crnlib.obj
 0001:00140d90       ?get_height@dds_texture@crnlib@@QBEIXZ 00541d90 f i crnlib_VC9:crnlib.obj
 0001:00140da0       ?get_format@dds_texture@crnlib@@QBE?AW4pixel_format@2@XZ 00541da0 f i crnlib_VC9:crnlib.obj
 0001:00140db0       ?get_buf@dynamic_stream@crnlib@@QAEAAV?$vector@E@2@XZ 00541db0 f i crnlib_VC9:crnlib.obj
 0001:00140dc0       ?open@buffer_stream@crnlib@@QAE_NPBXI@Z 00541dc0 f i crnlib_VC9:crnlib.obj
 0001:00140e30       ?crn_get_format_stringa@@YAPBDW4crn_format@@@Z 00541e30 f   crnlib_VC9:crnlib.obj
 0001:00140e40       ?crn_get_format_string@@YAPB_WW4crn_format@@@Z 00541e40 f   crnlib_VC9:crnlib.obj
 0001:00140e50       ?crn_get_format_fourcc@@YAIW4crn_format@@@Z 00541e50 f   crnlib_VC9:crnlib.obj
 0001:00140e60       ?crn_get_format_bits_per_texel@@YAIW4crn_format@@@Z 00541e60 f   crnlib_VC9:crnlib.obj
 0001:00140e70       ?crn_get_bytes_per_dxt_block@@YAIW4crn_format@@@Z 00541e70 f   crnlib_VC9:crnlib.obj
 0001:00140e80       ?crn_get_fundamental_dxt_format@@YA?AW4crn_format@@W41@@Z 00541e80 f   crnlib_VC9:crnlib.obj
 0001:00140e90       ?crn_get_file_type_ext@@YAPB_WW4crn_file_type@@@Z 00541e90 f   crnlib_VC9:crnlib.obj
 0001:00140eb0       ?crn_get_file_type_exta@@YAPBDW4crn_file_type@@@Z 00541eb0 f   crnlib_VC9:crnlib.obj
 0001:00140ed0       ?crn_get_mip_mode_desc@@YAPB_WW4crn_mip_mode@@@Z 00541ed0 f   crnlib_VC9:crnlib.obj
 0001:00140f10       ?crn_get_mip_mode_name@@YAPB_WW4crn_mip_mode@@@Z 00541f10 f   crnlib_VC9:crnlib.obj
 0001:00140f50       ?crn_get_mip_filter_name@@YAPBDW4crn_mip_filter@@@Z 00541f50 f   crnlib_VC9:crnlib.obj
 0001:00140fa0       ?crn_get_scale_mode_desc@@YAPB_WW4crn_scale_mode@@@Z 00541fa0 f   crnlib_VC9:crnlib.obj
 0001:00141000       ?crn_get_dxt_quality_string@@YAPB_WW4crn_dxt_quality@@@Z 00542000 f   crnlib_VC9:crnlib.obj
 0001:00141050       ?crn_get_dxt_quality_stringa@@YAPBDW4crn_dxt_quality@@@Z 00542050 f   crnlib_VC9:crnlib.obj
 0001:001410a0       ?crn_free_block@@YAXPAX@Z  005420a0 f   crnlib_VC9:crnlib.obj
 0001:001410b0       ?crn_free_all_images@@YAXPAPAIABUcrn_texture_desc@@@Z 005420b0 f   crnlib_VC9:crnlib.obj
 0001:00141100       ?crn_compress_block@@YAXPAXPBI0@Z 00542100 f   crnlib_VC9:crnlib.obj
 0001:00141120       ?crn_compress@@YAPAXABUcrn_comp_params@@AAIPAIPAM@Z 00542120 f   crnlib_VC9:crnlib.obj
 0001:001411e0       ?crn_compress@@YAPAXABUcrn_comp_params@@ABUcrn_mipmap_params@@AAIPAIPAM@Z 005421e0 f   crnlib_VC9:crnlib.obj
 0001:001412b0       ?crn_decompress_dds_to_images@@YA_NPBXIPAPAIAAUcrn_texture_desc@@@Z 005422b0 f   crnlib_VC9:crnlib.obj
 0001:001414e0       ?crn_decompress_crn_to_dds@@YAPAXPBXAAI@Z 005424e0 f   crnlib_VC9:crnlib.obj
 0001:00141610       ?crn_create_block_compressor@@YAPAXABUcrn_comp_params@@@Z 00542610 f   crnlib_VC9:crnlib.obj
 0001:00141650       ?crn_free_block_compressor@@YAXPAX@Z 00542650 f   crnlib_VC9:crnlib.obj
 0001:00141670       ?init@crn_block_compressor@crnlib@@QAE_NABUcrn_comp_params@@@Z 00542670 f i crnlib_VC9:crnlib.obj
 0001:001416e0       ?compress_block@crn_block_compressor@crnlib@@QAEXPBIPAX@Z 005426e0 f i crnlib_VC9:crnlib.obj
 0001:00141740       ?construct_array@?$scalar_type@E@crnlib@@SAXPAEI@Z 00542740 f i crnlib_VC9:crnlib.obj
 0001:00141760       ?destruct_array@?$scalar_type@E@crnlib@@SAXPAEI@Z 00542760 f i crnlib_VC9:crnlib.obj
 0001:00141770       ??0?$vector@E@crnlib@@QAE@XZ 00542770 f i crnlib_VC9:crnlib.obj
 0001:00141780       ??1?$vector@E@crnlib@@QAE@XZ 00542780 f i crnlib_VC9:crnlib.obj
 0001:00141790       ?destruct_array@?$scalar_type@G@crnlib@@SAXPAGI@Z 00542790 f i crnlib_VC9:crnlib.obj
 0001:001417a0       ?size@?$vector@E@crnlib@@QBEIXZ 005427a0 f i crnlib_VC9:crnlib.obj
 0001:001417b0       ?clear@?$vector@E@crnlib@@QAEXXZ 005427b0 f i crnlib_VC9:crnlib.obj
 0001:001417e0       ?destruct@?$scalar_type@I@crnlib@@SAXPAI@Z 005427e0 f i crnlib_VC9:crnlib.obj
 0001:001417f0       ?destruct_array@?$scalar_type@I@crnlib@@SAXPAII@Z 005427f0 f i crnlib_VC9:crnlib.obj
 0001:00141800       ?assume_ownership@?$vector@E@crnlib@@QAEPAXXZ 00542800 f i crnlib_VC9:crnlib.obj
 0001:00141810       ?get_pixel_buf@?$image@V?$color_quad@EH@crnlib@@@crnlib@@QAEAAV?$vector@V?$color_quad@EH@crnlib@@@2@XZ 00542810 f i crnlib_VC9:crnlib.obj
 0001:00141820       ?assume_ownership@?$vector@V?$color_quad@EH@crnlib@@@crnlib@@QAEPAXXZ 00542820 f i crnlib_VC9:crnlib.obj
 0001:00141830       ?empty@?$vector@V?$vector@PAVmip_level@crnlib@@@crnlib@@@crnlib@@QBE_NXZ 00542830 f i crnlib_VC9:crnlib.obj
 0001:00141840       ?size@?$vector@V?$vector@PAVmip_level@crnlib@@@crnlib@@@crnlib@@QBEIXZ 00542840 f i crnlib_VC9:crnlib.obj
 0001:00141850       ??A?$vector@V?$vector@PAVmip_level@crnlib@@@crnlib@@@crnlib@@QBEABV?$vector@PAVmip_level@crnlib@@@1@I@Z 00542850 f i crnlib_VC9:crnlib.obj
 0001:00141860       ??A?$vector@V?$vector@PAVmip_level@crnlib@@@crnlib@@@crnlib@@QAEAAV?$vector@PAVmip_level@crnlib@@@1@I@Z 00542860 f i crnlib_VC9:crnlib.obj
 0001:00141870       ?size@?$vector@PAVmip_level@crnlib@@@crnlib@@QBEIXZ 00542870 f i crnlib_VC9:crnlib.obj
 0001:00141880       ??A?$vector@PAVmip_level@crnlib@@@crnlib@@QAEAAPAVmip_level@1@I@Z 00542880 f i crnlib_VC9:crnlib.obj
 0001:00141890       ?destruct_array@?$scalar_type@V?$vec@$02M@crnlib@@@crnlib@@SAXPAV?$vec@$02M@2@I@Z 00542890 f i crnlib_VC9:crnlib.obj
 0001:001418a0       ?destruct_array@?$scalar_type@V?$vec@$02H@crnlib@@@crnlib@@SAXPAV?$vec@$02H@2@I@Z 005428a0 f i crnlib_VC9:crnlib.obj
 0001:001418b0       ?object_mover@?$vector@E@crnlib@@CAXPAX0I@Z 005428b0 f i crnlib_VC9:crnlib.obj
 0001:001418e0       ?destruct_value_type@?$hash_map@IIU?$hasher@I@crnlib@@U?$equal_to@I@2@@crnlib@@CAXPAU?$pair@II@std@@@Z 005428e0 f i crnlib_VC9:crnlib.obj
 0001:001418f0       ?empty@?$vector@Uraw_node@?$hash_map@IIU?$hasher@I@crnlib@@U?$equal_to@I@2@@crnlib@@@crnlib@@QBE_NXZ 005428f0 f i crnlib_VC9:crnlib.obj
 0001:00141900       ?size@?$vector@Uraw_node@?$hash_map@IIU?$hasher@I@crnlib@@U?$equal_to@I@2@@crnlib@@@crnlib@@QBEIXZ 00542900 f i crnlib_VC9:crnlib.obj
 0001:00141910       ?clear_no_destruction@?$vector@Uraw_node@?$hash_map@IIU?$hasher@I@crnlib@@U?$equal_to@I@2@@crnlib@@@crnlib@@QAEXXZ 00542910 f i crnlib_VC9:crnlib.obj
 0001:00141940       ?empty@?$vector@Uraw_node@?$hash_map@IUempty_type@crnlib@@U?$hasher@I@2@U?$equal_to@I@2@@crnlib@@@crnlib@@QBE_NXZ 00542940 f i crnlib_VC9:crnlib.obj
 0001:00141950       ?size@?$vector@Uraw_node@?$hash_map@IUempty_type@crnlib@@U?$hasher@I@2@U?$equal_to@I@2@@crnlib@@@crnlib@@QBEIXZ 00542950 f i crnlib_VC9:crnlib.obj
 0001:00141960       ?clear_no_destruction@?$vector@Uraw_node@?$hash_map@IUempty_type@crnlib@@U?$hasher@I@2@U?$equal_to@I@2@@crnlib@@@crnlib@@QAEXXZ 00542960 f i crnlib_VC9:crnlib.obj
 0001:00141990       ??A?$vector@Uraw_node@?$hash_map@IIU?$hasher@I@crnlib@@U?$equal_to@I@2@@crnlib@@@crnlib@@QAEAAUraw_node@?$hash_map@IIU?$hasher@I@crnlib@@U?$equal_to@I@2@@1@I@Z 00542990 f i crnlib_VC9:crnlib.obj
 0001:001419a0       ??A?$vector@Uraw_node@?$hash_map@IUempty_type@crnlib@@U?$hasher@I@2@U?$equal_to@I@2@@crnlib@@@crnlib@@QAEAAUraw_node@?$hash_map@IUempty_type@crnlib@@U?$hasher@I@2@U?$equal_to@I@2@@1@I@Z 005429a0 f i crnlib_VC9:crnlib.obj
 0001:001419b0       ??$maximum@I@math@crnlib@@YAIII@Z 005429b0 f i crnlib_VC9:crnlib.obj
 0001:001419c0       ??$construct@EE@helpers@crnlib@@YAPAEPAEABE@Z 005429c0 f i crnlib_VC9:crnlib.obj
 0001:001419e0       ??$swap@PAE@utils@crnlib@@YAXAAPAE0@Z 005429e0 f i crnlib_VC9:crnlib.obj
 0001:00141a00       ??$swap@I@utils@crnlib@@YAXAAI0@Z 00542a00 f i crnlib_VC9:crnlib.obj
 0001:00141a20       ??$destruct_array@Uunique_color@crnlib@@@helpers@crnlib@@YAXPAUunique_color@1@I@Z 00542a20 f i crnlib_VC9:crnlib.obj
 0001:00141a30       ??$destruct_array@Uelement@dxt_image@crnlib@@@helpers@crnlib@@YAXPAUelement@dxt_image@1@I@Z 00542a30 f i crnlib_VC9:crnlib.obj
 0001:00141a40       ??$destruct@Uempty_type@crnlib@@@helpers@crnlib@@YAXPAUempty_type@1@@Z 00542a40 f i crnlib_VC9:crnlib.obj
 0001:00141a50       ??1raw_node@?$hash_map@IIU?$hasher@I@crnlib@@U?$equal_to@I@2@@crnlib@@QAE@XZ 00542a50 f i crnlib_VC9:crnlib.obj
 0001:00141a60       ??$destruct_array@_W@helpers@crnlib@@YAXPA_WI@Z 00542a60 f i crnlib_VC9:crnlib.obj
 0001:00141a70       ??0pack_params@dxt_image@crnlib@@QAE@XZ 00542a70 f i crnlib_VC9:crnlib.obj
 0001:00141ac0       ?get_num_faces@dds_texture@crnlib@@QBEIXZ 00542ac0 f i crnlib_VC9:crnlib.obj
 0001:00141ad0       ?get_num_levels@dds_texture@crnlib@@QBEIXZ 00542ad0 f i crnlib_VC9:crnlib.obj
 0001:00141ae0       ?get_level@dds_texture@crnlib@@QAEPAVmip_level@2@II@Z 00542ae0 f i crnlib_VC9:crnlib.obj
 0001:00141b00       ?get_size@dynamic_stream@crnlib@@UAE_KXZ 00542b00 f i crnlib_VC9:crnlib.obj
 0001:00141b20       ??0crnlib_global_initializer@crnlib@@QAE@XZ 00542b20 f i crnlib_VC9:crnlib.obj
 0001:00141b70       ??1potential_solution@dxt1_endpoint_optimizer@crnlib@@QAE@XZ 00542b70 f i crnlib_VC9:crnlib.obj
 0001:00141b80       ??1?$vector@I@crnlib@@QAE@XZ 00542b80 f i crnlib_VC9:crnlib.obj
 0001:00141b90       ??1?$vector@G@crnlib@@QAE@XZ 00542b90 f i crnlib_VC9:crnlib.obj
 0001:00141ba0       ?swap@?$vector@E@crnlib@@QAEXAAV12@@Z 00542ba0 f i crnlib_VC9:crnlib.obj
 0001:00141bd0       ??1?$vector@V?$vec@$02M@crnlib@@@crnlib@@QAE@XZ 00542bd0 f i crnlib_VC9:crnlib.obj
 0001:00141be0       ??1?$vector@V?$vec@$02H@crnlib@@@crnlib@@QAE@XZ 00542be0 f i crnlib_VC9:crnlib.obj
 0001:00141bf0       ?increase_capacity@?$vector@E@crnlib@@AAE_NI_N0@Z 00542bf0 f i crnlib_VC9:crnlib.obj
 0001:00141c10       ?destruct_array@?$scalar_type@Uunique_color@crnlib@@@crnlib@@SAXPAUunique_color@2@I@Z 00542c10 f i crnlib_VC9:crnlib.obj
 0001:00141c20       ?destruct_array@?$scalar_type@Uelement@dxt_image@crnlib@@@crnlib@@SAXPAUelement@dxt_image@2@I@Z 00542c20 f i crnlib_VC9:crnlib.obj
 0001:00141c30       ?get_node@?$hash_map@IIU?$hasher@I@crnlib@@U?$equal_to@I@2@@crnlib@@AAEAAUnode@12@I@Z 00542c30 f i crnlib_VC9:crnlib.obj
 0001:00141c40       ?get_node@?$hash_map@IUempty_type@crnlib@@U?$hasher@I@2@U?$equal_to@I@2@@crnlib@@AAEAAUnode@12@I@Z 00542c40 f i crnlib_VC9:crnlib.obj
 0001:00141c50       ?destruct@?$scalar_type@Uempty_type@crnlib@@@crnlib@@SAXPAUempty_type@2@@Z 00542c50 f i crnlib_VC9:crnlib.obj
 0001:00141c60       ??_Graw_node@?$hash_map@IIU?$hasher@I@crnlib@@U?$equal_to@I@2@@crnlib@@QAEPAXI@Z 00542c60 f i crnlib_VC9:crnlib.obj
 0001:00141c80       ??$crnlib_delete_array@_W@crnlib@@YAXPA_W@Z 00542c80 f i crnlib_VC9:crnlib.obj
 0001:00141cb0       ??1dxt5_endpoint_optimizer@crnlib@@QAE@XZ 00542cb0 f i crnlib_VC9:crnlib.obj
 0001:00141d50       ?resize@?$vector@E@crnlib@@QAEXI_N@Z 00542d50 f i crnlib_VC9:crnlib.obj
 0001:00141db0       ??1?$vector@Uunique_color@crnlib@@@crnlib@@QAE@XZ 00542db0 f i crnlib_VC9:crnlib.obj
 0001:00141dc0       ??1?$vector@Uelement@dxt_image@crnlib@@@crnlib@@QAE@XZ 00542dc0 f i crnlib_VC9:crnlib.obj
 0001:00141dd0       ?clear@?$hash_map@IIU?$hasher@I@crnlib@@U?$equal_to@I@2@@crnlib@@QAEXXZ 00542dd0 f i crnlib_VC9:crnlib.obj
 0001:00141e10       ?destruct_value_type@?$hash_map@IUempty_type@crnlib@@U?$hasher@I@2@U?$equal_to@I@2@@crnlib@@CAXPAU?$pair@IUempty_type@crnlib@@@std@@@Z 00542e10 f i crnlib_VC9:crnlib.obj
 0001:00141e20       ??$destruct_array@Uraw_node@?$hash_map@IIU?$hasher@I@crnlib@@U?$equal_to@I@2@@crnlib@@@helpers@crnlib@@YAXPAUraw_node@?$hash_map@IIU?$hasher@I@crnlib@@U?$equal_to@I@2@@1@I@Z 00542e20 f i crnlib_VC9:crnlib.obj
 0001:00141e30       ??1raw_node@?$hash_map@IUempty_type@crnlib@@U?$hasher@I@2@U?$equal_to@I@2@@crnlib@@QAE@XZ 00542e30 f i crnlib_VC9:crnlib.obj
 0001:00141e40       ??1dynamic_wstring@crnlib@@QAE@XZ 00542e40 f i crnlib_VC9:crnlib.obj
 0001:00141e60       ??1data_stream@crnlib@@UAE@XZ 00542e60 f i crnlib_VC9:crnlib.obj
 0001:00141e90       ?get_parent@data_stream@crnlib@@UAEPAV12@XZ 00542e90 f i crnlib_VC9:crnlib.obj
 0001:00141ea0       ?close@data_stream@crnlib@@UAE_NXZ 00542ea0 f i crnlib_VC9:crnlib.obj
 0001:00141eb0       ?is_size_known@data_stream@crnlib@@UBE_NXZ 00542eb0 f i crnlib_VC9:crnlib.obj
 0001:00141ec0       ?get_ptr@data_stream@crnlib@@UBEPBXXZ 00542ec0 f i crnlib_VC9:crnlib.obj
 0001:00141ed0       ??_Gdata_stream@crnlib@@UAEPAXI@Z 00542ed0 f i crnlib_VC9:crnlib.obj
 0001:00141ed0       ??_Edata_stream@crnlib@@UAEPAXI@Z 00542ed0 f i crnlib_VC9:crnlib.obj
 0001:00141f10       ??1dynamic_stream@crnlib@@UAE@XZ 00542f10 f i crnlib_VC9:crnlib.obj
 0001:00141f90       ?post_seek@data_stream@crnlib@@IAEXXZ 00542f90 f i crnlib_VC9:crnlib.obj
 0001:00141fa0       ?flush@dynamic_stream@crnlib@@UAE_NXZ 00542fa0 f i crnlib_VC9:crnlib.obj
 0001:00141fb0       ?get_ofs@dynamic_stream@crnlib@@UAE_KXZ 00542fb0 f i crnlib_VC9:crnlib.obj
 0001:00141fd0       ?empty@?$vector@E@crnlib@@QBE_NXZ 00542fd0 f i crnlib_VC9:crnlib.obj
 0001:00141fe0       ??A?$vector@E@crnlib@@QBEABEI@Z 00542fe0 f i crnlib_VC9:crnlib.obj
 0001:00141ff0       ??A?$vector@E@crnlib@@QAEAAEI@Z 00542ff0 f i crnlib_VC9:crnlib.obj
 0001:00142000       ??$minimum@I@math@crnlib@@YAIII@Z 00543000 f i crnlib_VC9:crnlib.obj
 0001:00142010       ?is_bit_set@utils@crnlib@@YA_NII@Z 00543010 f i crnlib_VC9:crnlib.obj
 0001:00142020       ?is_readable@data_stream@crnlib@@QBE_NXZ 00543020 f i crnlib_VC9:crnlib.obj
 0001:00142030       ?is_writable@data_stream@crnlib@@QBE_NXZ 00543030 f i crnlib_VC9:crnlib.obj
 0001:00142040       ?is_seekable@data_stream@crnlib@@QBE_NXZ 00543040 f i crnlib_VC9:crnlib.obj
 0001:00142050       ?close@dynamic_stream@crnlib@@UAE_NXZ 00543050 f i crnlib_VC9:crnlib.obj
 0001:00142090       ?get_ptr@dynamic_stream@crnlib@@UBEPBXXZ 00543090 f i crnlib_VC9:crnlib.obj
 0001:001420a0       ?read@dynamic_stream@crnlib@@UAEIPAXI@Z 005430a0 f i crnlib_VC9:crnlib.obj
 0001:001420f0       ?get_remaining@dynamic_stream@crnlib@@UAE_KXZ 005430f0 f i crnlib_VC9:crnlib.obj
 0001:00142110       ?seek@dynamic_stream@crnlib@@UAE_N_J_N@Z 00543110 f i crnlib_VC9:crnlib.obj
 0001:00142180       ?open@dynamic_stream@crnlib@@QAE_NIPB_WI@Z 00543180 f i crnlib_VC9:crnlib.obj
 0001:00142230       ?write@dynamic_stream@crnlib@@UAEIPBXI@Z 00543230 f i crnlib_VC9:crnlib.obj
 0001:00142290       ??_Gdynamic_stream@crnlib@@UAEPAXI@Z 00543290 f i crnlib_VC9:crnlib.obj
 0001:00142290       ??_Edynamic_stream@crnlib@@UAEPAXI@Z 00543290 f i crnlib_VC9:crnlib.obj
 0001:001422b0       ??0buffer_stream@crnlib@@QAE@PBXI@Z 005432b0 f i crnlib_VC9:crnlib.obj
 0001:00142330       ?close@buffer_stream@crnlib@@UAE_NXZ 00543330 f i crnlib_VC9:crnlib.obj
 0001:00142350       ?get_ptr@buffer_stream@crnlib@@UBEPBXXZ 00543350 f i crnlib_VC9:crnlib.obj
 0001:00142360       ?flush@buffer_stream@crnlib@@UAE_NXZ 00543360 f i crnlib_VC9:crnlib.obj
 0001:00142370       ?get_size@buffer_stream@crnlib@@UAE_KXZ 00543370 f i crnlib_VC9:crnlib.obj
 0001:00142390       ?get_remaining@buffer_stream@crnlib@@UAE_KXZ 00543390 f i crnlib_VC9:crnlib.obj
 0001:001423b0       ?get_ofs@buffer_stream@crnlib@@UAE_KXZ 005433b0 f i crnlib_VC9:crnlib.obj
 0001:001423d0       ?read@buffer_stream@crnlib@@UAEIPAXI@Z 005433d0 f i crnlib_VC9:crnlib.obj
 0001:00142420       ?write@buffer_stream@crnlib@@UAEIPBXI@Z 00543420 f i crnlib_VC9:crnlib.obj
 0001:00142480       ?seek@buffer_stream@crnlib@@UAE_N_J_N@Z 00543480 f i crnlib_VC9:crnlib.obj
 0001:001424f0       ??1buffer_stream@crnlib@@UAE@XZ 005434f0 f i crnlib_VC9:crnlib.obj
 0001:00142520       ??_Ebuffer_stream@crnlib@@UAEPAXI@Z 00543520 f i crnlib_VC9:crnlib.obj
 0001:00142520       ??_Gbuffer_stream@crnlib@@UAEPAXI@Z 00543520 f i crnlib_VC9:crnlib.obj
 0001:00142560       ??1dxt_image@crnlib@@QAE@XZ 00543560 f i crnlib_VC9:crnlib.obj
 0001:00142570       ??4?$vector@E@crnlib@@QAEAAV01@ABV01@@Z 00543570 f i crnlib_VC9:crnlib.obj
 0001:00142600       ?reserve@?$vector@E@crnlib@@QAEXI@Z 00543600 f i crnlib_VC9:crnlib.obj
 0001:001426f0       ?clear@?$hash_map@IUempty_type@crnlib@@U?$hasher@I@2@U?$equal_to@I@2@@crnlib@@QAEXXZ 005436f0 f i crnlib_VC9:crnlib.obj
 0001:00142730       ?destruct_array@?$scalar_type@Uraw_node@?$hash_map@IIU?$hasher@I@crnlib@@U?$equal_to@I@2@@crnlib@@@crnlib@@SAXPAUraw_node@?$hash_map@IIU?$hasher@I@crnlib@@U?$equal_to@I@2@@2@I@Z 00543730 f i crnlib_VC9:crnlib.obj
 0001:00142740       ??_Graw_node@?$hash_map@IUempty_type@crnlib@@U?$hasher@I@2@U?$equal_to@I@2@@crnlib@@QAEPAXI@Z 00543740 f i crnlib_VC9:crnlib.obj
 0001:00142760       ??0dynamic_stream@crnlib@@QAE@XZ 00543760 f i crnlib_VC9:crnlib.obj
 0001:001427c0       ?reserve@dynamic_stream@crnlib@@QAEXI@Z 005437c0 f i crnlib_VC9:crnlib.obj
 0001:001427e0       ??1?$vector@Uraw_node@?$hash_map@IIU?$hasher@I@crnlib@@U?$equal_to@I@2@@crnlib@@@crnlib@@QAE@XZ 005437e0 f i crnlib_VC9:crnlib.obj
 0001:001427f0       ??$destruct_array@Uraw_node@?$hash_map@IUempty_type@crnlib@@U?$hasher@I@2@U?$equal_to@I@2@@crnlib@@@helpers@crnlib@@YAXPAUraw_node@?$hash_map@IUempty_type@crnlib@@U?$hasher@I@2@U?$equal_to@I@2@@1@I@Z 005437f0 f i crnlib_VC9:crnlib.obj
 0001:00142800       ??1?$hash_map@IIU?$hasher@I@crnlib@@U?$equal_to@I@2@@crnlib@@QAE@XZ 00543800 f i crnlib_VC9:crnlib.obj
 0001:00142880       ?destruct_array@?$scalar_type@Uraw_node@?$hash_map@IUempty_type@crnlib@@U?$hasher@I@2@U?$equal_to@I@2@@crnlib@@@crnlib@@SAXPAUraw_node@?$hash_map@IUempty_type@crnlib@@U?$hasher@I@2@U?$equal_to@I@2@@2@I@Z 00543880 f i crnlib_VC9:crnlib.obj
 0001:00142890       ??1?$vector@Uraw_node@?$hash_map@IUempty_type@crnlib@@U?$hasher@I@2@U?$equal_to@I@2@@crnlib@@@crnlib@@QAE@XZ 00543890 f i crnlib_VC9:crnlib.obj
 0001:001428a0       ??1?$hash_map@IUempty_type@crnlib@@U?$hasher@I@2@U?$equal_to@I@2@@crnlib@@QAE@XZ 005438a0 f i crnlib_VC9:crnlib.obj
 0001:00142920       ??1dxt1_endpoint_optimizer@crnlib@@QAE@XZ 00543920 f i crnlib_VC9:crnlib.obj
 0001:00142a90       ??1crn_block_compressor@crnlib@@QAE@XZ 00543a90 f i crnlib_VC9:crnlib.obj
 0001:00142b00       ??0crn_block_compressor@crnlib@@QAE@XZ 00543b00 f i crnlib_VC9:crnlib.obj
 0001:00142be0       ??$construct@Vcrn_block_compressor@crnlib@@@helpers@crnlib@@YAPAVcrn_block_compressor@1@PAV21@@Z 00543be0 f i crnlib_VC9:crnlib.obj
 0001:00142c20       ??_Gcrn_block_compressor@crnlib@@QAEPAXI@Z 00543c20 f i crnlib_VC9:crnlib.obj
 0001:00142c40       ??$crnlib_new@Vcrn_block_compressor@crnlib@@@crnlib@@YAPAVcrn_block_compressor@0@XZ 00543c40 f i crnlib_VC9:crnlib.obj
 0001:00142cb0       ??$destruct@Vcrn_block_compressor@crnlib@@@helpers@crnlib@@YAXPAVcrn_block_compressor@1@@Z 00543cb0 f i crnlib_VC9:crnlib.obj
 0001:00142cc0       ??$crnlib_delete@Vcrn_block_compressor@crnlib@@@crnlib@@YAXPAVcrn_block_compressor@0@@Z 00543cc0 f i crnlib_VC9:crnlib.obj
 0001:00142db0       ?crnlib_mem_error@crnlib@@YAXPBD@Z 00543db0 f   crnlib_VC9:crn_mem.obj
 0001:00142dd0       ?crnlib_malloc@crnlib@@YAPAXIPAI@Z 00543dd0 f   crnlib_VC9:crn_mem.obj
 0001:00142e60       ?crnlib_realloc@crnlib@@YAPAXPAXIPAI_N@Z 00543e60 f   crnlib_VC9:crn_mem.obj
 0001:00142ef0       ?crnlib_calloc@crnlib@@YAPAXIIPAI@Z 00543ef0 f   crnlib_VC9:crn_mem.obj
 0001:00142f20       ?crnlib_free@crnlib@@YAXPAX@Z 00543f20 f   crnlib_VC9:crn_mem.obj
 0001:00142f60       ?crnlib_msize@crnlib@@YAIPAX@Z 00543f60 f   crnlib_VC9:crn_mem.obj
 0001:00142fa0       ?crnlib_print_mem_stats@crnlib@@YAXXZ 00543fa0 f   crnlib_VC9:crn_mem.obj
 0001:00142fb0       ?crn_set_memory_callbacks@@YAXP6APAXPAXIPAI_N0@ZP6AI00@Z0@Z 00543fb0 f   crnlib_VC9:crn_mem.obj
 0001:00143000       ?get_num_formats@pixel_format_helpers@crnlib@@YAIXZ 00544000 f   crnlib_VC9:crn_pixel_format.obj
 0001:00143010       ?get_pixel_format_by_index@pixel_format_helpers@crnlib@@YA?AW4pixel_format@2@I@Z 00544010 f   crnlib_VC9:crn_pixel_format.obj
 0001:00143020       ?get_pixel_format_string@pixel_format_helpers@crnlib@@YAPB_WW4pixel_format@2@@Z 00544020 f   crnlib_VC9:crn_pixel_format.obj
 0001:00143140       ?get_pixel_format_stringa@pixel_format_helpers@crnlib@@YAPBDW4pixel_format@2@@Z 00544140 f   crnlib_VC9:crn_pixel_format.obj
 0001:00143260       ?get_crn_format_string@pixel_format_helpers@crnlib@@YAPB_WW4crn_format@@@Z 00544260 f   crnlib_VC9:crn_pixel_format.obj
 0001:001432e0       ?get_crn_format_stringa@pixel_format_helpers@crnlib@@YAPBDW4crn_format@@@Z 005442e0 f   crnlib_VC9:crn_pixel_format.obj
 0001:00143360       ?get_component_flags@pixel_format_helpers@crnlib@@YA?AW4component_flags@12@W4pixel_format@2@@Z 00544360 f   crnlib_VC9:crn_pixel_format.obj
 0001:00143450       ?convert_pixel_format_to_best_crn_format@pixel_format_helpers@crnlib@@YA?AW4crn_format@@W4pixel_format@2@@Z 00544450 f   crnlib_VC9:crn_pixel_format.obj
 0001:00143530       ?convert_crn_format_to_pixel_format@pixel_format_helpers@crnlib@@YA?AW4pixel_format@2@W4crn_format@@@Z 00544530 f   crnlib_VC9:crn_pixel_format.obj
 0001:001435b0       ?construct_array@?$scalar_type@E@crnd@@SAXPAEI@Z 005445b0 f i crnlib_VC9:crn_decomp.obj
 0001:001435d0       ?destruct_array@?$scalar_type@E@crnd@@SAXPAEI@Z 005445d0 f i crnlib_VC9:crn_decomp.obj
 0001:001435e0       ?construct_array@?$scalar_type@G@crnd@@SAXPAGI@Z 005445e0 f i crnlib_VC9:crn_decomp.obj
 0001:00143600       ?destruct_array@?$scalar_type@G@crnd@@SAXPAGI@Z 00544600 f i crnlib_VC9:crn_decomp.obj
 0001:00143610       ?construct_array@?$scalar_type@I@crnd@@SAXPAII@Z 00544610 f i crnlib_VC9:crn_decomp.obj
 0001:00143630       ?destruct_array@?$scalar_type@I@crnd@@SAXPAII@Z 00544630 f i crnlib_VC9:crn_decomp.obj
 0001:00143640       ?is_power_of_2@math@crnd@@YA_NI@Z 00544640 f i crnlib_VC9:crn_decomp.obj
 0001:00143660       ?next_pow2@math@crnd@@YAHI@Z 00544660 f i crnlib_VC9:crn_decomp.obj
 0001:00143690       ?total_bits@math@crnd@@YAII@Z 00544690 f i crnlib_VC9:crn_decomp.obj
 0001:001436b0       ?floor_log2i@math@crnd@@YAII@Z 005446b0 f i crnlib_VC9:crn_decomp.obj
 0001:001436d0       ?ceil_log2i@math@crnd@@YAII@Z 005446d0 f i crnlib_VC9:crn_decomp.obj
 0001:00143700       ??0decoder_tables@prefix_coding@crnd@@QAE@XZ 00544700 f i crnlib_VC9:crn_decomp.obj
 0001:00143720       ?get_unshifted_max_code@decoder_tables@prefix_coding@crnd@@QBEII@Z 00544720 f i crnlib_VC9:crn_decomp.obj
 0001:00143740       ?crc16@crnd@@YAGPBXIG@Z    00544740 f   crnlib_VC9:crn_decomp.obj
 0001:001437a0       ?compute_max_mips@utils@crnd@@YAIII@Z 005447a0 f   crnlib_VC9:crn_decomp.obj
 0001:001437d0       ?crnd_is_debugger_present@crnd@@YA_NXZ 005447d0 f   crnlib_VC9:crn_decomp.obj
 0001:001437e0       ?crnd_debug_break@crnd@@YAXXZ 005447e0 f   crnlib_VC9:crn_decomp.obj
 0001:001437f0       ?crnd_output_debug_string@crnd@@YAXPBD@Z 005447f0 f   crnlib_VC9:crn_decomp.obj
 0001:001438d0       ?crnd_set_memory_callbacks@crnd@@YAXP6APAXPAXIPAI_N0@ZP6AI00@Z0@Z 005448d0 f   crnlib_VC9:crn_decomp.obj
 0001:00143920       ?crnd_crn_format_to_fourcc@crnd@@YAIW4crn_format@@@Z 00544920 f   crnlib_VC9:crn_decomp.obj
 0001:001439a0       ?crnd_get_fundamental_dxt_format@crnd@@YA?AW4crn_format@@W42@@Z 005449a0 f   crnlib_VC9:crn_decomp.obj
 0001:001439c0       ?crnd_get_crn_format_bits_per_texel@crnd@@YAIW4crn_format@@@Z 005449c0 f   crnlib_VC9:crn_decomp.obj
 0001:00143a00       ?crnd_get_bytes_per_dxt_block@crnd@@YAIW4crn_format@@@Z 00544a00 f   crnlib_VC9:crn_decomp.obj
 0001:00143a50       ??0symbol_codec@crnd@@QAE@XZ 00544a50 f   crnlib_VC9:crn_decomp.obj
 0001:00143a70       ?get_bits_init@symbol_codec@crnd@@AAEXXZ 00544a70 f   crnlib_VC9:crn_decomp.obj
 0001:00143a80       ?get_bits@symbol_codec@crnd@@AAEII@Z 00544a80 f   crnlib_VC9:crn_decomp.obj
 0001:00143ae0       ?decode@symbol_codec@crnd@@QAEIABVstatic_huffman_data_model@2@@Z 00544ae0 f   crnlib_VC9:crn_decomp.obj
 0001:00143be0       ?stop_decoding@symbol_codec@crnd@@QAE_KXZ 00544be0 f   crnlib_VC9:crn_decomp.obj
 0001:00143bf0       ?pack_endpoints@dxt1_block@crnd@@SAIII@Z 00544bf0 f   crnlib_VC9:crn_decomp.obj
 0001:00143c00       ?set_alpha@dxt3_block@crnd@@QAEXIII_N@Z 00544c00 f   crnlib_VC9:crn_decomp.obj
 0001:00143c60       ?get_alpha@dxt3_block@crnd@@QBEIII_N@Z 00544c60 f   crnlib_VC9:crn_decomp.obj
 0001:00143c90       ?get_block_values6@dxt5_block@crnd@@SAIPAV?$color_quad@EH@2@II@Z 00544c90 f   crnlib_VC9:crn_decomp.obj
 0001:00143d10       ?get_block_values8@dxt5_block@crnd@@SAIPAV?$color_quad@EH@2@II@Z 00544d10 f   crnlib_VC9:crn_decomp.obj
 0001:00143de0       ?get_block_values@dxt5_block@crnd@@SAIPAV?$color_quad@EH@2@II@Z 00544de0 f   crnlib_VC9:crn_decomp.obj
 0001:00143e10       ?get_block_values6@dxt5_block@crnd@@SAIPAIII@Z 00544e10 f   crnlib_VC9:crn_decomp.obj
 0001:00143e80       ?get_block_values8@dxt5_block@crnd@@SAIPAIII@Z 00544e80 f   crnlib_VC9:crn_decomp.obj
 0001:00143f40       ?unpack_endpoint@dxt5_block@crnd@@SAIII@Z 00544f40 f   crnlib_VC9:crn_decomp.obj
 0001:00143f60       ?pack_endpoints@dxt5_block@crnd@@SAIII@Z 00544f60 f   crnlib_VC9:crn_decomp.obj
 0001:00143f70       ?get_block_values@dxt5_block@crnd@@SAIPAIII@Z 00544f70 f   crnlib_VC9:crn_decomp.obj
 0001:00143fa0       ?crnd_get_data@crnd@@YA_NPAXPAPBXPAI@Z 00544fa0 f   crnlib_VC9:crn_decomp.obj
 0001:00143fd0       ?crnd_assert@crnd@@YAXPBD0I@Z 00544fd0 f   crnlib_VC9:crn_decomp.obj
 0001:00144010       ?crnd_trace@crnd@@YAXPBDPAD@Z 00545010 f   crnlib_VC9:crn_decomp.obj
 0001:00144020       ?crnd_trace@crnd@@YAXPBDZZ 00545020 f   crnlib_VC9:crn_decomp.obj
 0001:00144070       ?crnd_malloc@crnd@@YAPAXIPAI@Z 00545070 f   crnlib_VC9:crn_decomp.obj
 0001:00144140       ?crnd_realloc@crnd@@YAPAXPAXIPAI_N@Z 00545140 f   crnlib_VC9:crn_decomp.obj
 0001:00144210       ?crnd_free@crnd@@YAXPAX@Z  00545210 f   crnlib_VC9:crn_decomp.obj
 0001:00144280       ?crnd_msize@crnd@@YAIPAX@Z 00545280 f   crnlib_VC9:crn_decomp.obj
 0001:001442f0       ?crnd_get_header@crnd@@YAPBUcrn_header@1@AAU21@PBXI@Z 005452f0 f   crnlib_VC9:crn_decomp.obj
 0001:00144360       ?compute_decoder_table_bits@static_huffman_data_model@crnd@@ABEIXZ 00545360 f   crnlib_VC9:crn_decomp.obj
 0001:001443a0       ?start_decoding@symbol_codec@crnd@@QAE_NPBEI@Z 005453a0 f   crnlib_VC9:crn_decomp.obj
 0001:001443e0       ?decode_bits@symbol_codec@crnd@@QAEII@Z 005453e0 f   crnlib_VC9:crn_decomp.obj
 0001:00144420       ?pack_color@dxt1_block@crnd@@SAGABV?$color_quad@EH@2@_NI@Z 00545420 f   crnlib_VC9:crn_decomp.obj
 0001:001444b0       ?increase_capacity@elemental_vector@crnd@@QAE_NI_NIP6AXPAX1I@Z@Z 005454b0 f   crnlib_VC9:crn_decomp.obj
 0001:00144590       ?init@decoder_tables@prefix_coding@crnd@@QAE_NIPBEI@Z 00545590 f   crnlib_VC9:crn_decomp.obj
 0001:001449e0       ?crnd_get_texture_info@crnd@@YA_NPBXIPAUcrn_texture_info@1@@Z 005459e0 f   crnlib_VC9:crn_decomp.obj
 0001:00144aa0       ?crnd_get_level_info@crnd@@YA_NPBXIIPAUcrn_level_info@1@@Z 00545aa0 f   crnlib_VC9:crn_decomp.obj
 0001:00144b90       ?crnd_get_level_data@crnd@@YAPBXPBXIIPAI@Z 00545b90 f   crnlib_VC9:crn_decomp.obj
 0001:00144c30       ?crnd_get_segmented_file_size@crnd@@YAIPBXI@Z 00545c30 f   crnlib_VC9:crn_decomp.obj
 0001:00144d80       ?crnd_create_segmented_file@crnd@@YA_NPBXIPAXI@Z 00545d80 f   crnlib_VC9:crn_decomp.obj
 0001:00144eb0       ?prepare_decoder_tables@static_huffman_data_model@crnd@@AAE_NXZ 00545eb0 f   crnlib_VC9:crn_decomp.obj
 0001:00144f40       ?crnd_unpack_level_segmented@crnd@@YA_NPAXPBXIPAPAXIII@Z 00545f40 f   crnlib_VC9:crn_decomp.obj
 0001:00144f90       ?crnd_validate_file@crnd@@YA_NPBXIPAUcrn_file_info@1@@Z 00545f90 f   crnlib_VC9:crn_decomp.obj
 0001:00145290       ??0static_huffman_data_model@crnd@@QAE@XZ 00546290 f   crnlib_VC9:crn_decomp.obj
 0001:001452b0       ?pack_color@dxt1_block@crnd@@SAGIII_NI@Z 005462b0 f   crnlib_VC9:crn_decomp.obj
 0001:00145330       ?unpack_color@dxt1_block@crnd@@SA?AV?$color_quad@EH@2@G_NI@Z 00546330 f   crnlib_VC9:crn_decomp.obj
 0001:00145390       ?unpack_color@dxt1_block@crnd@@SAXAAI00G_N@Z 00546390 f   crnlib_VC9:crn_decomp.obj
 0001:001453d0       ?get_block_colors3@dxt1_block@crnd@@SAIPAV?$color_quad@EH@2@GG@Z 005463d0 f   crnlib_VC9:crn_decomp.obj
 0001:00145530       ?get_block_colors4@dxt1_block@crnd@@SAIPAV?$color_quad@EH@2@GG@Z 00546530 f   crnlib_VC9:crn_decomp.obj
 0001:00145750       ?get_block_colors@dxt1_block@crnd@@SAIPAV?$color_quad@EH@2@GG@Z 00546750 f   crnlib_VC9:crn_decomp.obj
 0001:00145780       ?unpack_endpoint@dxt1_block@crnd@@SA?AV?$color_quad@EH@2@II_NI@Z 00546780 f   crnlib_VC9:crn_decomp.obj
 0001:001457b0       ?crnd_unpack_level@crnd@@YA_NPAXPAPAXIII@Z 005467b0 f   crnlib_VC9:crn_decomp.obj
 0001:001457f0       ?init@static_huffman_data_model@crnd@@QAE_NIPBEI@Z 005467f0 f   crnlib_VC9:crn_decomp.obj
 0001:001458a0       ??1static_huffman_data_model@crnd@@QAE@XZ 005468a0 f   crnlib_VC9:crn_decomp.obj
 0001:00145940       ?clear@static_huffman_data_model@crnd@@QAEXXZ 00546940 f   crnlib_VC9:crn_decomp.obj
 0001:001459b0       ?decode_receive_static_data_model@symbol_codec@crnd@@QAE_NAAVstatic_huffman_data_model@2@@Z 005469b0 f   crnlib_VC9:crn_decomp.obj
 0001:00145c20       ??4static_huffman_data_model@crnd@@QAEAAV01@ABV01@@Z 00546c20 f   crnlib_VC9:crn_decomp.obj
 0001:00145ca0       ??0static_huffman_data_model@crnd@@QAE@ABV01@@Z 00546ca0 f   crnlib_VC9:crn_decomp.obj
 0001:00145d00       ?crnd_unpack_begin@crnd@@YAPAXPBXI@Z 00546d00 f   crnlib_VC9:crn_decomp.obj
 0001:00145d50       ?crnd_unpack_end@crnd@@YA_NPAX@Z 00546d50 f   crnlib_VC9:crn_decomp.obj
 0001:00145d80       ?is_valid@crn_unpacker@crnd@@QBE_NXZ 00546d80 f i crnlib_VC9:crn_decomp.obj
 0001:00145d90       ?get_data@crn_unpacker@crnd@@QBEPBXXZ 00546d90 f i crnlib_VC9:crn_decomp.obj
 0001:00145da0       ?get_data_size@crn_unpacker@crnd@@QBEIXZ 00546da0 f i crnlib_VC9:crn_decomp.obj
 0001:00145db0       ?limit@crn_unpacker@crnd@@CAXAAII@Z 00546db0 f i crnlib_VC9:crn_decomp.obj
 0001:00145de0       ??0?$crn_packed_uint@$02@crnd@@QAE@XZ 00546de0 f i crnlib_VC9:crn_decomp.obj
 0001:00145df0       ??B?$crn_packed_uint@$02@crnd@@QBEIXZ 00546df0 f i crnlib_VC9:crn_decomp.obj
 0001:00145e10       ??0?$crn_packed_uint@$01@crnd@@QAE@XZ 00546e10 f i crnlib_VC9:crn_decomp.obj
 0001:00145e20       ??4?$crn_packed_uint@$01@crnd@@QAEAAU01@I@Z 00546e20 f i crnlib_VC9:crn_decomp.obj
 0001:00145e40       ??B?$crn_packed_uint@$01@crnd@@QBEIXZ 00546e40 f i crnlib_VC9:crn_decomp.obj
 0001:00145e50       ??0?$crn_packed_uint@$03@crnd@@QAE@XZ 00546e50 f i crnlib_VC9:crn_decomp.obj
 0001:00145e60       ??4?$crn_packed_uint@$03@crnd@@QAEAAU01@I@Z 00546e60 f i crnlib_VC9:crn_decomp.obj
 0001:00145e90       ??B?$crn_packed_uint@$03@crnd@@QBEIXZ 00546e90 f i crnlib_VC9:crn_decomp.obj
 0001:00145eb0       ??0?$crn_packed_uint@$00@crnd@@QAE@XZ 00546eb0 f i crnlib_VC9:crn_decomp.obj
 0001:00145ec0       ??B?$crn_packed_uint@$00@crnd@@QBEIXZ 00546ec0 f i crnlib_VC9:crn_decomp.obj
 0001:00145ed0       ??0?$vector@E@crnd@@QAE@XZ 00546ed0 f i crnlib_VC9:crn_decomp.obj
 0001:00145ee0       ?get_alloc_failed@?$vector@E@crnd@@QBE_NXZ 00546ee0 f i crnlib_VC9:crn_decomp.obj
 0001:00145ef0       ?size@?$vector@E@crnd@@QBEIXZ 00546ef0 f i crnlib_VC9:crn_decomp.obj
 0001:00145f00       ??A?$vector@E@crnd@@QAEAAEI@Z 00546f00 f i crnlib_VC9:crn_decomp.obj
 0001:00145f10       ??4?$color_quad@EH@crnd@@QAEAAV01@ABV01@@Z 00546f10 f i crnlib_VC9:crn_decomp.obj
 0001:00145f40       ??0?$vector@I@crnd@@QAE@XZ 00546f40 f i crnlib_VC9:crn_decomp.obj
 0001:00145f50       ?size@?$vector@I@crnd@@QBEIXZ 00546f50 f i crnlib_VC9:crn_decomp.obj
 0001:00145f60       ??A?$vector@I@crnd@@QAEAAII@Z 00546f60 f i crnlib_VC9:crn_decomp.obj
 0001:00145f70       ??0?$vector@G@crnd@@QAE@XZ 00546f70 f i crnlib_VC9:crn_decomp.obj
 0001:00145f80       ?size@?$vector@G@crnd@@QBEIXZ 00546f80 f i crnlib_VC9:crn_decomp.obj
 0001:00145f90       ??A?$vector@G@crnd@@QAEAAGI@Z 00546f90 f i crnlib_VC9:crn_decomp.obj
 0001:00145fa0       ?clamp@?$color_quad@EH@crnd@@CAHH@Z 00546fa0 f i crnlib_VC9:crn_decomp.obj
 0001:00145fc0       ??$zero_object@$$BY0BB@I@utils@crnd@@YAXAAY0BB@I@Z 00546fc0 f i crnlib_VC9:crn_decomp.obj
 0001:00145fe0       ??$minimum@I@math@crnd@@YAIII@Z 00546fe0 f i crnlib_VC9:crn_decomp.obj
 0001:00145ff0       ??$maximum@I@math@crnd@@YAIII@Z 00546ff0 f i crnlib_VC9:crn_decomp.obj
 0001:00146000       ??$zero_object@$$BY0BA@I@utils@crnd@@YAXAAY0BA@I@Z 00547000 f i crnlib_VC9:crn_decomp.obj
 0001:00146020       ??$construct@EE@helpers@crnd@@YAPAEPAEABE@Z 00547020 f i crnlib_VC9:crn_decomp.obj
 0001:00146040       ??$construct@II@helpers@crnd@@YAPAIPAIABI@Z 00547040 f i crnlib_VC9:crn_decomp.obj
 0001:00146060       ??$construct@GG@helpers@crnd@@YAPAGPAGABG@Z 00547060 f i crnlib_VC9:crn_decomp.obj
 0001:00146080       ??$construct_array@I@helpers@crnd@@YAXPAII@Z 00547080 f i crnlib_VC9:crn_decomp.obj
 0001:00146090       ??$construct_array@G@helpers@crnd@@YAXPAGI@Z 00547090 f i crnlib_VC9:crn_decomp.obj
 0001:001460a0       ??$destruct_array@I@helpers@crnd@@YAXPAII@Z 005470a0 f i crnlib_VC9:crn_decomp.obj
 0001:001460b0       ??$destruct_array@G@helpers@crnd@@YAXPAGI@Z 005470b0 f i crnlib_VC9:crn_decomp.obj
 0001:001460c0       ??$construct@Vdecoder_tables@prefix_coding@crnd@@@helpers@crnd@@YAPAVdecoder_tables@prefix_coding@1@PAV231@@Z 005470c0 f i crnlib_VC9:crn_decomp.obj
 0001:001460f0       ??0crn_palette@crnd@@QAE@XZ 005470f0 f i crnlib_VC9:crn_decomp.obj
 0001:00146100       ?unpack_dxt1@crn_unpacker@crnd@@AAE_NPAPAEIIIIII@Z 00547100 f i crnlib_VC9:crn_decomp.obj
 0001:001464f0       ?unpack_dxt5@crn_unpacker@crnd@@AAE_NPAPAEIIIIII@Z 005474f0 f i crnlib_VC9:crn_decomp.obj
 0001:00146890       ?unpack_dxn@crn_unpacker@crnd@@AAE_NPAPAEIIIIII@Z 00547890 f i crnlib_VC9:crn_decomp.obj
 0001:00146c50       ?unpack_dxt5a@crn_unpacker@crnd@@AAE_NPAPAEIIIIII@Z 00547c50 f i crnlib_VC9:crn_decomp.obj
 0001:00146f20       ?clear@?$vector@E@crnd@@QAEXXZ 00547f20 f i crnlib_VC9:crn_decomp.obj
 0001:00146f50       ?set@?$color_quad@EH@crnd@@QAEAAV12@HHHH@Z 00547f50 f i crnlib_VC9:crn_decomp.obj
 0001:00146fd0       ?clear@?$vector@I@crnd@@QAEXXZ 00547fd0 f i crnlib_VC9:crn_decomp.obj
 0001:00147000       ?clear@?$vector@G@crnd@@QAEXXZ 00548000 f i crnlib_VC9:crn_decomp.obj
 0001:00147030       ?object_mover@?$vector@E@crnd@@CAXPAX0I@Z 00548030 f i crnlib_VC9:crn_decomp.obj
 0001:00147060       ?object_mover@?$vector@I@crnd@@CAXPAX0I@Z 00548060 f i crnlib_VC9:crn_decomp.obj
 0001:00147090       ?object_mover@?$vector@G@crnd@@CAXPAX0I@Z 00548090 f i crnlib_VC9:crn_decomp.obj
 0001:001470c0       ??$crnd_new_array@I@crnd@@YAPAII@Z 005480c0 f i crnlib_VC9:crn_decomp.obj
 0001:00147100       ??$crnd_new_array@G@crnd@@YAPAGI@Z 00548100 f i crnlib_VC9:crn_decomp.obj
 0001:00147130       ??$crnd_delete_array@I@crnd@@YAXPAI@Z 00548130 f i crnlib_VC9:crn_decomp.obj
 0001:00147150       ??$crnd_delete_array@G@crnd@@YAXPAG@Z 00548150 f i crnlib_VC9:crn_decomp.obj
 0001:00147170       ??$crnd_new@Vdecoder_tables@prefix_coding@crnd@@@crnd@@YAPAVdecoder_tables@prefix_coding@0@XZ 00548170 f i crnlib_VC9:crn_decomp.obj
 0001:001471b0       ?clear@decoder_tables@prefix_coding@crnd@@QAEXXZ 005481b0 f i crnlib_VC9:crn_decomp.obj
 0001:00147200       ??1decoder_tables@prefix_coding@crnd@@QAE@XZ 00548200 f i crnlib_VC9:crn_decomp.obj
 0001:00147240       ??0crn_header@crnd@@QAE@XZ 00548240 f i crnlib_VC9:crn_decomp.obj
 0001:00147250       ?unpack_level@crn_unpacker@crnd@@QAE_NPBXIPAPAXIII@Z 00548250 f i crnlib_VC9:crn_decomp.obj
 0001:00147400       ??1?$vector@E@crnd@@QAE@XZ 00548400 f i crnlib_VC9:crn_decomp.obj
 0001:00147430       ??0?$color_quad@EH@crnd@@QAE@HHHH@Z 00548430 f i crnlib_VC9:crn_decomp.obj
 0001:00147460       ??1?$vector@I@crnd@@QAE@XZ 00548460 f i crnlib_VC9:crn_decomp.obj
 0001:00147490       ??1?$vector@G@crnd@@QAE@XZ 00548490 f i crnlib_VC9:crn_decomp.obj
 0001:001474c0       ?increase_capacity@?$vector@E@crnd@@AAE_NI_N@Z 005484c0 f i crnlib_VC9:crn_decomp.obj
 0001:001474f0       ?increase_capacity@?$vector@I@crnd@@AAE_NI_N@Z 005484f0 f i crnlib_VC9:crn_decomp.obj
 0001:00147520       ?increase_capacity@?$vector@G@crnd@@AAE_NI_N@Z 00548520 f i crnlib_VC9:crn_decomp.obj
 0001:00147550       ??_Gdecoder_tables@prefix_coding@crnd@@QAEPAXI@Z 00548550 f i crnlib_VC9:crn_decomp.obj
 0001:001475a0       ??4decoder_tables@prefix_coding@crnd@@QAEAAV012@ABV012@@Z 005485a0 f i crnlib_VC9:crn_decomp.obj
 0001:00147690       ?unpack_level@crn_unpacker@crnd@@QAE_NPAPAXIII@Z 00548690 f i crnlib_VC9:crn_decomp.obj
 0001:00147720       ?resize@?$vector@E@crnd@@QAE_NI@Z 00548720 f i crnlib_VC9:crn_decomp.obj
 0001:00147780       ?resize@?$vector@I@crnd@@QAE_NI@Z 00548780 f i crnlib_VC9:crn_decomp.obj
 0001:001477f0       ?resize@?$vector@G@crnd@@QAE_NI@Z 005487f0 f i crnlib_VC9:crn_decomp.obj
 0001:00147860       ?assign@?$vector@E@crnd@@QAE_NABV12@@Z 00548860 f i crnlib_VC9:crn_decomp.obj
 0001:001478e0       ??$destruct@Vdecoder_tables@prefix_coding@crnd@@@helpers@crnd@@YAXPAVdecoder_tables@prefix_coding@1@@Z 005488e0 f i crnlib_VC9:crn_decomp.obj
 0001:00147920       ??0decoder_tables@prefix_coding@crnd@@QAE@ABV012@@Z 00548920 f i crnlib_VC9:crn_decomp.obj
 0001:00147950       ??4?$vector@E@crnd@@QAEAAV01@ABV01@@Z 00548950 f i crnlib_VC9:crn_decomp.obj
 0001:00147970       ??$crnd_delete@Vdecoder_tables@prefix_coding@crnd@@@crnd@@YAXPAVdecoder_tables@prefix_coding@0@@Z 00548970 f i crnlib_VC9:crn_decomp.obj
 0001:001479b0       ??$construct@Vdecoder_tables@prefix_coding@crnd@@V123@@helpers@crnd@@YAPAVdecoder_tables@prefix_coding@1@PAV231@ABV231@@Z 005489b0 f i crnlib_VC9:crn_decomp.obj
 0001:00147a10       ??0crn_unpacker@crnd@@QAE@XZ 00548a10 f i crnlib_VC9:crn_decomp.obj
 0001:00147b20       ??1crn_unpacker@crnd@@QAE@XZ 00548b20 f i crnlib_VC9:crn_decomp.obj
 0001:00147c60       ?init_tables@crn_unpacker@crnd@@AAE_NXZ 00548c60 f i crnlib_VC9:crn_decomp.obj
 0001:00147d60       ?decode_color_endpoints@crn_unpacker@crnd@@AAE_NXZ 00548d60 f i crnlib_VC9:crn_decomp.obj
 0001:00147fa0       ?decode_color_selectors@crn_unpacker@crnd@@AAE_NXZ 00548fa0 f i crnlib_VC9:crn_decomp.obj
 0001:00148240       ?decode_alpha_endpoints@crn_unpacker@crnd@@AAE_NXZ 00549240 f i crnlib_VC9:crn_decomp.obj
 0001:001483a0       ?decode_alpha_selectors@crn_unpacker@crnd@@AAE_NXZ 005493a0 f i crnlib_VC9:crn_decomp.obj
 0001:001486c0       ??$crnd_new@Vdecoder_tables@prefix_coding@crnd@@@crnd@@YAPAVdecoder_tables@prefix_coding@0@ABV120@@Z 005496c0 f i crnlib_VC9:crn_decomp.obj
 0001:001486f0       ??$construct@Vcrn_unpacker@crnd@@@helpers@crnd@@YAPAVcrn_unpacker@1@PAV21@@Z 005496f0 f i crnlib_VC9:crn_decomp.obj
 0001:00148730       ??_Gcrn_unpacker@crnd@@QAEPAXI@Z 00549730 f i crnlib_VC9:crn_decomp.obj
 0001:00148750       ?decode_palettes@crn_unpacker@crnd@@AAE_NXZ 00549750 f i crnlib_VC9:crn_decomp.obj
 0001:001487c0       ??$crnd_new@Vcrn_unpacker@crnd@@@crnd@@YAPAVcrn_unpacker@0@XZ 005497c0 f i crnlib_VC9:crn_decomp.obj
 0001:00148820       ??$destruct@Vcrn_unpacker@crnd@@@helpers@crnd@@YAXPAVcrn_unpacker@1@@Z 00549820 f i crnlib_VC9:crn_decomp.obj
 0001:00148830       ?init@crn_unpacker@crnd@@QAE_NPBXI@Z 00549830 f i crnlib_VC9:crn_decomp.obj
 0001:00148880       ??$crnd_delete@Vcrn_unpacker@crnd@@@crnd@@YAXPAVcrn_unpacker@0@@Z 00549880 f i crnlib_VC9:crn_decomp.obj
 0001:001488a0       ?elucidian_distance@color@crnlib@@YAIIIIIII@Z 005498a0 f i crnlib_VC9:crn_dxt_image.obj
 0001:001488d0       ?elucidian_distance@color@crnlib@@YAIIIIIIIII@Z 005498d0 f i crnlib_VC9:crn_dxt_image.obj
 0001:00148910       ?elucidian_distance@color@crnlib@@YAIABV?$color_quad@EH@2@0_N@Z 00549910 f i crnlib_VC9:crn_dxt_image.obj
 0001:001489a0       ?weighted_elucidian_distance@color@crnlib@@YAIIIIIIIIIIIII@Z 005499a0 f i crnlib_VC9:crn_dxt_image.obj
 0001:00148a00       ?weighted_elucidian_distance@color@crnlib@@YAIABV?$color_quad@EH@2@0IIII@Z 00549a00 f i crnlib_VC9:crn_dxt_image.obj
 0001:00148a70       ?color_distance@color@crnlib@@YAI_NABV?$color_quad@EH@2@10@Z 00549a70 f i crnlib_VC9:crn_dxt_image.obj
 0001:00148ad0       ?get_low_color@dxt1_block@crnlib@@QBEIXZ 00549ad0 f i crnlib_VC9:crn_dxt_image.obj
 0001:00148ae0       ?get_high_color@dxt1_block@crnlib@@QBEIXZ 00549ae0 f i crnlib_VC9:crn_dxt_image.obj
 0001:00148af0       ?set_low_color@dxt1_block@crnlib@@QAEXG@Z 00549af0 f i crnlib_VC9:crn_dxt_image.obj
 0001:00148b00       ?set_high_color@dxt1_block@crnlib@@QAEXG@Z 00549b00 f i crnlib_VC9:crn_dxt_image.obj
 0001:00148b10       ?get_selector@dxt1_block@crnlib@@QBEIII@Z 00549b10 f i crnlib_VC9:crn_dxt_image.obj
 0001:00148b30       ?set_selector@dxt1_block@crnlib@@QAEXIII@Z 00549b30 f i crnlib_VC9:crn_dxt_image.obj
 0001:00148b60       ?get_low_alpha@dxt5_block@crnlib@@QBEIXZ 00549b60 f i crnlib_VC9:crn_dxt_image.obj
 0001:00148b70       ?get_high_alpha@dxt5_block@crnlib@@QBEIXZ 00549b70 f i crnlib_VC9:crn_dxt_image.obj
 0001:00148b80       ?set_low_alpha@dxt5_block@crnlib@@QAEXI@Z 00549b80 f i crnlib_VC9:crn_dxt_image.obj
 0001:00148b90       ?set_high_alpha@dxt5_block@crnlib@@QAEXI@Z 00549b90 f i crnlib_VC9:crn_dxt_image.obj
 0001:00148ba0       ?get_selector@dxt5_block@crnlib@@QBEIII@Z 00549ba0 f i crnlib_VC9:crn_dxt_image.obj
 0001:00148be0       ?set_selector@dxt5_block@crnlib@@QAEXIII@Z 00549be0 f i crnlib_VC9:crn_dxt_image.obj
 0001:00148c40       ??0params@dxt1_endpoint_optimizer@crnlib@@QAE@XZ 00549c40 f i crnlib_VC9:crn_dxt_image.obj
 0001:00148c80       ??0results@dxt1_endpoint_optimizer@crnlib@@QAE@XZ 00549c80 f i crnlib_VC9:crn_dxt_image.obj
 0001:00148c90       ??0params@dxt5_endpoint_optimizer@crnlib@@QAE@XZ 00549c90 f i crnlib_VC9:crn_dxt_image.obj
 0001:00148cb0       ?get_total_blocks@dxt_image@crnlib@@QBEIXZ 00549cb0 f i crnlib_VC9:crn_dxt_image.obj
 0001:00148cc0       ?get_element@dxt_image@crnlib@@QBEABUelement@12@III@Z 00549cc0 f   crnlib_VC9:crn_dxt_image.obj
 0001:00148ce0       ?get_element@dxt_image@crnlib@@QAEAAUelement@12@III@Z 00549ce0 f   crnlib_VC9:crn_dxt_image.obj
 0001:00148d00       ?has_alpha@dxt_image@crnlib@@QBE_NXZ 00549d00 f   crnlib_VC9:crn_dxt_image.obj
 0001:00148da0       ?get_pixel_alpha@dxt_image@crnlib@@QBEIIII@Z 00549da0 f   crnlib_VC9:crn_dxt_image.obj
 0001:00149030       ?get_block_endpoints@dxt_image@crnlib@@QBEXIIIAAI0@Z 0054a030 f   crnlib_VC9:crn_dxt_image.obj
 0001:001490c0       ?get_selector@dxt_image@crnlib@@QBEIIII@Z 0054a0c0 f   crnlib_VC9:crn_dxt_image.obj
 0001:00149170       ?change_dxt1_to_dxt1a@dxt_image@crnlib@@QAEXXZ 0054a170 f   crnlib_VC9:crn_dxt_image.obj
 0001:00149180       ?endian_swap@dxt_image@crnlib@@QAEXXZ 0054a180 f   crnlib_VC9:crn_dxt_image.obj
 0001:001491a0       ?set_pixel@dxt_image@crnlib@@QAEXIIABV?$color_quad@EH@2@_N@Z 0054a1a0 f   crnlib_VC9:crn_dxt_image.obj
 0001:00149450       ?get_block_pixels@dxt_image@crnlib@@QBEXIIPAV?$color_quad@EH@2@@Z 0054a450 f   crnlib_VC9:crn_dxt_image.obj
 0001:00149770       ?set_block_pixels@dxt_image@crnlib@@QAEXIIPBV?$color_quad@EH@2@ABUpack_params@12@AAVdxt1_endpoint_optimizer@2@AAVdxt5_endpoint_optimizer@2@@Z 0054a770 f   crnlib_VC9:crn_dxt_image.obj
 0001:00149dd0       ?get_block_endpoints@dxt_image@crnlib@@QBEHIIIAAV?$color_quad@EH@2@0_N@Z 0054add0 f   crnlib_VC9:crn_dxt_image.obj
 0001:00149eb0       ?get_block_colors@dxt_image@crnlib@@QAEIIIIPAV?$color_quad@EH@2@@Z 0054aeb0 f   crnlib_VC9:crn_dxt_image.obj
 0001:00149fa0       ??0dxt_image@crnlib@@QAE@XZ 0054afa0 f   crnlib_VC9:crn_dxt_image.obj
 0001:00149fe0       ?clear@dxt_image@crnlib@@QAEXXZ 0054afe0 f   crnlib_VC9:crn_dxt_image.obj
 0001:0014a030       ?init_internal@dxt_image@crnlib@@AAE_NW4dxt_format@2@II@Z 0054b030 f   crnlib_VC9:crn_dxt_image.obj
 0001:0014a150       ?init@dxt_image@crnlib@@QAE_NW4dxt_format@2@II_N@Z 0054b150 f   crnlib_VC9:crn_dxt_image.obj
 0001:0014a1d0       ?init@dxt_image@crnlib@@QAE_NW4dxt_format@2@IIIPAUelement@12@_N@Z 0054b1d0 f   crnlib_VC9:crn_dxt_image.obj
 0001:0014a270       ?get_pixel@dxt_image@crnlib@@QBE?AV?$color_quad@EH@2@II@Z 0054b270 f   crnlib_VC9:crn_dxt_image.obj
 0001:0014a6e0       ??4dxt_image@crnlib@@QAEAAV01@ABV01@@Z 0054b6e0 f   crnlib_VC9:crn_dxt_image.obj
 0001:0014a7b0       ?unpack@dxt_image@crnlib@@QBE_NAAV?$image@V?$color_quad@EH@crnlib@@@2@@Z 0054b7b0 f   crnlib_VC9:crn_dxt_image.obj
 0001:0014a9a0       ??0dxt_image@crnlib@@QAE@ABV01@@Z 0054b9a0 f   crnlib_VC9:crn_dxt_image.obj
 0001:0014a9f0       ?set_block_pixels@dxt_image@crnlib@@QAEXIIPBV?$color_quad@EH@2@ABUpack_params@12@@Z 0054b9f0 f   crnlib_VC9:crn_dxt_image.obj
 0001:0014aab0       ?init_task@dxt_image@crnlib@@AAEX_KPAX@Z 0054bab0 f   crnlib_VC9:crn_dxt_image.obj
 0001:0014adb0       ?init@dxt_image@crnlib@@QAE_NW4dxt_format@2@ABV?$image@V?$color_quad@EH@crnlib@@@2@ABUpack_params@12@@Z 0054bdb0 f   crnlib_VC9:crn_dxt_image.obj
 0001:0014af50       ??0?$color_quad@EH@crnlib@@QAE@XZ 0054bf50 f i crnlib_VC9:crn_dxt_image.obj
 0001:0014af60       ??0?$color_quad@EH@crnlib@@QAE@ABV01@@Z 0054bf60 f i crnlib_VC9:crn_dxt_image.obj
 0001:0014af90       ??4?$color_quad@EH@crnlib@@QAEAAV01@ABV01@@Z 0054bf90 f i crnlib_VC9:crn_dxt_image.obj
 0001:0014afc0       ?set_noclamp_rgba@?$color_quad@EH@crnlib@@QAEAAV12@HHHH@Z 0054bfc0 f i crnlib_VC9:crn_dxt_image.obj
 0001:0014afe0       ?set_noclamp_rgb@?$color_quad@EH@crnlib@@QAEAAV12@HHH@Z 0054bfe0 f i crnlib_VC9:crn_dxt_image.obj
 0001:0014b000       ??A?$color_quad@EH@crnlib@@QBEEI@Z 0054c000 f i crnlib_VC9:crn_dxt_image.obj
 0001:0014b010       ??A?$color_quad@EH@crnlib@@QAEAAEI@Z 0054c010 f i crnlib_VC9:crn_dxt_image.obj
 0001:0014b020       ??0?$vector@Uelement@dxt_image@crnlib@@@crnlib@@QAE@XZ 0054c020 f i crnlib_VC9:crn_dxt_image.obj
 0001:0014b030       ?size_in_bytes@?$vector@Uelement@dxt_image@crnlib@@@crnlib@@QBEIXZ 0054c030 f i crnlib_VC9:crn_dxt_image.obj
 0001:0014b040       ??A?$vector@Uelement@dxt_image@crnlib@@@crnlib@@QAEAAUelement@dxt_image@1@I@Z 0054c040 f i crnlib_VC9:crn_dxt_image.obj
 0001:0014b050       ?get_ptr@?$vector@Uelement@dxt_image@crnlib@@@crnlib@@QAEPAUelement@dxt_image@2@XZ 0054c050 f i crnlib_VC9:crn_dxt_image.obj
 0001:0014b060       ?reset_comp_flags@?$image@V?$color_quad@EH@crnlib@@@crnlib@@QAEXXZ 0054c060 f i crnlib_VC9:crn_dxt_image.obj
 0001:0014b070       ?get_width@?$image@V?$color_quad@EH@crnlib@@@crnlib@@QBEIXZ 0054c070 f i crnlib_VC9:crn_dxt_image.obj
 0001:0014b080       ?get_height@?$image@V?$color_quad@EH@crnlib@@@crnlib@@QBEIXZ 0054c080 f i crnlib_VC9:crn_dxt_image.obj
 0001:0014b090       ??R?$image@V?$color_quad@EH@crnlib@@@crnlib@@QBEABV?$color_quad@EH@1@II@Z 0054c090 f i crnlib_VC9:crn_dxt_image.obj
 0001:0014b0b0       ??R?$image@V?$color_quad@EH@crnlib@@@crnlib@@QAEAAV?$color_quad@EH@1@II@Z 0054c0b0 f i crnlib_VC9:crn_dxt_image.obj
 0001:0014b0d0       ??$clamp@H@?$color_quad@EH@crnlib@@CAHH@Z 0054c0d0 f i crnlib_VC9:crn_dxt_image.obj
 0001:0014b0f0       ??0?$vector@V?$color_quad@EH@crnlib@@@crnlib@@QAE@XZ 0054c0f0 f i crnlib_VC9:crn_dxt_image.obj
 0001:0014b100       ??A?$vector@V?$color_quad@EH@crnlib@@@crnlib@@QAEAAV?$color_quad@EH@1@I@Z 0054c100 f i crnlib_VC9:crn_dxt_image.obj
 0001:0014b110       ?front@?$vector@V?$color_quad@EH@crnlib@@@crnlib@@QAEAAV?$color_quad@EH@2@XZ 0054c110 f i crnlib_VC9:crn_dxt_image.obj
 0001:0014b120       ?object_mover@?$vector@Uelement@dxt_image@crnlib@@@crnlib@@CAXPAX0I@Z 0054c120 f i crnlib_VC9:crn_dxt_image.obj
 0001:0014b160       ?construct_array@?$scalar_type@V?$color_quad@EH@crnlib@@@crnlib@@SAXPAV?$color_quad@EH@2@I@Z 0054c160 f i crnlib_VC9:crn_dxt_image.obj
 0001:0014b170       ?destruct_array@?$scalar_type@V?$color_quad@EH@crnlib@@@crnlib@@SAXPAV?$color_quad@EH@2@I@Z 0054c170 f i crnlib_VC9:crn_dxt_image.obj
 0001:0014b180       ?object_mover@?$vector@V?$color_quad@EH@crnlib@@@crnlib@@CAXPAX0I@Z 0054c180 f i crnlib_VC9:crn_dxt_image.obj
 0001:0014b1d0       ??$zero_object@$$BY01W4element_type@dxt_image@crnlib@@@utils@crnlib@@YAXAAY01W4element_type@dxt_image@1@@Z 0054c1d0 f i crnlib_VC9:crn_dxt_image.obj
 0001:0014b1e0       ??$zero_object@$$BY01C@utils@crnlib@@YAXAAY01C@Z 0054c1e0 f i crnlib_VC9:crn_dxt_image.obj
 0001:0014b1f0       ??$swap@PAV?$color_quad@EH@crnlib@@@utils@crnlib@@YAXAAPAV?$color_quad@EH@1@0@Z 0054c1f0 f i crnlib_VC9:crn_dxt_image.obj
 0001:0014b210       ??$construct_array@Uelement@dxt_image@crnlib@@@helpers@crnlib@@YAXPAUelement@dxt_image@1@I@Z 0054c210 f i crnlib_VC9:crn_dxt_image.obj
 0001:0014b220       ??0executable_task@task_pool@crnlib@@QAE@XZ 0054c220 f i crnlib_VC9:crn_dxt_image.obj
 0001:0014b230       ?set_bit@utils@crnlib@@YAXAAII_N@Z 0054c230 f i crnlib_VC9:crn_dxt_image.obj
 0001:0014b250       ?set_flag@utils@crnlib@@YAXAAII_N@Z 0054c250 f i crnlib_VC9:crn_dxt_image.obj
 0001:0014b270       ?set@?$color_quad@EH@crnlib@@QAEAAV12@HHHH@Z 0054c270 f i crnlib_VC9:crn_dxt_image.obj
 0001:0014b2e0       ?set_component_valid@?$image@V?$color_quad@EH@crnlib@@@crnlib@@QAEXI_N@Z 0054c2e0 f i crnlib_VC9:crn_dxt_image.obj
 0001:0014b310       ?increase_capacity@?$vector@Uelement@dxt_image@crnlib@@@crnlib@@AAE_NI_N0@Z 0054c310 f i crnlib_VC9:crn_dxt_image.obj
 0001:0014b330       ??1?$vector@V?$color_quad@EH@crnlib@@@crnlib@@QAE@XZ 0054c330 f i crnlib_VC9:crn_dxt_image.obj
 0001:0014b340       ?swap@?$vector@V?$color_quad@EH@crnlib@@@crnlib@@QAEXAAV12@@Z 0054c340 f i crnlib_VC9:crn_dxt_image.obj
 0001:0014b370       ?construct_array@?$scalar_type@Uelement@dxt_image@crnlib@@@crnlib@@SAXPAUelement@dxt_image@2@I@Z 0054c370 f i crnlib_VC9:crn_dxt_image.obj
 0001:0014b380       ?clear@?$vector@V?$color_quad@EH@crnlib@@@crnlib@@QAEXXZ 0054c380 f i crnlib_VC9:crn_dxt_image.obj
 0001:0014b3b0       ?increase_capacity@?$vector@V?$color_quad@EH@crnlib@@@crnlib@@AAE_NI_N0@Z 0054c3b0 f i crnlib_VC9:crn_dxt_image.obj
 0001:0014b3d0       ??0?$object_task@Vdxt_image@crnlib@@@crnlib@@QAE@PAVdxt_image@1@P821@AEX_KPAX@ZI@Z 0054c3d0 f i crnlib_VC9:crn_dxt_image.obj
 0001:0014b3f0       ??$destruct@V?$object_task@Vdxt_image@crnlib@@@crnlib@@@helpers@crnlib@@YAXPAV?$object_task@Vdxt_image@crnlib@@@1@@Z 0054c3f0 f i crnlib_VC9:crn_dxt_image.obj
 0001:0014b400       ??$crnlib_delete@V?$object_task@Vdxt_image@crnlib@@@crnlib@@@crnlib@@YAXPAV?$object_task@Vdxt_image@crnlib@@@0@@Z 0054c400 f i crnlib_VC9:crn_dxt_image.obj
 0001:0014b420       ??0?$color_quad@EH@crnlib@@QAE@HHHH@Z 0054c420 f i crnlib_VC9:crn_dxt_image.obj
 0001:0014b450       ?make_black@?$color_quad@EH@crnlib@@SA?AV12@XZ 0054c450 f i crnlib_VC9:crn_dxt_image.obj
 0001:0014b470       ?clear@?$vector@Uelement@dxt_image@crnlib@@@crnlib@@QAEXXZ 0054c470 f i crnlib_VC9:crn_dxt_image.obj
 0001:0014b4a0       ?resize@?$vector@Uelement@dxt_image@crnlib@@@crnlib@@QAEXI_N@Z 0054c4a0 f i crnlib_VC9:crn_dxt_image.obj
 0001:0014b4f0       ?clear@?$image@V?$color_quad@EH@crnlib@@@crnlib@@QAEXXZ 0054c4f0 f i crnlib_VC9:crn_dxt_image.obj
 0001:0014b530       ?try_resize@?$vector@V?$color_quad@EH@crnlib@@@crnlib@@QAE_NI_N@Z 0054c530 f i crnlib_VC9:crn_dxt_image.obj
 0001:0014b580       ?execute_task@?$object_task@Vdxt_image@crnlib@@@crnlib@@UAEX_KPAX@Z 0054c580 f i crnlib_VC9:crn_dxt_image.obj
 0001:0014b5b0       ??$crnlib_new@V?$object_task@Vdxt_image@crnlib@@@crnlib@@PAVdxt_image@2@P832@AEX_KPAX@ZW4object_task_flags@2@@crnlib@@YAPAV?$object_task@Vdxt_image@crnlib@@@0@ABQAVdxt_image@0@ABQ820@AEX_KPAX@ZABW4object_task_flags@0@@Z 0054c5b0 f i crnlib_VC9:crn_dxt_image.obj
 0001:0014b5f0       ?resize@?$image@V?$color_quad@EH@crnlib@@@crnlib@@QAE_NIIIV?$color_quad@EH@2@@Z 0054c5f0 f i crnlib_VC9:crn_dxt_image.obj
 0001:0014b850       ??$queue_object_task@Vdxt_image@crnlib@@P812@AEX_KPAX@Z@task_pool@crnlib@@QAEXPAVdxt_image@1@P821@AEX_KPAX@Z12@Z 0054c850 f i crnlib_VC9:crn_dxt_image.obj
 0001:0014b8a0       ?crnlib_enable_fail_exceptions@@YAX_N@Z 0054c8a0 f   crnlib_VC9:crn_assert.obj
 0001:0014b8b0       ?crnlib_assert@@YAXPBD0I@Z 0054c8b0 f   crnlib_VC9:crn_assert.obj
 0001:0014b910       ?crnlib_fail@@YAXPBD0I@Z   0054c910 f   crnlib_VC9:crn_assert.obj
 0001:0014b990       ?trace@@YAXPBDPAD@Z        0054c990 f   crnlib_VC9:crn_assert.obj
 0001:0014b9e0       ?trace@@YAXPBDZZ           0054c9e0 f   crnlib_VC9:crn_assert.obj
 0001:0014ba30       ?interlocked_compare_exchange32@crnlib@@YAHPCHHH@Z 0054ca30 f   crnlib_VC9:crn_win32_threading.obj
 0001:0014ba50       ?interlocked_increment32@crnlib@@YAHPCH@Z 0054ca50 f   crnlib_VC9:crn_win32_threading.obj
 0001:0014ba60       ?interlocked_exchange_add32@crnlib@@YAHPCHH@Z 0054ca60 f   crnlib_VC9:crn_win32_threading.obj
 0001:0014ba80       ?interlocked_exchange32@crnlib@@YAHPCHH@Z 0054ca80 f   crnlib_VC9:crn_win32_threading.obj
 0001:0014baa0       ?get_current_thread_id@crnlib@@YAIXZ 0054caa0 f   crnlib_VC9:crn_win32_threading.obj
 0001:0014bab0       ?sAbs@@YAHH@Z              0054cab0 f i crnlib_VC9:crn_ryg_dxt.obj
 0001:0014bac0       ?sSetMem@@YAXPAXHH@Z       0054cac0 f i crnlib_VC9:crn_ryg_dxt.obj
 0001:0014bad0       ?sFAbs@@YANN@Z             0054cad0 f i crnlib_VC9:crn_ryg_dxt.obj
 0001:0014d290       ?sInitDXT@ryg_dxt@@YAXXZ   0054e290 f   crnlib_VC9:crn_ryg_dxt.obj
 0001:0014d380       ?sCompressDXTBlock@ryg_dxt@@YAXPAEPBI_NH@Z 0054e380 f   crnlib_VC9:crn_ryg_dxt.obj
 0001:0014d3c0       ?sCompressDXT5ABlock@ryg_dxt@@YAXPAEPBIH@Z 0054e3c0 f   crnlib_VC9:crn_ryg_dxt.obj
 0001:0014d3d0       ?From16Bit@Pixel@ryg_dxt@@QAEXG@Z 0054e3d0 f i crnlib_VC9:crn_ryg_dxt.obj
 0001:0014d410       ?As16Bit@Pixel@ryg_dxt@@QBEGXZ 0054e410 f i crnlib_VC9:crn_ryg_dxt.obj
 0001:0014d470       ?LerpRGB@Pixel@ryg_dxt@@QAEXABT12@0H@Z 0054e470 f i crnlib_VC9:crn_ryg_dxt.obj
 0001:0014d4f0       ??$sSwap@PAH@@YAXAAPAH0@Z  0054e4f0 f i crnlib_VC9:crn_ryg_dxt.obj
 0001:0014d510       ??$sMin@H@@YAHHH@Z         0054e510 f i crnlib_VC9:crn_ryg_dxt.obj
 0001:0014d520       ??$sMax@H@@YAHHH@Z         0054e520 f i crnlib_VC9:crn_ryg_dxt.obj
 0001:0014d530       ??$sMax@N@@YANNN@Z         0054e530 f i crnlib_VC9:crn_ryg_dxt.obj
 0001:0014d550       ??$sClamp@H@@YAHHHH@Z      0054e550 f i crnlib_VC9:crn_ryg_dxt.obj
 0001:0014d570       ??$sMin@I@@YAIII@Z         0054e570 f i crnlib_VC9:crn_ryg_dxt.obj
 0001:0014d580       ??$sMax@I@@YAIII@Z         0054e580 f i crnlib_VC9:crn_ryg_dxt.obj
 0001:0014d590       ??$sSwap@G@@YAXAAG0@Z      0054e590 f i crnlib_VC9:crn_ryg_dxt.obj
 0001:0014d5b0       ?is_crn_format_non_srgb@pixel_format_helpers@crnlib@@YA_NW4crn_format@@@Z 0054e5b0 f i crnlib_VC9:crn_texture_comp.obj
 0001:0014d5d0       ??0resample_params@dds_texture@crnlib@@QAE@XZ 0054e5d0 f i crnlib_VC9:crn_texture_comp.obj
 0001:0014d600       ??0generate_mipmap_params@dds_texture@crnlib@@QAE@XZ 0054e600 f i crnlib_VC9:crn_texture_comp.obj
 0001:0014d640       ?get_ptr@?$image@V?$color_quad@EH@crnlib@@@crnlib@@QAEPAV?$color_quad@EH@2@XZ 0054e640 f i crnlib_VC9:crn_texture_comp.obj
 0001:0014d650       ??0?$vec@$01H@crnlib@@QAE@XZ 0054e650 f i crnlib_VC9:crn_texture_comp.obj
 0001:0014d660       ?set@?$vec@$01H@crnlib@@QAEAAV12@HH@Z 0054e660 f i crnlib_VC9:crn_texture_comp.obj
 0001:0014d680       ??A?$vec@$01H@crnlib@@QBEHI@Z 0054e680 f i crnlib_VC9:crn_texture_comp.obj
 0001:0014d690       ?construct@?$scalar_type@PAVmip_level@crnlib@@@crnlib@@SAXPAPAVmip_level@2@PAV32@@Z 0054e690 f i crnlib_VC9:crn_texture_comp.obj
 0001:0014d6a0       ?object_mover@?$vector@PAVmip_level@crnlib@@@crnlib@@CAXPAX0I@Z 0054e6a0 f i crnlib_VC9:crn_texture_comp.obj
 0001:0014d6d0       ?destruct_array@?$scalar_type@PAVmip_level@crnlib@@@crnlib@@SAXPAPAVmip_level@2@I@Z 0054e6d0 f i crnlib_VC9:crn_texture_comp.obj
 0001:0014d6e0       ??$lerp@MM@math@crnlib@@YAMMMM@Z 0054e6e0 f i crnlib_VC9:crn_texture_comp.obj
 0001:0014d700       ??$maximum@M@math@crnlib@@YAMMM@Z 0054e700 f i crnlib_VC9:crn_texture_comp.obj
 0001:0014d730       ??$clamp@H@math@crnlib@@YAHHHH@Z 0054e730 f i crnlib_VC9:crn_texture_comp.obj
 0001:0014d750       ??$construct@PAVmip_level@crnlib@@PAV12@@helpers@crnlib@@YAPAPAVmip_level@1@PAPAV21@ABQAV21@@Z 0054e750 f i crnlib_VC9:crn_texture_comp.obj
 0001:0014d770       ??0?$vector@PAVmip_level@crnlib@@@crnlib@@QAE@XZ 0054e770 f i crnlib_VC9:crn_texture_comp.obj
 0001:0014d780       ??$construct@Vcrn_comp@crnlib@@@helpers@crnlib@@YAPAVcrn_comp@1@PAV21@@Z 0054e780 f i crnlib_VC9:crn_texture_comp.obj
 0001:0014d7c0       ??$construct@Vdds_comp@crnlib@@@helpers@crnlib@@YAPAVdds_comp@1@PAV21@@Z 0054e7c0 f i crnlib_VC9:crn_texture_comp.obj
 0001:0014d800       ??$destruct@Vitexture_comp@crnlib@@@helpers@crnlib@@YAXPAVitexture_comp@1@@Z 0054e800 f i crnlib_VC9:crn_texture_comp.obj
 0001:0014d810       ??$construct@Vmip_level@crnlib@@@helpers@crnlib@@YAPAVmip_level@1@PAV21@@Z 0054e810 f i crnlib_VC9:crn_texture_comp.obj
 0001:0014d850       ?is_power_of_2@math@crnlib@@YA_NI@Z 0054e850 f i crnlib_VC9:crn_texture_comp.obj
 0001:0014d870       ?set@rect@crnlib@@QAEXHHHH@Z 0054e870 f i crnlib_VC9:crn_texture_comp.obj
 0001:0014d890       ?get_width@rect@crnlib@@QBEIXZ 0054e890 f i crnlib_VC9:crn_texture_comp.obj
 0001:0014d8a0       ?get_height@rect@crnlib@@QBEIXZ 0054e8a0 f i crnlib_VC9:crn_texture_comp.obj
 0001:0014d8b0       ?get_left@rect@crnlib@@QBEHXZ 0054e8b0 f i crnlib_VC9:crn_texture_comp.obj
 0001:0014d8c0       ?get_top@rect@crnlib@@QBEHXZ 0054e8c0 f i crnlib_VC9:crn_texture_comp.obj
 0001:0014d8d0       ?get_right@rect@crnlib@@QBEHXZ 0054e8d0 f i crnlib_VC9:crn_texture_comp.obj
 0001:0014d8e0       ?get_bottom@rect@crnlib@@QBEHXZ 0054e8e0 f i crnlib_VC9:crn_texture_comp.obj
 0001:0014d8f0       ?is_empty@rect@crnlib@@QBE_NXZ 0054e8f0 f i crnlib_VC9:crn_texture_comp.obj
 0001:0014d910       ?increase_capacity@?$vector@PAVmip_level@crnlib@@@crnlib@@AAE_NI_N0@Z 0054e910 f i crnlib_VC9:crn_texture_comp.obj
 0001:0014d930       ??0?$vector@PAVmip_level@crnlib@@@crnlib@@QAE@ABV01@@Z 0054e930 f i crnlib_VC9:crn_texture_comp.obj
 0001:0014d980       ??1?$vector@PAVmip_level@crnlib@@@crnlib@@QAE@XZ 0054e980 f i crnlib_VC9:crn_texture_comp.obj
 0001:0014d990       ??$crnlib_new@Vcrn_comp@crnlib@@@crnlib@@YAPAVcrn_comp@0@XZ 0054e990 f i crnlib_VC9:crn_texture_comp.obj
 0001:0014da00       ??$crnlib_new@Vdds_comp@crnlib@@@crnlib@@YAPAVdds_comp@0@XZ 0054ea00 f i crnlib_VC9:crn_texture_comp.obj
 0001:0014da70       ??$crnlib_delete@Vitexture_comp@crnlib@@@crnlib@@YAXPAVitexture_comp@0@@Z 0054ea70 f i crnlib_VC9:crn_texture_comp.obj
 0001:0014da90       ??$crnlib_new@Vmip_level@crnlib@@@crnlib@@YAPAVmip_level@0@XZ 0054ea90 f i crnlib_VC9:crn_texture_comp.obj
 0001:0014daf0       ??$construct_array@V?$vector@PAVmip_level@crnlib@@@crnlib@@@helpers@crnlib@@YAXPAV?$vector@PAVmip_level@crnlib@@@1@I@Z 0054eaf0 f i crnlib_VC9:crn_texture_comp.obj
 0001:0014db20       ??0rect@crnlib@@QAE@HHHH@Z 0054eb20 f i crnlib_VC9:crn_texture_comp.obj
 0001:0014db60       ?create_texture_mipmaps@crnlib@@YA_NAAVdds_texture@1@ABUcrn_comp_params@@ABUcrn_mipmap_params@@_N@Z 0054eb60 f   crnlib_VC9:crn_texture_comp.obj
 0001:0014e090       ?create_compressed_texture@crnlib@@YA_NABUcrn_comp_params@@AAV?$vector@E@1@PAIPAM@Z 0054f090 f   crnlib_VC9:crn_texture_comp.obj
 0001:0014eb10       ?create_compressed_texture@crnlib@@YA_NABUcrn_comp_params@@ABUcrn_mipmap_params@@AAV?$vector@E@1@PAIPAM@Z 0054fb10 f   crnlib_VC9:crn_texture_comp.obj
 0001:0014eca0       ??1?$image@V?$color_quad@EH@crnlib@@@crnlib@@QAE@XZ 0054fca0 f i crnlib_VC9:crn_texture_comp.obj
 0001:0014ecb0       ??0?$image@V?$color_quad@EH@crnlib@@@crnlib@@QAE@XZ 0054fcb0 f i crnlib_VC9:crn_texture_comp.obj
 0001:0014ece0       ?alias@?$image@V?$color_quad@EH@crnlib@@@crnlib@@QAEXPAV?$color_quad@EH@2@IIII@Z 0054fce0 f i crnlib_VC9:crn_texture_comp.obj
 0001:0014ed40       ?swap@?$image@V?$color_quad@EH@crnlib@@@crnlib@@QAEXAAV12@@Z 0054fd40 f i crnlib_VC9:crn_texture_comp.obj
 0001:0014edc0       ?push_back@?$vector@PAVmip_level@crnlib@@@crnlib@@QAEXABQAVmip_level@2@@Z 0054fdc0 f i crnlib_VC9:crn_texture_comp.obj
 0001:0014edf0       ?construct_array@?$scalar_type@V?$vector@PAVmip_level@crnlib@@@crnlib@@@crnlib@@SAXPAV?$vector@PAVmip_level@crnlib@@@2@I@Z 0054fdf0 f i crnlib_VC9:crn_texture_comp.obj
 0001:0014ee20       ??_G?$vector@PAVmip_level@crnlib@@@crnlib@@QAEPAXI@Z 0054fe20 f i crnlib_VC9:crn_texture_comp.obj
 0001:0014ee50       ??$destruct_array@V?$vector@PAVmip_level@crnlib@@@crnlib@@@helpers@crnlib@@YAXPAV?$vector@PAVmip_level@crnlib@@@1@I@Z 0054fe50 f i crnlib_VC9:crn_texture_comp.obj
 0001:0014ee80       ??$construct@V?$image@V?$color_quad@EH@crnlib@@@crnlib@@@helpers@crnlib@@YAPAV?$image@V?$color_quad@EH@crnlib@@@1@PAV21@@Z 0054fe80 f i crnlib_VC9:crn_texture_comp.obj
 0001:0014eeb0       ?destruct_array@?$scalar_type@V?$vector@PAVmip_level@crnlib@@@crnlib@@@crnlib@@SAXPAV?$vector@PAVmip_level@crnlib@@@2@I@Z 0054feb0 f i crnlib_VC9:crn_texture_comp.obj
 0001:0014eee0       ?object_mover@?$vector@V?$vector@PAVmip_level@crnlib@@@crnlib@@@crnlib@@CAXPAX0I@Z 0054fee0 f i crnlib_VC9:crn_texture_comp.obj
 0001:0014ef90       ??$crnlib_new@V?$image@V?$color_quad@EH@crnlib@@@crnlib@@@crnlib@@YAPAV?$image@V?$color_quad@EH@crnlib@@@0@XZ 0054ff90 f i crnlib_VC9:crn_texture_comp.obj
 0001:0014efd0       ??1?$vector@V?$vector@PAVmip_level@crnlib@@@crnlib@@@crnlib@@QAE@XZ 0054ffd0 f i crnlib_VC9:crn_texture_comp.obj
 0001:0014f010       ?increase_capacity@?$vector@V?$vector@PAVmip_level@crnlib@@@crnlib@@@crnlib@@AAE_NI_N0@Z 00550010 f i crnlib_VC9:crn_texture_comp.obj
 0001:0014f030       ?resize@?$vector@V?$vector@PAVmip_level@crnlib@@@crnlib@@@crnlib@@QAEXI_N@Z 00550030 f i crnlib_VC9:crn_texture_comp.obj
 0001:0014f0b0       ??0?$vector@V?$vector@PAVmip_level@crnlib@@@crnlib@@@crnlib@@QAE@I@Z 005500b0 f i crnlib_VC9:crn_texture_comp.obj
 0001:0014f0d0       ?next_pow2@math@crnlib@@YAII@Z 005500d0 f i crnlib_VC9:crn_vector.obj
 0001:0014f100       ?increase_capacity@elemental_vector@crnlib@@QAE_NI_NIP6AXPAX1I@Z0@Z 00550100 f   crnlib_VC9:crn_vector.obj
 0001:0014f270       ?alloc_group@sparse_bit_array@crnlib@@CAPAI_N@Z 00550270 f i crnlib_VC9:crn_sparse_bit_array.obj
 0001:0014f2c0       ?free_group@sparse_bit_array@crnlib@@CAXPAX@Z 005502c0 f i crnlib_VC9:crn_sparse_bit_array.obj
 0001:0014f2e0       ??0sparse_bit_array@crnlib@@QAE@XZ 005502e0 f   crnlib_VC9:crn_sparse_bit_array.obj
 0001:0014f2f0       ??0sparse_bit_array@crnlib@@QAE@AAV01@@Z 005502f0 f   crnlib_VC9:crn_sparse_bit_array.obj
 0001:0014f3a0       ?clear@sparse_bit_array@crnlib@@QAEXXZ 005503a0 f   crnlib_VC9:crn_sparse_bit_array.obj
 0001:0014f3f0       ?optimize@sparse_bit_array@crnlib@@QAEXXZ 005503f0 f   crnlib_VC9:crn_sparse_bit_array.obj
 0001:0014f460       ?clear_all_bits@sparse_bit_array@crnlib@@QAEXXZ 00550460 f   crnlib_VC9:crn_sparse_bit_array.obj
 0001:0014f490       ??_4sparse_bit_array@crnlib@@QAEAAV01@ABV01@@Z 00550490 f   crnlib_VC9:crn_sparse_bit_array.obj
 0001:0014f590       ??_5sparse_bit_array@crnlib@@QAEAAV01@ABV01@@Z 00550590 f   crnlib_VC9:crn_sparse_bit_array.obj
 0001:0014f690       ?and_not@sparse_bit_array@crnlib@@QAEAAV12@ABV12@@Z 00550690 f   crnlib_VC9:crn_sparse_bit_array.obj
 0001:0014f780       ??1sparse_bit_array@crnlib@@QAE@XZ 00550780 f   crnlib_VC9:crn_sparse_bit_array.obj
 0001:0014f790       ??4sparse_bit_array@crnlib@@QAEAAV01@AAV01@@Z 00550790 f   crnlib_VC9:crn_sparse_bit_array.obj
 0001:0014f880       ?swap@sparse_bit_array@crnlib@@QAEXAAV12@@Z 00550880 f   crnlib_VC9:crn_sparse_bit_array.obj
 0001:0014f8a0       ?set_bit_range@sparse_bit_array@crnlib@@QAEXII@Z 005508a0 f   crnlib_VC9:crn_sparse_bit_array.obj
 0001:0014fab0       ?clear_bit_range@sparse_bit_array@crnlib@@QAEXII@Z 00550ab0 f   crnlib_VC9:crn_sparse_bit_array.obj
 0001:0014fbe0       ?resize@sparse_bit_array@crnlib@@QAEXI@Z 00550be0 f   crnlib_VC9:crn_sparse_bit_array.obj
 0001:0014fcd0       ?find_first_set_bit@sparse_bit_array@crnlib@@QBEHII@Z 00550cd0 f   crnlib_VC9:crn_sparse_bit_array.obj
 0001:0014fe50       ??0sparse_bit_array@crnlib@@QAE@I@Z 00550e50 f   crnlib_VC9:crn_sparse_bit_array.obj
 0001:0014fe70       ??$swap@PAPAI@utils@crnlib@@YAXAAPAPAI0@Z 00550e70 f i crnlib_VC9:crn_sparse_bit_array.obj
 0001:0014fe90       ?count_trailing_zero_bits@math@crnlib@@YAII@Z 00550e90 f i crnlib_VC9:crn_sparse_bit_array.obj
 0001:0014fef0       ?set_bit@sparse_bit_array@crnlib@@QAEXI@Z 00550ef0 f i crnlib_VC9:crn_sparse_bit_array.obj
 0001:0014ff70       ?clear_bit@sparse_bit_array@crnlib@@QAEXI@Z 00550f70 f i crnlib_VC9:crn_sparse_bit_array.obj
 0001:0014fff0       ?read_byte@data_stream@crnlib@@QAEHXZ 00550ff0 f i crnlib_VC9:crn_data_stream.obj
 0001:00150010       ?printf@data_stream@crnlib@@QAA_NPBDZZ 00551010 f   crnlib_VC9:crn_data_stream.obj
 0001:00150080       ?skip@data_stream@crnlib@@UAE_K_K@Z 00551080 f   crnlib_VC9:crn_data_stream.obj
 0001:00150120       ?read_line@data_stream@crnlib@@QAE_NAAVdynamic_string@2@@Z 00551120 f   crnlib_VC9:crn_data_stream.obj
 0001:001501b0       ?write_line@data_stream@crnlib@@QAE_NABVdynamic_string@2@@Z 005511b0 f   crnlib_VC9:crn_data_stream.obj
 0001:001501f0       ?write_line@data_stream@crnlib@@QAE_NABVdynamic_wstring@2@@Z 005511f0 f   crnlib_VC9:crn_data_stream.obj
 0001:00150230       ?write_array@data_stream@crnlib@@QAE_NABV?$vector@E@2@@Z 00551230 f   crnlib_VC9:crn_data_stream.obj
 0001:00150260       ??0data_stream@crnlib@@QAE@XZ 00551260 f   crnlib_VC9:crn_data_stream.obj
 0001:00150280       ??0data_stream@crnlib@@QAE@PB_WI@Z 00551280 f   crnlib_VC9:crn_data_stream.obj
 0001:001502b0       ?printf@data_stream@crnlib@@QAA_NPB_WZZ 005512b0 f   crnlib_VC9:crn_data_stream.obj
 0001:00150360       ?read_array@data_stream@crnlib@@QAE_NAAV?$vector@E@2@@Z 00551360 f   crnlib_VC9:crn_data_stream.obj
 0001:00150450       ??$minimum@_K@math@crnlib@@YA_K_K0@Z 00551450 f i crnlib_VC9:crn_data_stream.obj
 0001:00150480       ?get_len@dynamic_string@crnlib@@QBEIXZ 00551480 f i crnlib_VC9:crn_data_stream.obj
 0001:00150490       ?is_empty@dynamic_string@crnlib@@QBE_NXZ 00551490 f i crnlib_VC9:crn_data_stream.obj
 0001:001504a0       ?get_ptr@dynamic_string@crnlib@@QBEPBDXZ 005514a0 f i crnlib_VC9:crn_data_stream.obj
 0001:001504b0       ??0dynamic_wstring@crnlib@@QAE@XZ 005514b0 f i crnlib_VC9:crn_data_stream.obj
 0001:001504d0       ?get_len@dynamic_wstring@crnlib@@QBEIXZ 005514d0 f i crnlib_VC9:crn_data_stream.obj
 0001:001504e0       ?is_empty@dynamic_wstring@crnlib@@QBE_NXZ 005514e0 f i crnlib_VC9:crn_data_stream.obj
 0001:001504f0       ?get_ptr@dynamic_wstring@crnlib@@QBEPB_WXZ 005514f0 f i crnlib_VC9:crn_data_stream.obj
 0001:00150500       ?find_left@dynamic_wstring@crnlib@@QBEHPB_W_N@Z 00551500 f   crnlib_VC9:crn_dynamic_wstring.obj
 0001:00150580       ?contains@dynamic_wstring@crnlib@@QBE_NPB_W_N@Z 00551580 f   crnlib_VC9:crn_dynamic_wstring.obj
 0001:001505a0       ?count_char@dynamic_wstring@crnlib@@QBEI_W@Z 005515a0 f   crnlib_VC9:crn_dynamic_wstring.obj
 0001:001505d0       ?find_left@dynamic_wstring@crnlib@@QBEH_W@Z 005515d0 f   crnlib_VC9:crn_dynamic_wstring.obj
 0001:00150600       ?find_right@dynamic_wstring@crnlib@@QBEH_W@Z 00551600 f   crnlib_VC9:crn_dynamic_wstring.obj
 0001:00150630       ?find_right@dynamic_wstring@crnlib@@QBEHPB_W_N@Z 00551630 f   crnlib_VC9:crn_dynamic_wstring.obj
 0001:001506a0       ?remap@dynamic_wstring@crnlib@@QAEAAV12@HH@Z 005516a0 f   crnlib_VC9:crn_dynamic_wstring.obj
 0001:001506e0       ?compare@dynamic_wstring@crnlib@@QBEHPB_W_N@Z 005516e0 f   crnlib_VC9:crn_dynamic_wstring.obj
 0001:00150720       ?compare@dynamic_wstring@crnlib@@QBEHABV12@_N@Z 00551720 f   crnlib_VC9:crn_dynamic_wstring.obj
 0001:00150770       ?truncate@dynamic_wstring@crnlib@@QAEAAV12@I@Z 00551770 f   crnlib_VC9:crn_dynamic_wstring.obj
 0001:00150790       ?tolower@dynamic_wstring@crnlib@@QAEAAV12@XZ 00551790 f   crnlib_VC9:crn_dynamic_wstring.obj
 0001:001507c0       ?toupper@dynamic_wstring@crnlib@@QAEAAV12@XZ 005517c0 f   crnlib_VC9:crn_dynamic_wstring.obj
 0001:001507f0       ?swap@dynamic_wstring@crnlib@@QAEXAAV12@@Z 005517f0 f   crnlib_VC9:crn_dynamic_wstring.obj
 0001:00150830       ?as_ansi@dynamic_wstring@crnlib@@QAEAAVdynamic_string@2@AAV32@@Z 00551830 f   crnlib_VC9:crn_dynamic_wstring.obj
 0001:001508d0       ?clear@dynamic_wstring@crnlib@@QAEXXZ 005518d0 f   crnlib_VC9:crn_dynamic_wstring.obj
 0001:00150910       ?empty@dynamic_wstring@crnlib@@QAEXXZ 00551910 f   crnlib_VC9:crn_dynamic_wstring.obj
 0001:00150930       ?crop@dynamic_wstring@crnlib@@QAEAAV12@II@Z 00551930 f   crnlib_VC9:crn_dynamic_wstring.obj
 0001:001509c0       ?substring@dynamic_wstring@crnlib@@QAEAAV12@II@Z 005519c0 f   crnlib_VC9:crn_dynamic_wstring.obj
 0001:001509e0       ?left@dynamic_wstring@crnlib@@QAEAAV12@I@Z 005519e0 f   crnlib_VC9:crn_dynamic_wstring.obj
 0001:00150a50       ?mid@dynamic_wstring@crnlib@@QAEAAV12@II@Z 00551a50 f   crnlib_VC9:crn_dynamic_wstring.obj
 0001:00150a60       ?right@dynamic_wstring@crnlib@@QAEAAV12@I@Z 00551a60 f   crnlib_VC9:crn_dynamic_wstring.obj
 0001:00150a80       ?tail@dynamic_wstring@crnlib@@QAEAAV12@I@Z 00551a80 f   crnlib_VC9:crn_dynamic_wstring.obj
 0001:00150ab0       ?unquote@dynamic_wstring@crnlib@@QAEAAV12@XZ 00551ab0 f   crnlib_VC9:crn_dynamic_wstring.obj
 0001:00150af0       ?trim@dynamic_wstring@crnlib@@QAEAAV12@XZ 00551af0 f   crnlib_VC9:crn_dynamic_wstring.obj
 0001:00150b50       ?trim_crlf@dynamic_wstring@crnlib@@QAEAAV12@XZ 00551b50 f   crnlib_VC9:crn_dynamic_wstring.obj
 0001:00150b90       ?optimize@dynamic_wstring@crnlib@@QAEXXZ 00551b90 f   crnlib_VC9:crn_dynamic_wstring.obj
 0001:00150c50       ?expand_buf@dynamic_wstring@crnlib@@AAE_NI_N@Z 00551c50 f   crnlib_VC9:crn_dynamic_wstring.obj
 0001:00150d00       ?serialize@dynamic_wstring@crnlib@@QBEHPAXI_N@Z 00551d00 f   crnlib_VC9:crn_dynamic_wstring.obj
 0001:00150da0       ?ensure_buf@dynamic_wstring@crnlib@@AAE_NI_N@Z 00551da0 f   crnlib_VC9:crn_dynamic_wstring.obj
 0001:00150de0       ?set@dynamic_wstring@crnlib@@QAEAAV12@PBD@Z 00551de0 f   crnlib_VC9:crn_dynamic_wstring.obj
 0001:00150ed0       ??4dynamic_wstring@crnlib@@QAEAAV01@ABVdynamic_string@1@@Z 00551ed0 f   crnlib_VC9:crn_dynamic_wstring.obj
 0001:00150ef0       ?set@dynamic_wstring@crnlib@@QAEAAV12@PB_WI@Z 00551ef0 f   crnlib_VC9:crn_dynamic_wstring.obj
 0001:00150ff0       ?set@dynamic_wstring@crnlib@@QAEAAV12@ABV12@I@Z 00551ff0 f   crnlib_VC9:crn_dynamic_wstring.obj
 0001:001510d0       ?set_len@dynamic_wstring@crnlib@@QAE_NI_W@Z 005520d0 f   crnlib_VC9:crn_dynamic_wstring.obj
 0001:00151150       ?set_from_buf@dynamic_wstring@crnlib@@QAEAAV12@PBXI_N@Z 00552150 f   crnlib_VC9:crn_dynamic_wstring.obj
 0001:00151240       ?append_char@dynamic_wstring@crnlib@@QAEAAV12@_W@Z 00552240 f   crnlib_VC9:crn_dynamic_wstring.obj
 0001:001512a0       ?append@dynamic_wstring@crnlib@@QAEAAV12@PB_W@Z 005522a0 f   crnlib_VC9:crn_dynamic_wstring.obj
 0001:00151320       ?append@dynamic_wstring@crnlib@@QAEAAV12@ABV12@@Z 00552320 f   crnlib_VC9:crn_dynamic_wstring.obj
 0001:00151390       ?format_args@dynamic_wstring@crnlib@@QAEAAV12@PB_WPAD@Z 00552390 f   crnlib_VC9:crn_dynamic_wstring.obj
 0001:00151460       ?format@dynamic_wstring@crnlib@@QAAAAV12@PB_WZZ 00552460 f   crnlib_VC9:crn_dynamic_wstring.obj
 0001:00151480       ?deserialize@dynamic_wstring@crnlib@@QAEHPBXI_N@Z 00552480 f   crnlib_VC9:crn_dynamic_wstring.obj
 0001:001514f0       ??0dynamic_wstring@crnlib@@QAE@PBD@Z 005524f0 f   crnlib_VC9:crn_dynamic_wstring.obj
 0001:00151520       ??0dynamic_wstring@crnlib@@QAE@ABVdynamic_string@1@@Z 00552520 f   crnlib_VC9:crn_dynamic_wstring.obj
 0001:00151550       ??0dynamic_wstring@crnlib@@QAA@W4eVarArg@1@PB_WZZ 00552550 f   crnlib_VC9:crn_dynamic_wstring.obj
 0001:00151580       ??0dynamic_wstring@crnlib@@QAE@PB_W@Z 00552580 f   crnlib_VC9:crn_dynamic_wstring.obj
 0001:001515b0       ??0dynamic_wstring@crnlib@@QAE@PB_WI@Z 005525b0 f   crnlib_VC9:crn_dynamic_wstring.obj
 0001:001515e0       ??0dynamic_wstring@crnlib@@QAE@ABV01@@Z 005525e0 f   crnlib_VC9:crn_dynamic_wstring.obj
 0001:00151610       ?set_char@dynamic_wstring@crnlib@@QAEAAV12@I_W@Z 00552610 f   crnlib_VC9:crn_dynamic_wstring.obj
 0001:00151670       ??Hcrnlib@@YA?AVdynamic_wstring@0@PB_WABV10@@Z 00552670 f   crnlib_VC9:crn_dynamic_wstring.obj
 0001:00151730       ??Hcrnlib@@YA?AVdynamic_wstring@0@ABV10@PB_W@Z 00552730 f   crnlib_VC9:crn_dynamic_wstring.obj
 0001:001517f0       ??Hcrnlib@@YA?AVdynamic_wstring@0@ABV10@0@Z 005527f0 f   crnlib_VC9:crn_dynamic_wstring.obj
 0001:001518b0       ??$maximum@H@math@crnlib@@YAHHH@Z 005528b0 f i crnlib_VC9:crn_dynamic_wstring.obj
 0001:001518c0       ??$swap@G@utils@crnlib@@YAXAAG0@Z 005528c0 f i crnlib_VC9:crn_dynamic_wstring.obj
 0001:001518e0       ??$swap@PA_W@utils@crnlib@@YAXAAPA_W0@Z 005528e0 f i crnlib_VC9:crn_dynamic_wstring.obj
 0001:00151900       ??$zero_object@G@utils@crnlib@@YAXAAG@Z 00552900 f i crnlib_VC9:crn_dynamic_wstring.obj
 0001:00151910       ??$read_obj@G@utils@crnlib@@YAXAAGPBX_N@Z 00552910 f i crnlib_VC9:crn_dynamic_wstring.obj
 0001:00151940       ?get_ptr_raw@dynamic_string@crnlib@@QAEPADXZ 00552940 f i crnlib_VC9:crn_dynamic_wstring.obj
 0001:00151950       ?check@dynamic_string@crnlib@@ABEXXZ 00552950 f i crnlib_VC9:crn_dynamic_wstring.obj
 0001:00151960       ??Adynamic_wstring@crnlib@@QBE_WI@Z 00552960 f i crnlib_VC9:crn_dynamic_wstring.obj
 0001:00151990       ?check@dynamic_wstring@crnlib@@ABEXXZ 00552990 f i crnlib_VC9:crn_dynamic_wstring.obj
 0001:001519a0       ?get_ptr_priv@dynamic_wstring@crnlib@@ABEPB_WXZ 005529a0 f i crnlib_VC9:crn_dynamic_wstring.obj
 0001:001519b0       ?get_ptr_priv@dynamic_wstring@crnlib@@AAEPA_WXZ 005529b0 f i crnlib_VC9:crn_dynamic_wstring.obj
 0001:001519c0       ??$write_obj@G@utils@crnlib@@YAXABGPAX_N@Z 005529c0 f i crnlib_VC9:crn_dynamic_wstring.obj
 0001:001519f0       ??$read_obj@G@utils@crnlib@@YA_NAAGAAPBXAAI_N@Z 005529f0 f i crnlib_VC9:crn_dynamic_wstring.obj
 0001:00151a50       ??$construct_array@_W@helpers@crnlib@@YAXPA_WI@Z 00552a50 f i crnlib_VC9:crn_dynamic_wstring.obj
 0001:00151a60       ??$write_obj@G@utils@crnlib@@YA_NABGAAPAXAAI_N@Z 00552a60 f i crnlib_VC9:crn_dynamic_wstring.obj
 0001:00151ab0       ??$crnlib_new_array@_W@crnlib@@YAPA_WI@Z 00552ab0 f i crnlib_VC9:crn_dynamic_wstring.obj
 0001:00151b00       ?write_val@utils@crnlib@@YA_NGAAPAXAAI_N@Z 00552b00 f i crnlib_VC9:crn_dynamic_wstring.obj
 0001:00151b40       ?has_alpha@pixel_format_helpers@crnlib@@YA_NW4pixel_format@2@@Z 00552b40 f i crnlib_VC9:crn_dds_texture.obj
 0001:00151ba0       ?is_alpha_only@pixel_format_helpers@crnlib@@YA_NW4pixel_format@2@@Z 00552ba0 f i crnlib_VC9:crn_dds_texture.obj
 0001:00151bc0       ?is_normal_map@pixel_format_helpers@crnlib@@YA_NW4pixel_format@2@@Z 00552bc0 f i crnlib_VC9:crn_dds_texture.obj
 0001:00151bf0       ?is_dxt@pixel_format_helpers@crnlib@@YAHW4pixel_format@2@@Z 00552bf0 f i crnlib_VC9:crn_dds_texture.obj
 0001:00151c60       ?from_dxt_format@pixel_format_helpers@crnlib@@YA?AW4pixel_format@2@W4dxt_format@2@@Z 00552c60 f i crnlib_VC9:crn_dds_texture.obj
 0001:00151cc0       ?is_pixel_format_non_srgb@pixel_format_helpers@crnlib@@YA_NW4pixel_format@2@@Z 00552cc0 f i crnlib_VC9:crn_dds_texture.obj
 0001:00151d00       ?get_bpp@pixel_format_helpers@crnlib@@YAIW4pixel_format@2@@Z 00552d00 f i crnlib_VC9:crn_dds_texture.obj
 0001:00151db0       ?get_width@dxt_image@crnlib@@QBEIXZ 00552db0 f i crnlib_VC9:crn_dds_texture.obj
 0001:00151dc0       ?get_height@dxt_image@crnlib@@QBEIXZ 00552dc0 f i crnlib_VC9:crn_dds_texture.obj
 0001:00151dd0       ?get_elements_per_block@dxt_image@crnlib@@QBEIXZ 00552dd0 f i crnlib_VC9:crn_dds_texture.obj
 0001:00151de0       ?get_format@dxt_image@crnlib@@QBE?AW4dxt_format@2@XZ 00552de0 f i crnlib_VC9:crn_dds_texture.obj
 0001:00151df0       ?get_element_vec@dxt_image@crnlib@@QAEAAV?$vector@Uelement@dxt_image@crnlib@@@2@XZ 00552df0 f i crnlib_VC9:crn_dds_texture.obj
 0001:00151e00       ?get_element_ptr@dxt_image@crnlib@@QBEPBUelement@12@XZ 00552e00 f i crnlib_VC9:crn_dds_texture.obj
 0001:00151e10       ?get_element_ptr@dxt_image@crnlib@@QAEPAUelement@12@XZ 00552e10 f i crnlib_VC9:crn_dds_texture.obj
 0001:00151e20       ?is_opened@data_stream@crnlib@@QBE_NXZ 00552e20 f i crnlib_VC9:crn_dds_texture.obj
 0001:00151e30       ?set_name@data_stream@crnlib@@QAEXPB_W@Z 00552e30 f i crnlib_VC9:crn_dds_texture.obj
 0001:00151e50       ?set_error@data_stream@crnlib@@IAEXXZ 00552e50 f i crnlib_VC9:crn_dds_texture.obj
 0001:00151e60       ?clear_error@data_stream@crnlib@@IAEXXZ 00552e60 f i crnlib_VC9:crn_dds_texture.obj
 0001:00151e70       ?write@data_stream_serializer@crnlib@@QAE_NPBXI@Z 00552e70 f i crnlib_VC9:crn_dds_texture.obj
 0001:00151ea0       ?read@data_stream_serializer@crnlib@@QAE_NPAXI@Z 00552ea0 f i crnlib_VC9:crn_dds_texture.obj
 0001:00151ed0       ?skip@data_stream_serializer@crnlib@@QAE_NI@Z 00552ed0 f i crnlib_VC9:crn_dds_texture.obj
 0001:00151f00       ?init@qdxt1_params@crnlib@@QAEXABUpack_params@dxt_image@2@H_N@Z 00552f00 f i crnlib_VC9:crn_dds_texture.obj
 0001:00151f30       ?init@qdxt5_params@crnlib@@QAEXABUpack_params@dxt_image@2@H_NH@Z 00552f30 f i crnlib_VC9:crn_dds_texture.obj
 0001:00151f60       ??0resample_params@image_utils@crnlib@@QAE@XZ 00552f60 f i crnlib_VC9:crn_dds_texture.obj
 0001:00151fa0       ?get_width@mip_level@crnlib@@QBEIXZ 00552fa0 f i crnlib_VC9:crn_dds_texture.obj
 0001:00151fb0       ?get_height@mip_level@crnlib@@QBEIXZ 00552fb0 f i crnlib_VC9:crn_dds_texture.obj
 0001:00151fc0       ?get_total_pixels@mip_level@crnlib@@QBEIXZ 00552fc0 f i crnlib_VC9:crn_dds_texture.obj
 0001:00151fd0       ?get_dxt_image@mip_level@crnlib@@QBEPAVdxt_image@2@XZ 00552fd0 f i crnlib_VC9:crn_dds_texture.obj
 0001:00151fe0       ?is_packed@mip_level@crnlib@@QBE_NXZ 00552fe0 f i crnlib_VC9:crn_dds_texture.obj
 0001:00151ff0       ?is_valid@mip_level@crnlib@@QBE_NXZ 00552ff0 f i crnlib_VC9:crn_dds_texture.obj
 0001:00152010       ?get_comp_flags@mip_level@crnlib@@QBE?AW4component_flags@pixel_format_helpers@2@XZ 00553010 f i crnlib_VC9:crn_dds_texture.obj
 0001:00152020       ?set_comp_flags@mip_level@crnlib@@QAEXW4component_flags@pixel_format_helpers@2@@Z 00553020 f i crnlib_VC9:crn_dds_texture.obj
 0001:00152030       ?get_format@mip_level@crnlib@@QBE?AW4pixel_format@2@XZ 00553030 f i crnlib_VC9:crn_dds_texture.obj
 0001:00152040       ?set_format@mip_level@crnlib@@QAEXW4pixel_format@2@@Z 00553040 f i crnlib_VC9:crn_dds_texture.obj
 0001:00152050       ?get_name@dds_texture@crnlib@@QBEABVdynamic_wstring@2@XZ 00553050 f i crnlib_VC9:crn_dds_texture.obj
 0001:00152060       ?get_last_error@dds_texture@crnlib@@QBEABVdynamic_wstring@2@XZ 00553060 f i crnlib_VC9:crn_dds_texture.obj
 0001:00152070       ?clear_last_error@dds_texture@crnlib@@QAEXXZ 00553070 f i crnlib_VC9:crn_dds_texture.obj
 0001:00152080       ?clear_last_error@dds_texture@crnlib@@ABEXXZ 00553080 f i crnlib_VC9:crn_dds_texture.obj
 0001:00152090       ?close@cfile_stream@crnlib@@UAE_NXZ 00553090 f i crnlib_VC9:crn_dds_texture.obj
 0001:001520e0       ?open@cfile_stream@crnlib@@QAE_NPAU_iobuf@@PB_WI_N@Z 005530e0 f i crnlib_VC9:crn_dds_texture.obj
 0001:00152160       ??0crn_texture_info@crnd@@QAE@XZ 00553160 f i crnlib_VC9:crn_dds_texture.obj
 0001:00152170       ??0mip_level@crnlib@@QAE@XZ 00553170 f   crnlib_VC9:crn_dds_texture.obj
 0001:00152190       ?cook_image@mip_level@crnlib@@ABEXAAV?$image@V?$color_quad@EH@crnlib@@@2@@Z 00553190 f   crnlib_VC9:crn_dds_texture.obj
 0001:001521c0       ?uncook_image@mip_level@crnlib@@ABEXAAV?$image@V?$color_quad@EH@crnlib@@@2@@Z 005531c0 f   crnlib_VC9:crn_dds_texture.obj
 0001:001521f0       ?print_crn_comp_params@dds_texture@crnlib@@AAEXABUcrn_comp_params@@@Z 005531f0 f   crnlib_VC9:crn_dds_texture.obj
 0001:001523c0       ?get_unpacked_image@mip_level@crnlib@@QBEPAV?$image@V?$color_quad@EH@crnlib@@@2@AAV32@_N@Z 005533c0 f   crnlib_VC9:crn_dds_texture.obj
 0001:00152420       ?check@dds_texture@crnlib@@QBE_NXZ 00553420 f   crnlib_VC9:crn_dds_texture.obj
 0001:00152520       ?get_level_image@dds_texture@crnlib@@QBEPAV?$image@V?$color_quad@EH@crnlib@@@2@IIAAV32@_N@Z 00553520 f   crnlib_VC9:crn_dds_texture.obj
 0001:00152560       ?is_packed@dds_texture@crnlib@@QBE_NXZ 00553560 f   crnlib_VC9:crn_dds_texture.obj
 0001:00152580       ?has_alpha@dds_texture@crnlib@@QBE_NXZ 00553580 f   crnlib_VC9:crn_dds_texture.obj
 0001:001525f0       ?is_vertical_cross@dds_texture@crnlib@@QBE_NXZ 005535f0 f   crnlib_VC9:crn_dds_texture.obj
 0001:00152640       ?get_total_pixels_in_all_faces_and_mips@dds_texture@crnlib@@QBEIXZ 00553640 f   crnlib_VC9:crn_dds_texture.obj
 0001:001526e0       ?swap@dds_texture@crnlib@@QAEXAAV12@@Z 005536e0 f   crnlib_VC9:crn_dds_texture.obj
 0001:00152760       ?write_dds@dds_texture@crnlib@@QBE_NAAVdata_stream_serializer@2@@Z 00553760 f   crnlib_VC9:crn_dds_texture.obj
 0001:00152e00       ?is_normal_map@dds_texture@crnlib@@QBE_NXZ 00553e00 f   crnlib_VC9:crn_dds_texture.obj
 0001:00152f30       ?qdxt_pack@dds_texture@crnlib@@QAE_NAAUqdxt_state@12@AAV12@ABUqdxt1_params@2@ABUqdxt5_params@2@@Z 00553f30 f   crnlib_VC9:crn_dds_texture.obj
 0001:00153370       ?save_regular@dds_texture@crnlib@@AAE_NPB_W@Z 00554370 f   crnlib_VC9:crn_dds_texture.obj
 0001:001534a0       ?save_dds@dds_texture@crnlib@@AAE_NPB_W@Z 005544a0 f   crnlib_VC9:crn_dds_texture.obj
 0001:001535d0       ?save_comp_texture@dds_texture@crnlib@@AAE_NPB_WABUcrn_comp_params@@PAIPAM@Z 005545d0 f   crnlib_VC9:crn_dds_texture.obj
 0001:00153a70       ??0dds_texture@crnlib@@QAE@XZ 00554a70 f   crnlib_VC9:crn_dds_texture.obj
 0001:00153ab0       ?write_dds@dds_texture@crnlib@@QBE_NPB_W@Z 00554ab0 f   crnlib_VC9:crn_dds_texture.obj
 0001:00153b50       ?determine_texture_type@dds_texture@crnlib@@QBE?AW4texture_type@2@XZ 00554b50 f   crnlib_VC9:crn_dds_texture.obj
 0001:00153b90       ?write_to_file@dds_texture@crnlib@@QAE_NPB_WW4format@texture_file_types@2@PAUcrn_comp_params@@PAIPAM@Z 00554b90 f   crnlib_VC9:crn_dds_texture.obj
 0001:00153c20       ??1mip_level@crnlib@@QAE@XZ 00554c20 f   crnlib_VC9:crn_dds_texture.obj
 0001:00153c70       ?clear@mip_level@crnlib@@QAEXXZ 00554c70 f   crnlib_VC9:crn_dds_texture.obj
 0001:00153cd0       ?assign@mip_level@crnlib@@QAEXPAV?$image@V?$color_quad@EH@crnlib@@@2@W4pixel_format@2@@Z 00554cd0 f   crnlib_VC9:crn_dds_texture.obj
 0001:00153d50       ?assign@mip_level@crnlib@@QAEXPAVdxt_image@2@W4pixel_format@2@@Z 00554d50 f   crnlib_VC9:crn_dds_texture.obj
 0001:00153db0       ?pack_to_dxt@mip_level@crnlib@@QAE_NABV?$image@V?$color_quad@EH@crnlib@@@2@W4pixel_format@2@_NABUpack_params@dxt_image@2@@Z 00554db0 f   crnlib_VC9:crn_dds_texture.obj
 0001:00153f60       ?pack_to_dxt@mip_level@crnlib@@QAE_NW4pixel_format@2@_NABUpack_params@dxt_image@2@@Z 00554f60 f   crnlib_VC9:crn_dds_texture.obj
 0001:00154060       ?unpack_from_dxt@mip_level@crnlib@@QAE_N_N@Z 00555060 f   crnlib_VC9:crn_dds_texture.obj
 0001:001540d0       ?set_alpha_to_luma@mip_level@crnlib@@QAE_NXZ 005550d0 f   crnlib_VC9:crn_dds_texture.obj
 0001:00154120       ?convert@mip_level@crnlib@@QAE_NW4conversion_type@image_utils@2@@Z 00555120 f   crnlib_VC9:crn_dds_texture.obj
 0001:001541a0       ?convert@mip_level@crnlib@@QAE_NW4pixel_format@2@_NABUpack_params@dxt_image@2@@Z 005551a0 f   crnlib_VC9:crn_dds_texture.obj
 0001:00154480       ?unpack_from_dxt@dds_texture@crnlib@@QAE_N_N@Z 00555480 f   crnlib_VC9:crn_dds_texture.obj
 0001:00154670       ??4mip_level@crnlib@@QAEAAV01@ABV01@@Z 00555670 f   crnlib_VC9:crn_dds_texture.obj
 0001:001546c0       ?set_alpha_to_luma@dds_texture@crnlib@@QAE_NXZ 005556c0 f   crnlib_VC9:crn_dds_texture.obj
 0001:001548d0       ?convert@dds_texture@crnlib@@QAE_NW4conversion_type@image_utils@2@@Z 005558d0 f   crnlib_VC9:crn_dds_texture.obj
 0001:00154970       ??0mip_level@crnlib@@QAE@ABV01@@Z 00555970 f   crnlib_VC9:crn_dds_texture.obj
 0001:001549a0       ?free_all_mips@dds_texture@crnlib@@AAEXXZ 005559a0 f   crnlib_VC9:crn_dds_texture.obj
 0001:00154a60       ?assign@dds_texture@crnlib@@QAEXAAV?$vector@V?$vector@PAVmip_level@crnlib@@@crnlib@@@2@@Z 00555a60 f   crnlib_VC9:crn_dds_texture.obj
 0001:00154ac0       ?assign@dds_texture@crnlib@@QAEXPAVmip_level@2@@Z 00555ac0 f   crnlib_VC9:crn_dds_texture.obj
 0001:00154b70       ?assign@dds_texture@crnlib@@QAEXPAV?$image@V?$color_quad@EH@crnlib@@@2@W4pixel_format@2@@Z 00555b70 f   crnlib_VC9:crn_dds_texture.obj
 0001:00154bc0       ?assign@dds_texture@crnlib@@QAEXPAVdxt_image@2@W4pixel_format@2@@Z 00555bc0 f   crnlib_VC9:crn_dds_texture.obj
 0001:00154c10       ?discard_mips@dds_texture@crnlib@@QAEXXZ 00555c10 f   crnlib_VC9:crn_dds_texture.obj
 0001:00154d20       ?discard_mipmaps@dds_texture@crnlib@@QAEXXZ 00555d20 f   crnlib_VC9:crn_dds_texture.obj
 0001:00154d30       ?resize@dds_texture@crnlib@@QAE_NIIABUresample_params@12@@Z 00555d30 f   crnlib_VC9:crn_dds_texture.obj
 0001:001552c0       ?generate_mipmaps@dds_texture@crnlib@@QAE_NABUgenerate_mipmap_params@12@_N@Z 005562c0 f   crnlib_VC9:crn_dds_texture.obj
 0001:00155960       ?crop@dds_texture@crnlib@@QAE_NIIII@Z 00556960 f   crnlib_VC9:crn_dds_texture.obj
 0001:00155af0       ?load_regular@dds_texture@crnlib@@AAE_NPB_WW4format@texture_file_types@2@@Z 00556af0 f   crnlib_VC9:crn_dds_texture.obj
 0001:00155c40       ??1dds_texture@crnlib@@QAE@XZ 00556c40 f   crnlib_VC9:crn_dds_texture.obj
 0001:00155ce0       ?clear@dds_texture@crnlib@@QAEXXZ 00556ce0 f   crnlib_VC9:crn_dds_texture.obj
 0001:00155d20       ??4dds_texture@crnlib@@QAEAAV01@ABV01@@Z 00556d20 f   crnlib_VC9:crn_dds_texture.obj
 0001:00155e70       ?read_dds_internal@dds_texture@crnlib@@AAE_NAAVdata_stream_serializer@2@@Z 00556e70 f   crnlib_VC9:crn_dds_texture.obj
 0001:001568b0       ?set@dds_texture@crnlib@@QAEXW4format@texture_file_types@2@ABV12@@Z 005578b0 f   crnlib_VC9:crn_dds_texture.obj
 0001:00156900       ?init@dds_texture@crnlib@@QAEXIIIIW4pixel_format@2@PB_W@Z 00557900 f   crnlib_VC9:crn_dds_texture.obj
 0001:00156c40       ?convert@dds_texture@crnlib@@QAE_NW4pixel_format@2@_NABUpack_params@dxt_image@2@@Z 00557c40 f   crnlib_VC9:crn_dds_texture.obj
 0001:00156e40       ?convert@dds_texture@crnlib@@QAE_NW4pixel_format@2@ABUpack_params@dxt_image@2@@Z 00557e40 f   crnlib_VC9:crn_dds_texture.obj
 0001:00156e60       ?vertical_cross_to_cubemap@dds_texture@crnlib@@QAE_NXZ 00557e60 f   crnlib_VC9:crn_dds_texture.obj
 0001:00157130       ?qdxt_pack_init@dds_texture@crnlib@@QAE_NAAUqdxt_state@12@AAV12@ABUqdxt1_params@2@ABUqdxt5_params@2@W4pixel_format@2@_N@Z 00558130 f   crnlib_VC9:crn_dds_texture.obj
 0001:00157860       ?load_crn_from_memory@dds_texture@crnlib@@QAE_NPB_WPBXI@Z 00558860 f   crnlib_VC9:crn_dds_texture.obj
 0001:001581c0       ?load_crn@dds_texture@crnlib@@AAE_NPB_W@Z 005591c0 f   crnlib_VC9:crn_dds_texture.obj
 0001:00158340       ??0dds_texture@crnlib@@QAE@ABV01@@Z 00559340 f   crnlib_VC9:crn_dds_texture.obj
 0001:001583c0       ?read_dds@dds_texture@crnlib@@QAE_NAAVdata_stream_serializer@2@@Z 005593c0 f   crnlib_VC9:crn_dds_texture.obj
 0001:00158410       ?convert@dds_texture@crnlib@@QAE_NW4pixel_format@2@_NABUpack_params@dxt_image@2@H1@Z 00559410 f   crnlib_VC9:crn_dds_texture.obj
 0001:00158820       ?load_dds@dds_texture@crnlib@@AAE_NPB_W@Z 00559820 f   crnlib_VC9:crn_dds_texture.obj
 0001:00158990       ?read_dds@dds_texture@crnlib@@QAE_NPB_W@Z 00559990 f   crnlib_VC9:crn_dds_texture.obj
 0001:00158a30       ?load_from_file@dds_texture@crnlib@@QAE_NPB_WW4format@texture_file_types@2@@Z 00559a30 f   crnlib_VC9:crn_dds_texture.obj
 0001:00158af0       ?get_luma@?$color_quad@EH@crnlib@@QBEHXZ 00559af0 f i crnlib_VC9:crn_dds_texture.obj
 0001:00158b20       ?get_ptr@?$vector@E@crnlib@@QAEPAEXZ 00559b20 f i crnlib_VC9:crn_dds_texture.obj
 0001:00158b30       ?size@?$vector@Uelement@dxt_image@crnlib@@@crnlib@@QBEIXZ 00559b30 f i crnlib_VC9:crn_dds_texture.obj
 0001:00158b40       ??0?$vector@Udxt_pixel_block@crnlib@@@crnlib@@QAE@XZ 00559b40 f i crnlib_VC9:crn_dds_texture.obj
 0001:00158b50       ?size@?$vector@Udxt_pixel_block@crnlib@@@crnlib@@QBEIXZ 00559b50 f i crnlib_VC9:crn_dds_texture.obj
 0001:00158b60       ??A?$vector@Udxt_pixel_block@crnlib@@@crnlib@@QAEAAUdxt_pixel_block@1@I@Z 00559b60 f i crnlib_VC9:crn_dds_texture.obj
 0001:00158b70       ??0?$vector@V?$vector@PAVmip_level@crnlib@@@crnlib@@@crnlib@@QAE@XZ 00559b70 f i crnlib_VC9:crn_dds_texture.obj
 0001:00158b80       ??A?$vector@PAVmip_level@crnlib@@@crnlib@@QBEABQAVmip_level@1@I@Z 00559b80 f i crnlib_VC9:crn_dds_texture.obj
 0001:00158b90       ?get_comp_flags@?$image@V?$color_quad@EH@crnlib@@@crnlib@@QBE?AW4component_flags@pixel_format_helpers@2@XZ 00559b90 f i crnlib_VC9:crn_dds_texture.obj
 0001:00158ba0       ?set_comp_flags@?$image@V?$color_quad@EH@crnlib@@@crnlib@@QAEXW4component_flags@pixel_format_helpers@2@@Z 00559ba0 f i crnlib_VC9:crn_dds_texture.obj
 0001:00158bb0       ?get_scanline@?$image@V?$color_quad@EH@crnlib@@@crnlib@@QBEPBV?$color_quad@EH@2@I@Z 00559bb0 f i crnlib_VC9:crn_dds_texture.obj
 0001:00158bd0       ?get_scanline@?$image@V?$color_quad@EH@crnlib@@@crnlib@@QAEPAV?$color_quad@EH@2@I@Z 00559bd0 f i crnlib_VC9:crn_dds_texture.obj
 0001:00158bf0       ??0?$vector@Udxt1_block@crnlib@@@crnlib@@QAE@XZ 00559bf0 f i crnlib_VC9:crn_dds_texture.obj
 0001:00158c00       ??A?$vector@Udxt1_block@crnlib@@@crnlib@@QAEAAUdxt1_block@1@I@Z 00559c00 f i crnlib_VC9:crn_dds_texture.obj
 0001:00158c10       ??0?$vector@Udxt5_block@crnlib@@@crnlib@@QAE@XZ 00559c10 f i crnlib_VC9:crn_dds_texture.obj
 0001:00158c20       ??A?$vector@Udxt5_block@crnlib@@@crnlib@@QAEAAUdxt5_block@1@I@Z 00559c20 f i crnlib_VC9:crn_dds_texture.obj
 0001:00158c30       ?empty@?$vector@V?$color_quad@EH@crnlib@@@crnlib@@QBE_NXZ 00559c30 f i crnlib_VC9:crn_dds_texture.obj
 0001:00158c40       ?size@?$vector@V?$color_quad@EH@crnlib@@@crnlib@@QBEIXZ 00559c40 f i crnlib_VC9:crn_dds_texture.obj
 0001:00158c50       ?construct_array@?$scalar_type@PAVmip_level@crnlib@@@crnlib@@SAXPAPAVmip_level@2@I@Z 00559c50 f i crnlib_VC9:crn_dds_texture.obj
 0001:00158c70       ?object_mover@?$vector@Udxt1_block@crnlib@@@crnlib@@CAXPAX0I@Z 00559c70 f i crnlib_VC9:crn_dds_texture.obj
 0001:00158cb0       ?object_mover@?$vector@Udxt5_block@crnlib@@@crnlib@@CAXPAX0I@Z 00559cb0 f i crnlib_VC9:crn_dds_texture.obj
 0001:00158cf0       ??$zero_object@$$BY0IA@Umip_desc@qdxt1_params@crnlib@@@utils@crnlib@@YAXAAY0IA@Umip_desc@qdxt1_params@1@@Z 00559cf0 f i crnlib_VC9:crn_dds_texture.obj
 0001:00158d10       ??$zero_object@$$BY0IA@Umip_desc@qdxt5_params@crnlib@@@utils@crnlib@@YAXAAY0IA@Umip_desc@qdxt5_params@1@@Z 00559d10 f i crnlib_VC9:crn_dds_texture.obj
 0001:00158d30       ??$zero_object@$$BY02_N@utils@crnlib@@YAXAAY02_N@Z 00559d30 f i crnlib_VC9:crn_dds_texture.obj
 0001:00158d40       ??$maximum@_K@math@crnlib@@YA_K_K0@Z 00559d40 f i crnlib_VC9:crn_dds_texture.obj
 0001:00158d70       ??$crnlib_new@Vdxt_image@crnlib@@V12@@crnlib@@YAPAVdxt_image@0@AAV10@@Z 00559d70 f i crnlib_VC9:crn_dds_texture.obj
 0001:00158de0       ??$zero_object@UDDSURFACEDESC2@crnlib@@@utils@crnlib@@YAXAAUDDSURFACEDESC2@1@@Z 00559de0 f i crnlib_VC9:crn_dds_texture.obj
 0001:00158e00       ??$swap@W4component_flags@pixel_format_helpers@crnlib@@@utils@crnlib@@YAXAAW4component_flags@pixel_format_helpers@1@0@Z 00559e00 f i crnlib_VC9:crn_dds_texture.obj
 0001:00158e20       ??$swap@W4pixel_format@crnlib@@@utils@crnlib@@YAXAAW4pixel_format@1@0@Z 00559e20 f i crnlib_VC9:crn_dds_texture.obj
 0001:00158e40       ??$swap@W4format@texture_file_types@crnlib@@@utils@crnlib@@YAXAAW4format@texture_file_types@1@0@Z 00559e40 f i crnlib_VC9:crn_dds_texture.obj
 0001:00158e60       ??$clamp@I@math@crnlib@@YAIIII@Z 00559e60 f i crnlib_VC9:crn_dds_texture.obj
 0001:00158e80       ??$swap@PAV?$vector@PAVmip_level@crnlib@@@crnlib@@@utils@crnlib@@YAXAAPAV?$vector@PAVmip_level@crnlib@@@1@0@Z 00559e80 f i crnlib_VC9:crn_dds_texture.obj
 0001:00158ea0       ??$construct_array@PAVmip_level@crnlib@@PAV12@@helpers@crnlib@@YAXPAPAVmip_level@1@IABQAV21@@Z 00559ea0 f i crnlib_VC9:crn_dds_texture.obj
 0001:00158ed0       ??$construct@V?$color_quad@EH@crnlib@@V12@@helpers@crnlib@@YAPAV?$color_quad@EH@1@PAV21@ABV21@@Z 00559ed0 f i crnlib_VC9:crn_dds_texture.obj
 0001:00158f00       ??$destruct_array@Udxt_pixel_block@crnlib@@@helpers@crnlib@@YAXPAUdxt_pixel_block@1@I@Z 00559f00 f i crnlib_VC9:crn_dds_texture.obj
 0001:00158f10       ??$construct_array@Udxt1_block@crnlib@@@helpers@crnlib@@YAXPAUdxt1_block@1@I@Z 00559f10 f i crnlib_VC9:crn_dds_texture.obj
 0001:00158f20       ??$destruct_array@Udxt1_block@crnlib@@@helpers@crnlib@@YAXPAUdxt1_block@1@I@Z 00559f20 f i crnlib_VC9:crn_dds_texture.obj
 0001:00158f30       ??$construct_array@Udxt5_block@crnlib@@@helpers@crnlib@@YAXPAUdxt5_block@1@I@Z 00559f30 f i crnlib_VC9:crn_dds_texture.obj
 0001:00158f40       ??$destruct_array@Udxt5_block@crnlib@@@helpers@crnlib@@YAXPAUdxt5_block@1@I@Z 00559f40 f i crnlib_VC9:crn_dds_texture.obj
 0001:00158f50       ??0dxt_pixel_block@crnlib@@QAE@XZ 00559f50 f i crnlib_VC9:crn_dds_texture.obj
 0001:00158f60       ?set_all@?$image@V?$color_quad@EH@crnlib@@@crnlib@@QAEXABV?$color_quad@EH@2@@Z 00559f60 f i crnlib_VC9:crn_dds_texture.obj
 0001:00158fa0       ??$construct@Vdxt_image@crnlib@@@helpers@crnlib@@YAPAVdxt_image@1@PAV21@@Z 00559fa0 f i crnlib_VC9:crn_dds_texture.obj
 0001:00158fe0       ?bitmask_size@math@crnlib@@YAII@Z 00559fe0 f i crnlib_VC9:crn_dds_texture.obj
 0001:00159000       ?bitmask_ofs@math@crnlib@@YAII@Z 0055a000 f i crnlib_VC9:crn_dds_texture.obj
 0001:00159020       ?is_flag_set@utils@crnlib@@YA_NII@Z 0055a020 f i crnlib_VC9:crn_dds_texture.obj
 0001:00159040       ??4dynamic_wstring@crnlib@@QAEAAV01@ABV01@@Z 0055a040 f i crnlib_VC9:crn_dds_texture.obj
 0001:00159050       ??4dynamic_wstring@crnlib@@QAEAAV01@PB_W@Z 0055a050 f i crnlib_VC9:crn_dds_texture.obj
 0001:00159060       ?get_num_elements@dxt_image@crnlib@@QBEIXZ 0055a060 f i crnlib_VC9:crn_dds_texture.obj
 0001:00159070       ?clear@qdxt1_params@crnlib@@QAEXXZ 0055a070 f i crnlib_VC9:crn_dds_texture.obj
 0001:001590d0       ?clear@qdxt5_params@crnlib@@QAEXXZ 0055a0d0 f i crnlib_VC9:crn_dds_texture.obj
 0001:00159130       ?is_valid@dds_texture@crnlib@@QBE_NXZ 0055a130 f i crnlib_VC9:crn_dds_texture.obj
 0001:00159140       ?set_name@dds_texture@crnlib@@QAEXABVdynamic_wstring@2@@Z 0055a140 f i crnlib_VC9:crn_dds_texture.obj
 0001:00159150       ?get_level@dds_texture@crnlib@@QBEPBVmip_level@2@II@Z 0055a150 f i crnlib_VC9:crn_dds_texture.obj
 0001:00159170       ?set_last_error@dds_texture@crnlib@@ABEXPB_W@Z 0055a170 f i crnlib_VC9:crn_dds_texture.obj
 0001:00159190       ?open@cfile_stream@crnlib@@QAE_NPB_WI_N@Z 0055a190 f i crnlib_VC9:crn_dds_texture.obj
 0001:00159250       ?write@cfile_stream@crnlib@@UAEIPBXI@Z 0055a250 f i crnlib_VC9:crn_dds_texture.obj
 0001:001592c0       ?set_component@?$color_quad@EH@crnlib@@QAEAAV12@IH@Z 0055a2c0 f i crnlib_VC9:crn_dds_texture.obj
 0001:001592f0       ?swap@?$vector@V?$vector@PAVmip_level@crnlib@@@crnlib@@@crnlib@@QAEXAAV12@@Z 0055a2f0 f i crnlib_VC9:crn_dds_texture.obj
 0001:00159320       ??0?$vec@$01H@crnlib@@QAE@HH@Z 0055a320 f i crnlib_VC9:crn_dds_texture.obj
 0001:00159340       ?is_component_valid@?$image@V?$color_quad@EH@crnlib@@@crnlib@@QBE_NI@Z 0055a340 f i crnlib_VC9:crn_dds_texture.obj
 0001:00159360       ?has_alpha@?$image@V?$color_quad@EH@crnlib@@@crnlib@@QBE_NXZ 0055a360 f i crnlib_VC9:crn_dds_texture.obj
 0001:00159370       ?is_grayscale@?$image@V?$color_quad@EH@crnlib@@@crnlib@@QBE_NXZ 0055a370 f i crnlib_VC9:crn_dds_texture.obj
 0001:00159380       ?get_clamped@?$image@V?$color_quad@EH@crnlib@@@crnlib@@QBEABV?$color_quad@EH@2@HH@Z 0055a380 f i crnlib_VC9:crn_dds_texture.obj
 0001:001593d0       ?increase_capacity@?$vector@Udxt1_block@crnlib@@@crnlib@@AAE_NI_N0@Z 0055a3d0 f i crnlib_VC9:crn_dds_texture.obj
 0001:001593f0       ?increase_capacity@?$vector@Udxt5_block@crnlib@@@crnlib@@AAE_NI_N0@Z 0055a3f0 f i crnlib_VC9:crn_dds_texture.obj
 0001:00159410       ?destruct_array@?$scalar_type@Udxt_pixel_block@crnlib@@@crnlib@@SAXPAUdxt_pixel_block@2@I@Z 0055a410 f i crnlib_VC9:crn_dds_texture.obj
 0001:00159420       ?construct_array@?$scalar_type@Udxt1_block@crnlib@@@crnlib@@SAXPAUdxt1_block@2@I@Z 0055a420 f i crnlib_VC9:crn_dds_texture.obj
 0001:00159430       ?destruct_array@?$scalar_type@Udxt1_block@crnlib@@@crnlib@@SAXPAUdxt1_block@2@I@Z 0055a430 f i crnlib_VC9:crn_dds_texture.obj
 0001:00159440       ?construct_array@?$scalar_type@Udxt5_block@crnlib@@@crnlib@@SAXPAUdxt5_block@2@I@Z 0055a440 f i crnlib_VC9:crn_dds_texture.obj
 0001:00159450       ?destruct_array@?$scalar_type@Udxt5_block@crnlib@@@crnlib@@SAXPAUdxt5_block@2@I@Z 0055a450 f i crnlib_VC9:crn_dds_texture.obj
 0001:00159460       ??0dxt_pixel_block@crnlib@@QAE@ABU01@@Z 0055a460 f i crnlib_VC9:crn_dds_texture.obj
 0001:00159480       ??$crnlib_new@Vdxt_image@crnlib@@@crnlib@@YAPAVdxt_image@0@XZ 0055a480 f i crnlib_VC9:crn_dds_texture.obj
 0001:001594e0       ??$construct_array@V?$vector@PAVmip_level@crnlib@@@crnlib@@V12@@helpers@crnlib@@YAXPAV?$vector@PAVmip_level@crnlib@@@1@IABV21@@Z 0055a4e0 f i crnlib_VC9:crn_dds_texture.obj
 0001:00159580       ??$construct_array@Udxt_pixel_block@crnlib@@@helpers@crnlib@@YAXPAUdxt_pixel_block@1@I@Z 0055a580 f i crnlib_VC9:crn_dds_texture.obj
 0001:00159590       ??0qdxt1_params@crnlib@@QAE@XZ 0055a590 f i crnlib_VC9:crn_dds_texture.obj
 0001:001595f0       ??0qdxt5_params@crnlib@@QAE@XZ 0055a5f0 f i crnlib_VC9:crn_dds_texture.obj
 0001:00159600       ??1?$vector@Udxt_pixel_block@crnlib@@@crnlib@@QAE@XZ 0055a600 f i crnlib_VC9:crn_dds_texture.obj
 0001:00159610       ??0?$vector@PAVmip_level@crnlib@@@crnlib@@QAE@IABQAVmip_level@1@@Z 0055a610 f i crnlib_VC9:crn_dds_texture.obj
 0001:00159670       ?resize@?$vector@PAVmip_level@crnlib@@@crnlib@@QAEXI_N@Z 0055a670 f i crnlib_VC9:crn_dds_texture.obj
 0001:001596e0       ?set_alpha_to_luma@?$image@V?$color_quad@EH@crnlib@@@crnlib@@QAEXXZ 0055a6e0 f i crnlib_VC9:crn_dds_texture.obj
 0001:00159790       ?extract_block@?$image@V?$color_quad@EH@crnlib@@@crnlib@@QBE_NPAV?$color_quad@EH@2@IIII_N@Z 0055a790 f i crnlib_VC9:crn_dds_texture.obj
 0001:00159990       ??1?$vector@Udxt1_block@crnlib@@@crnlib@@QAE@XZ 0055a990 f i crnlib_VC9:crn_dds_texture.obj
 0001:001599a0       ?resize@?$vector@Udxt1_block@crnlib@@@crnlib@@QAEXI_N@Z 0055a9a0 f i crnlib_VC9:crn_dds_texture.obj
 0001:001599f0       ??1?$vector@Udxt5_block@crnlib@@@crnlib@@QAE@XZ 0055a9f0 f i crnlib_VC9:crn_dds_texture.obj
 0001:00159a00       ?resize@?$vector@Udxt5_block@crnlib@@@crnlib@@QAEXI_N@Z 0055aa00 f i crnlib_VC9:crn_dds_texture.obj
 0001:00159a50       ?resize@?$vector@V?$color_quad@EH@crnlib@@@crnlib@@QAEXI_N@Z 0055aa50 f i crnlib_VC9:crn_dds_texture.obj
 0001:00159aa0       ?insert@?$vector@V?$color_quad@EH@crnlib@@@crnlib@@QAEXIPBV?$color_quad@EH@2@I@Z 0055aaa0 f i crnlib_VC9:crn_dds_texture.obj
 0001:00159b20       ?construct_array@?$scalar_type@Udxt_pixel_block@crnlib@@@crnlib@@SAXPAUdxt_pixel_block@2@I@Z 0055ab20 f i crnlib_VC9:crn_dds_texture.obj
 0001:00159b30       ?object_mover@?$vector@Udxt_pixel_block@crnlib@@@crnlib@@CAXPAX0I@Z 0055ab30 f i crnlib_VC9:crn_dds_texture.obj
 0001:00159bb0       ??0?$image@V?$color_quad@EH@crnlib@@@crnlib@@QAE@IIIABV?$color_quad@EH@1@I@Z 0055abb0 f i crnlib_VC9:crn_dds_texture.obj
 0001:00159c70       ??_G?$image@V?$color_quad@EH@crnlib@@@crnlib@@QAEPAXI@Z 0055ac70 f i crnlib_VC9:crn_dds_texture.obj
