 rwgtex

 Timestamp is 58396e63 (Sat Nov 26 14:13:39 2016)

 Preferred load address is 00400000

 Start         Length     Name                   Class
 0001:00000000 000ca741H .text                   CODE
 0001:000ca750 0000152dH .text$di                CODE
 0001:000cbc80 0014d130H .text$mn                CODE
 0001:00218db0 00004e83H .text$x                 CODE
 0001:0021dc40 000003dbH .text$yc                CODE
 0001:0021e020 00001a9bH .text$yd                CODE
 0002:00000000 00000344H .idata$5                DATA
 0002:00000344 00000004H .CRT$XCA                DATA
 0002:00000348 000001e8H .CRT$XCU                DATA
 0002:00000530 00000004H .CRT$XCZ                DATA
 0002:00000534 00000004H .CRT$XIA                DATA
 0002:00000538 00000014H .CRT$XIC                DATA
 0002:0000054c 00000004H .CRT$XIY                DATA
 0002:00000550 00000004H .CRT$XIZ                DATA
 0002:00000554 00000004H .CRT$XPA                DATA
 0002:00000558 0000000cH .CRT$XPX                DATA
 0002:00000564 00000004H .CRT$XPXA               DATA
 0002:00000568 00000004H .CRT$XPZ                DATA
 0002:0000056c 00000004H .CRT$XTA                DATA
 0002:00000570 00000004H .CRT$XTZ                DATA
 0002:00000580 00074df8H .rdata                  DATA
 0002:00075378 00000054H .rdata$debug            DATA
 0002:000753cc 00000b84H .rdata$r                DATA
 0002:00075f50 000006ccH .rdata$sxdata           DATA
 0002:0007661c 00000004H .rtc$IAA                DATA
 0002:00076620 00000004H .rtc$IZZ                DATA
 0002:00076624 00000004H .rtc$TAA                DATA
 0002:00076628 00000004H .rtc$TZZ                DATA
 0002:00076630 00006a7cH .xdata$x                DATA
 0002:0007d0ac 00000000H .edata                  DATA
 0002:0007d0ac 00000064H .idata$2                DATA
 0002:0007d110 00000014H .idata$3                DATA
 0002:0007d124 00000344H .idata$4                DATA
 0002:0007d468 00001330H .idata$6                DATA
 0003:00000000 000158d0H .data                   DATA
 0003:000158d0 0000042aH .data$r                 DATA
 0003:00015d00 000291bcH .bss                    DATA
 0004:00000000 00000020H _RDATA                  DATA
 0005:00000000 00000058H .rsrc$01                DATA
 0005:00000060 00000180H .rsrc$02                DATA

  Address         Publics by Value              Rva+Base       Lib:Object

 0000:00000000       ___guard_fids_count        00000000     <absolute>
 0000:00000000       ___guard_fids_table        00000000     <absolute>
 0000:00000000       ___guard_flags             00000000     <absolute>
 0000:00000000       __except_list              00000000     <absolute>
 0000:000001b3       ___safe_se_handler_count   000001b3     <absolute>
 0000:00000000       ___ImageBase               00400000     <linker-defined>
 0001:00000000       _readCompressParams        00401000 f   ATI_Compress_MT:etcpack.obj
 0001:00000220       ?computeAverageColor2x4noQuantFloat@@YAXPAEHHHHPAM@Z 00401220 f   ATI_Compress_MT:etcpack.obj
 0001:00000380       ?computeAverageColor4x2noQuantFloat@@YAXPAEHHHHPAM@Z 00401380 f   ATI_Compress_MT:etcpack.obj
 0001:000004e0       ?compressBlockWithTable2x4@@YAHPAEHHHH0HPAI1@Z 004014e0 f   ATI_Compress_MT:etcpack.obj
 0001:000006c0       ?compressBlockWithTable2x4percep@@YAMPAEHHHH0HPAI1@Z 004016c0 f   ATI_Compress_MT:etcpack.obj
 0001:00000900       ?compressBlockWithTable4x2@@YAHPAEHHHH0HPAI1@Z 00401900 f   ATI_Compress_MT:etcpack.obj
 0001:00000af0       ?compressBlockWithTable4x2percep@@YAMPAEHHHH0HPAI1@Z 00401af0 f   ATI_Compress_MT:etcpack.obj
 0001:00000d30       ?tryalltables_3bittable2x4@@YAHPAEHHHH0AAI11@Z 00401d30 f   ATI_Compress_MT:etcpack.obj
 0001:00000db0       ?tryalltables_3bittable2x4percep@@YAHPAEHHHH0AAI11@Z 00401db0 f   ATI_Compress_MT:etcpack.obj
 0001:00000e50       ?tryalltables_3bittable4x2@@YAHPAEHHHH0AAI11@Z 00401e50 f   ATI_Compress_MT:etcpack.obj
 0001:00000ed0       ?tryalltables_3bittable4x2percep@@YAHPAEHHHH0AAI11@Z 00401ed0 f   ATI_Compress_MT:etcpack.obj
 0001:00000f70       ?quantize444ColorCombined@@YAXPAMPAHPAE@Z 00401f70 f   ATI_Compress_MT:etcpack.obj
 0001:000013e0       ?quantize555ColorCombined@@YAXPAMPAHPAE@Z 004023e0 f   ATI_Compress_MT:etcpack.obj
 0001:00001820       ?quantize444ColorCombinedPerceptual@@YAXPAMPAHPAE@Z 00402820 f   ATI_Compress_MT:etcpack.obj
 0001:00001c70       ?quantize555ColorCombinedPerceptual@@YAXPAMPAHPAE@Z 00402c70 f   ATI_Compress_MT:etcpack.obj
 0001:00002100       ?compressBlockDiffFlipCombined@@YAXPAEHHHHAAI1@Z 00403100 f   ATI_Compress_MT:etcpack.obj
 0001:00002930       ?compressBlockDiffFlipAveragePerceptual@@YAXPAEHHHHAAI1@Z 00403930 f   ATI_Compress_MT:etcpack.obj
 0001:00003360       ?compressBlockDiffFlipCombinedPerceptual@@YAXPAEHHHHAAI1@Z 00404360 f   ATI_Compress_MT:etcpack.obj
 0001:00003b90       ?decompressBlockDiffFlip@@YAXIIPAEHHHH@Z 00404b90 f   ATI_Compress_MT:etcpack.obj
 0001:00004620       ?calcBlockErrorRGB@@YANPAE0HHHH@Z 00405620 f   ATI_Compress_MT:etcpack.obj
 0001:00004a90       ?calcBlockPerceptualErrorRGB@@YANPAE0HHHH@Z 00405a90 f   ATI_Compress_MT:etcpack.obj
 0001:00004f30       ?compressBlockDiffFlipFastPerceptual@@YAXPAE0HHHHAAI1@Z 00405f30 f   ATI_Compress_MT:etcpack.obj
 0001:00005020       ?write_big_endian_2byte_word@@YAXPAGPAU_iobuf@@@Z 00406020 f   ATI_Compress_MT:etcpack.obj
 0001:00005060       ?read_big_endian_2byte_word@@YAXPAGPAU_iobuf@@@Z 00406060 f   ATI_Compress_MT:etcpack.obj
 0001:000050b0       ?write_big_endian_4byte_word@@YAXPAIPAU_iobuf@@@Z 004060b0 f   ATI_Compress_MT:etcpack.obj
 0001:00005120       ?read_big_endian_4byte_word@@YAXPAIPAU_iobuf@@@Z 00406120 f   ATI_Compress_MT:etcpack.obj
 0001:000051a0       _atiEncodeRGBBlockETC      004061a0 f   ATI_Compress_MT:etcpack.obj
 0001:00005200       _atiDecodeRGBBlockETC      00406200 f   ATI_Compress_MT:etcpack.obj
 0001:00005240       ?GetCodecType@@YA?AW4_CodecType@@W4ATI_TC_FORMAT@@@Z 00406240 f   ATI_Compress_MT:ATI_Compress.obj
 0001:00005350       ?GetError@@YA?AW4ATI_TC_ERROR@@W4_CODECError@@@Z 00406350 f   ATI_Compress_MT:ATI_Compress.obj
 0001:00005380       ?CalcBufferSize@@YAKW4ATI_TC_FORMAT@@KKK@Z 00406380 f   ATI_Compress_MT:ATI_Compress.obj
 0001:000054a0       ?CompressTexture@@YA?AW4ATI_TC_ERROR@@PBUATI_TC_Texture@@PAU2@PBUATI_TC_CompressOptions@@P6A_NMKK@ZKKW4_CodecType@@@Z 004064a0 f   ATI_Compress_MT:ATI_Compress.obj
 0001:00005720       ??0CATICompressThreadData@@QAE@XZ 00406720 f   ATI_Compress_MT:ATI_Compress.obj
 0001:00005740       ??1CATICompressThreadData@@QAE@XZ 00406740 f   ATI_Compress_MT:ATI_Compress.obj
 0001:00005790       ?ThreadedCompressProc@@YGKPAX@Z 00406790 f   ATI_Compress_MT:ATI_Compress.obj
 0001:000057f0       ?ThreadedCompressTexture@@YA?AW4ATI_TC_ERROR@@PBUATI_TC_Texture@@PAU2@PBUATI_TC_CompressOptions@@P6A_NMKK@ZKKW4_CodecType@@@Z 004067f0 f   ATI_Compress_MT:ATI_Compress.obj
 0001:00005c30       _ATI_TC_CalculateBufferSize 00406c30 f   ATI_Compress_MT:ATI_Compress.obj
 0001:00005c80       ?CheckTexture@@YA?AW4ATI_TC_ERROR@@PBUATI_TC_Texture@@_N@Z 00406c80 f   ATI_Compress_MT:ATI_Compress.obj
 0001:00005d10       _ATI_TC_ConvertTexture     00406d10 f   ATI_Compress_MT:ATI_Compress.obj
 0001:00006240       ??0CCodec@ATI_Compress@@QAE@W4_CodecType@@@Z 00407240 f   ATI_Compress_MT:Codec.obj
 0001:00006260       ??1CCodec@ATI_Compress@@UAE@XZ 00407260 f   ATI_Compress_MT:Codec.obj
 0001:00006270       ?SetParameter@CCodec@ATI_Compress@@UAE_NPBDK@Z 00407270 f   ATI_Compress_MT:Codec.obj
 0001:00006280       ?GetParameter@CCodec@ATI_Compress@@UAE_NPBDAAK@Z 00407280 f   ATI_Compress_MT:Codec.obj
 0001:00006290       ?SetParameter@CCodec@ATI_Compress@@UAE_NPBDM@Z 00407290 f   ATI_Compress_MT:Codec.obj
 0001:000062a0       ?GetParameter@CCodec@ATI_Compress@@UAE_NPBDAAM@Z 004072a0 f   ATI_Compress_MT:Codec.obj
 0001:000062b0       ?SupportsSSE@@YA_NXZ       004072b0 f   ATI_Compress_MT:Codec.obj
 0001:000062c0       ?SupportsSSE2@@YA_NXZ      004072c0 f   ATI_Compress_MT:Codec.obj
 0001:000062d0       ?CreateCodec@@YAPAVCCodec@ATI_Compress@@W4_CodecType@@@Z 004072d0 f   ATI_Compress_MT:Codec.obj
 0001:000066e0       ?CalcBufferSize@@YAKW4_CodecType@@KK@Z 004076e0 f   ATI_Compress_MT:Codec.obj
 0001:00006750       ?DeriveB@@YAEEE@Z          00407750 f   ATI_Compress_MT:Codec.obj
 0001:00006860       ?DeriveB@@YAMMM@Z          00407860 f   ATI_Compress_MT:Codec.obj
 0001:000068f0       ?GetType@CCodec@ATI_Compress@@UBE?AW4_CodecType@@XZ 004078f0 f i ATI_Compress_MT:Codec.obj
 0001:00006900       ?GetBlockHeight@CCodec@ATI_Compress@@UAEKXZ 00407900 f i ATI_Compress_MT:Codec.obj
 0001:00006910       ??_ECCodec@ATI_Compress@@UAEPAXI@Z 00407910 f i ATI_Compress_MT:Codec.obj
 0001:00006910       ??_GCCodec@ATI_Compress@@UAEPAXI@Z 00407910 f i ATI_Compress_MT:Codec.obj
 0001:00006930       ??0half@@QAE@XZ            00407930 f i ATI_Compress_MT:CodecBuffer.obj
 0001:00006940       ??0half@@QAE@M@Z           00407940 f i ATI_Compress_MT:CodecBuffer.obj
 0001:000069b0       ??Bhalf@@QBEMXZ            004079b0 f i ATI_Compress_MT:CodecBuffer.obj
 0001:000069c0       ??4half@@QAEAAV0@V0@@Z     004079c0 f i ATI_Compress_MT:CodecBuffer.obj
 0001:000069d0       ??4half@@QAEAAV0@M@Z       004079d0 f i ATI_Compress_MT:CodecBuffer.obj
 0001:000069f0       ?GetWidth@CCodecBuffer@@QBE?BKXZ 004079f0 f i ATI_Compress_MT:CodecBuffer.obj
 0001:00006a00       ?GetHeight@CCodecBuffer@@QBE?BKXZ 00407a00 f i ATI_Compress_MT:CodecBuffer.obj
 0001:00006a10       ?CreateCodecBuffer@@YAPAVCCodecBuffer@@W4_CodecBufferType@@KKKPAE@Z 00407a10 f   ATI_Compress_MT:CodecBuffer.obj
 0001:00006ff0       ?GetCodecBufferType@@YA?AW4_CodecBufferType@@W4ATI_TC_FORMAT@@@Z 00407ff0 f   ATI_Compress_MT:CodecBuffer.obj
 0001:00007090       ??0CCodecBuffer@@QAE@KKKPAE@Z 00408090 f   ATI_Compress_MT:CodecBuffer.obj
 0001:000070d0       ??1CCodecBuffer@@UAE@XZ    004080d0 f   ATI_Compress_MT:CodecBuffer.obj
 0001:00007100       ?Copy@CCodecBuffer@@UAEXAAV1@@Z 00408100 f   ATI_Compress_MT:CodecBuffer.obj
 0001:000071c0       ?WriteBlock@CCodecBuffer@@UAE_NKKPAKK@Z 004081c0 f   ATI_Compress_MT:CodecBuffer.obj
 0001:000071d0       ?ReadBlock@CCodecBuffer@@UAE_NKKPAKK@Z 004081d0 f   ATI_Compress_MT:CodecBuffer.obj
 0001:000071e0       ?ConvertBlock@CCodecBuffer@@IAEXQANQAMK@Z 004081e0 f   ATI_Compress_MT:CodecBuffer.obj
 0001:00007260       ?ConvertBlock@CCodecBuffer@@IAEXQANQAVhalf@@K@Z 00408260 f   ATI_Compress_MT:CodecBuffer.obj
 0001:00007310       ?ConvertBlock@CCodecBuffer@@IAEXQANQAKK@Z 00408310 f   ATI_Compress_MT:CodecBuffer.obj
 0001:000073f0       ?ConvertBlock@CCodecBuffer@@IAEXQANQAGK@Z 004083f0 f   ATI_Compress_MT:CodecBuffer.obj
 0001:000074b0       ?ConvertBlock@CCodecBuffer@@IAEXQANQAEK@Z 004084b0 f   ATI_Compress_MT:CodecBuffer.obj
 0001:00007560       ?ConvertBlock@CCodecBuffer@@IAEXQAMQANK@Z 00408560 f   ATI_Compress_MT:CodecBuffer.obj
 0001:000075e0       ?ConvertBlock@CCodecBuffer@@IAEXQAMQAVhalf@@K@Z 004085e0 f   ATI_Compress_MT:CodecBuffer.obj
 0001:00007690       ?ConvertBlock@CCodecBuffer@@IAEXQAMQAKK@Z 00408690 f   ATI_Compress_MT:CodecBuffer.obj
 0001:00007780       ?ConvertBlock@CCodecBuffer@@IAEXQAMQAGK@Z 00408780 f   ATI_Compress_MT:CodecBuffer.obj
 0001:00007840       ?ConvertBlock@CCodecBuffer@@IAEXQAMQAEK@Z 00408840 f   ATI_Compress_MT:CodecBuffer.obj
 0001:000078f0       ?ConvertBlock@CCodecBuffer@@IAEXQAVhalf@@QANK@Z 004088f0 f   ATI_Compress_MT:CodecBuffer.obj
 0001:00007940       ?ConvertBlock@CCodecBuffer@@IAEXQAVhalf@@QAMK@Z 00408940 f   ATI_Compress_MT:CodecBuffer.obj
 0001:00007990       ?ConvertBlock@CCodecBuffer@@IAEXQAVhalf@@QAKK@Z 00408990 f   ATI_Compress_MT:CodecBuffer.obj
 0001:00007a00       ?ConvertBlock@CCodecBuffer@@IAEXQAVhalf@@QAGK@Z 00408a00 f   ATI_Compress_MT:CodecBuffer.obj
 0001:00007a60       ?ConvertBlock@CCodecBuffer@@IAEXQAVhalf@@QAEK@Z 00408a60 f   ATI_Compress_MT:CodecBuffer.obj
 0001:00007ac0       ?ConvertBlock@CCodecBuffer@@IAEXQAKQANK@Z 00408ac0 f   ATI_Compress_MT:CodecBuffer.obj
 0001:00007b30       ?ConvertBlock@CCodecBuffer@@IAEXQAKQAMK@Z 00408b30 f   ATI_Compress_MT:CodecBuffer.obj
 0001:00007ba0       ?ConvertBlock@CCodecBuffer@@IAEXQAKQAVhalf@@K@Z 00408ba0 f   ATI_Compress_MT:CodecBuffer.obj
 0001:00007c20       ?ConvertBlock@CCodecBuffer@@IAEXQAKQAGK@Z 00408c20 f   ATI_Compress_MT:CodecBuffer.obj
 0001:00007c60       ?ConvertBlock@CCodecBuffer@@IAEXQAKQAEK@Z 00408c60 f   ATI_Compress_MT:CodecBuffer.obj
 0001:00007cb0       ?ConvertBlock@CCodecBuffer@@IAEXQAGQANK@Z 00408cb0 f   ATI_Compress_MT:CodecBuffer.obj
 0001:00007d20       ?ConvertBlock@CCodecBuffer@@IAEXQAGQAMK@Z 00408d20 f   ATI_Compress_MT:CodecBuffer.obj
 0001:00007d90       ?ConvertBlock@CCodecBuffer@@IAEXQAGQAVhalf@@K@Z 00408d90 f   ATI_Compress_MT:CodecBuffer.obj
 0001:00007e00       ?ConvertBlock@CCodecBuffer@@IAEXQAGQAKK@Z 00408e00 f   ATI_Compress_MT:CodecBuffer.obj
 0001:00007ee0       ?ConvertBlock@CCodecBuffer@@IAEXQAGQAEK@Z 00408ee0 f   ATI_Compress_MT:CodecBuffer.obj
 0001:00007f20       ?ConvertBlock@CCodecBuffer@@IAEXQAEQANK@Z 00408f20 f   ATI_Compress_MT:CodecBuffer.obj
 0001:00007f90       ?ConvertBlock@CCodecBuffer@@IAEXQAEQAMK@Z 00408f90 f   ATI_Compress_MT:CodecBuffer.obj
 0001:00008000       ?ConvertBlock@CCodecBuffer@@IAEXQAEQAVhalf@@K@Z 00409000 f   ATI_Compress_MT:CodecBuffer.obj
 0001:00008070       ?ConvertBlock@CCodecBuffer@@IAEXQAEQAKK@Z 00409070 f   ATI_Compress_MT:CodecBuffer.obj
 0001:000080e0       ?ConvertBlock@CCodecBuffer@@IAEXQAEQAGK@Z 004090e0 f   ATI_Compress_MT:CodecBuffer.obj
 0001:00008150       ?SwizzleBlock@CCodecBuffer@@IAEXQANK@Z 00409150 f   ATI_Compress_MT:CodecBuffer.obj
 0001:000081f0       ?SwizzleBlock@CCodecBuffer@@IAEXQAMK@Z 004091f0 f   ATI_Compress_MT:CodecBuffer.obj
 0001:000082b0       ?SwizzleBlock@CCodecBuffer@@IAEXQAVhalf@@K@Z 004092b0 f   ATI_Compress_MT:CodecBuffer.obj
 0001:000082f0       ?SwizzleBlock@CCodecBuffer@@IAEXQAKK@Z 004092f0 f   ATI_Compress_MT:CodecBuffer.obj
 0001:00008320       ?SwizzleBlock@CCodecBuffer@@IAEXQAGK@Z 00409320 f   ATI_Compress_MT:CodecBuffer.obj
 0001:00008360       ?ReadBlockR@CCodecBuffer@@UAE_NKKEEQAE@Z 00409360 f   ATI_Compress_MT:CodecBuffer.obj
 0001:00008530       ?ReadBlockG@CCodecBuffer@@UAE_NKKEEQAE@Z 00409530 f   ATI_Compress_MT:CodecBuffer.obj
 0001:00008700       ?ReadBlockB@CCodecBuffer@@UAE_NKKEEQAE@Z 00409700 f   ATI_Compress_MT:CodecBuffer.obj
 0001:000088d0       ?ReadBlockA@CCodecBuffer@@UAE_NKKEEQAE@Z 004098d0 f   ATI_Compress_MT:CodecBuffer.obj
 0001:00008aa0       ?ReadBlockR@CCodecBuffer@@UAE_NKKEEQAG@Z 00409aa0 f   ATI_Compress_MT:CodecBuffer.obj
 0001:00008c70       ?ReadBlockG@CCodecBuffer@@UAE_NKKEEQAG@Z 00409c70 f   ATI_Compress_MT:CodecBuffer.obj
 0001:00008e40       ?ReadBlockB@CCodecBuffer@@UAE_NKKEEQAG@Z 00409e40 f   ATI_Compress_MT:CodecBuffer.obj
 0001:00009010       ?ReadBlockA@CCodecBuffer@@UAE_NKKEEQAG@Z 0040a010 f   ATI_Compress_MT:CodecBuffer.obj
 0001:000091e0       ?ReadBlockR@CCodecBuffer@@UAE_NKKEEQAK@Z 0040a1e0 f   ATI_Compress_MT:CodecBuffer.obj
 0001:000093b0       ?ReadBlockG@CCodecBuffer@@UAE_NKKEEQAK@Z 0040a3b0 f   ATI_Compress_MT:CodecBuffer.obj
 0001:00009580       ?ReadBlockB@CCodecBuffer@@UAE_NKKEEQAK@Z 0040a580 f   ATI_Compress_MT:CodecBuffer.obj
 0001:00009750       ?ReadBlockA@CCodecBuffer@@UAE_NKKEEQAK@Z 0040a750 f   ATI_Compress_MT:CodecBuffer.obj
 0001:00009920       ?ReadBlockR@CCodecBuffer@@UAE_NKKEEQAVhalf@@@Z 0040a920 f   ATI_Compress_MT:CodecBuffer.obj
 0001:00009af0       ?ReadBlockG@CCodecBuffer@@UAE_NKKEEQAVhalf@@@Z 0040aaf0 f   ATI_Compress_MT:CodecBuffer.obj
 0001:00009cc0       ?ReadBlockB@CCodecBuffer@@UAE_NKKEEQAVhalf@@@Z 0040acc0 f   ATI_Compress_MT:CodecBuffer.obj
 0001:00009e90       ?ReadBlockA@CCodecBuffer@@UAE_NKKEEQAVhalf@@@Z 0040ae90 f   ATI_Compress_MT:CodecBuffer.obj
 0001:0000a060       ?ReadBlockR@CCodecBuffer@@UAE_NKKEEQAM@Z 0040b060 f   ATI_Compress_MT:CodecBuffer.obj
 0001:0000a230       ?ReadBlockG@CCodecBuffer@@UAE_NKKEEQAM@Z 0040b230 f   ATI_Compress_MT:CodecBuffer.obj
 0001:0000a400       ?ReadBlockB@CCodecBuffer@@UAE_NKKEEQAM@Z 0040b400 f   ATI_Compress_MT:CodecBuffer.obj
 0001:0000a5d0       ?ReadBlockA@CCodecBuffer@@UAE_NKKEEQAM@Z 0040b5d0 f   ATI_Compress_MT:CodecBuffer.obj
 0001:0000a7a0       ?ReadBlockR@CCodecBuffer@@UAE_NKKEEQAN@Z 0040b7a0 f   ATI_Compress_MT:CodecBuffer.obj
 0001:0000a970       ?ReadBlockG@CCodecBuffer@@UAE_NKKEEQAN@Z 0040b970 f   ATI_Compress_MT:CodecBuffer.obj
 0001:0000ab40       ?ReadBlockB@CCodecBuffer@@UAE_NKKEEQAN@Z 0040bb40 f   ATI_Compress_MT:CodecBuffer.obj
 0001:0000ad10       ?ReadBlockA@CCodecBuffer@@UAE_NKKEEQAN@Z 0040bd10 f   ATI_Compress_MT:CodecBuffer.obj
 0001:0000aee0       ?WriteBlockR@CCodecBuffer@@UAE_NKKEEQAE@Z 0040bee0 f   ATI_Compress_MT:CodecBuffer.obj
 0001:0000b080       ?WriteBlockG@CCodecBuffer@@UAE_NKKEEQAE@Z 0040c080 f   ATI_Compress_MT:CodecBuffer.obj
 0001:0000b230       ?WriteBlockB@CCodecBuffer@@UAE_NKKEEQAE@Z 0040c230 f   ATI_Compress_MT:CodecBuffer.obj
 0001:0000b3e0       ?WriteBlockA@CCodecBuffer@@UAE_NKKEEQAE@Z 0040c3e0 f   ATI_Compress_MT:CodecBuffer.obj
 0001:0000b590       ?WriteBlockR@CCodecBuffer@@UAE_NKKEEQAG@Z 0040c590 f   ATI_Compress_MT:CodecBuffer.obj
 0001:0000b730       ?WriteBlockG@CCodecBuffer@@UAE_NKKEEQAG@Z 0040c730 f   ATI_Compress_MT:CodecBuffer.obj
 0001:0000b8e0       ?WriteBlockB@CCodecBuffer@@UAE_NKKEEQAG@Z 0040c8e0 f   ATI_Compress_MT:CodecBuffer.obj
 0001:0000ba90       ?WriteBlockA@CCodecBuffer@@UAE_NKKEEQAG@Z 0040ca90 f   ATI_Compress_MT:CodecBuffer.obj
 0001:0000bc40       ?WriteBlockR@CCodecBuffer@@UAE_NKKEEQAK@Z 0040cc40 f   ATI_Compress_MT:CodecBuffer.obj
 0001:0000bde0       ?WriteBlockG@CCodecBuffer@@UAE_NKKEEQAK@Z 0040cde0 f   ATI_Compress_MT:CodecBuffer.obj
 0001:0000bf90       ?WriteBlockB@CCodecBuffer@@UAE_NKKEEQAK@Z 0040cf90 f   ATI_Compress_MT:CodecBuffer.obj
 0001:0000c140       ?WriteBlockA@CCodecBuffer@@UAE_NKKEEQAK@Z 0040d140 f   ATI_Compress_MT:CodecBuffer.obj
 0001:0000c2f0       ?WriteBlockR@CCodecBuffer@@UAE_NKKEEQAVhalf@@@Z 0040d2f0 f   ATI_Compress_MT:CodecBuffer.obj
 0001:0000c490       ?WriteBlockG@CCodecBuffer@@UAE_NKKEEQAVhalf@@@Z 0040d490 f   ATI_Compress_MT:CodecBuffer.obj
 0001:0000c640       ?WriteBlockB@CCodecBuffer@@UAE_NKKEEQAVhalf@@@Z 0040d640 f   ATI_Compress_MT:CodecBuffer.obj
 0001:0000c7f0       ?WriteBlockA@CCodecBuffer@@UAE_NKKEEQAVhalf@@@Z 0040d7f0 f   ATI_Compress_MT:CodecBuffer.obj
 0001:0000c9a0       ?WriteBlockR@CCodecBuffer@@UAE_NKKEEQAM@Z 0040d9a0 f   ATI_Compress_MT:CodecBuffer.obj
 0001:0000cb40       ?WriteBlockG@CCodecBuffer@@UAE_NKKEEQAM@Z 0040db40 f   ATI_Compress_MT:CodecBuffer.obj
 0001:0000ccf0       ?WriteBlockB@CCodecBuffer@@UAE_NKKEEQAM@Z 0040dcf0 f   ATI_Compress_MT:CodecBuffer.obj
 0001:0000cea0       ?WriteBlockA@CCodecBuffer@@UAE_NKKEEQAM@Z 0040dea0 f   ATI_Compress_MT:CodecBuffer.obj
 0001:0000d050       ?WriteBlockR@CCodecBuffer@@UAE_NKKEEQAN@Z 0040e050 f   ATI_Compress_MT:CodecBuffer.obj
 0001:0000d1f0       ?WriteBlockG@CCodecBuffer@@UAE_NKKEEQAN@Z 0040e1f0 f   ATI_Compress_MT:CodecBuffer.obj
 0001:0000d3a0       ?WriteBlockB@CCodecBuffer@@UAE_NKKEEQAN@Z 0040e3a0 f   ATI_Compress_MT:CodecBuffer.obj
 0001:0000d550       ?WriteBlockA@CCodecBuffer@@UAE_NKKEEQAN@Z 0040e550 f   ATI_Compress_MT:CodecBuffer.obj
 0001:0000d700       ?WriteBlockRGBA@CCodecBuffer@@UAE_NKKEEQAE@Z 0040e700 f   ATI_Compress_MT:CodecBuffer.obj
 0001:0000d960       ?ReadBlockRGBA@CCodecBuffer@@UAE_NKKEEQAE@Z 0040e960 f   ATI_Compress_MT:CodecBuffer.obj
 0001:0000dbd0       ?WriteBlockRGBA@CCodecBuffer@@UAE_NKKEEQAK@Z 0040ebd0 f   ATI_Compress_MT:CodecBuffer.obj
 0001:0000dd60       ?ReadBlockRGBA@CCodecBuffer@@UAE_NKKEEQAK@Z 0040ed60 f   ATI_Compress_MT:CodecBuffer.obj
 0001:0000df60       ?WriteBlockRGBA@CCodecBuffer@@UAE_NKKEEQAG@Z 0040ef60 f   ATI_Compress_MT:CodecBuffer.obj
 0001:0000e0f0       ?ReadBlockRGBA@CCodecBuffer@@UAE_NKKEEQAG@Z 0040f0f0 f   ATI_Compress_MT:CodecBuffer.obj
 0001:0000e2b0       ?WriteBlockRGBA@CCodecBuffer@@UAE_NKKEEQAVhalf@@@Z 0040f2b0 f   ATI_Compress_MT:CodecBuffer.obj
 0001:0000e440       ?ReadBlockRGBA@CCodecBuffer@@UAE_NKKEEQAVhalf@@@Z 0040f440 f   ATI_Compress_MT:CodecBuffer.obj
 0001:0000e600       ?WriteBlockRGBA@CCodecBuffer@@UAE_NKKEEQAM@Z 0040f600 f   ATI_Compress_MT:CodecBuffer.obj
 0001:0000e790       ?ReadBlockRGBA@CCodecBuffer@@UAE_NKKEEQAM@Z 0040f790 f   ATI_Compress_MT:CodecBuffer.obj
 0001:0000e950       ?WriteBlockRGBA@CCodecBuffer@@UAE_NKKEEQAN@Z 0040f950 f   ATI_Compress_MT:CodecBuffer.obj
 0001:0000eae0       ?ReadBlockRGBA@CCodecBuffer@@UAE_NKKEEQAN@Z 0040fae0 f   ATI_Compress_MT:CodecBuffer.obj
 0001:0000eca0       ?GetBufferType@CCodecBuffer@@UBE?AW4_CodecBufferType@@XZ 0040fca0 f i ATI_Compress_MT:CodecBuffer.obj
 0001:0000ecb0       ??_ECCodecBuffer@@UAEPAXI@Z 0040fcb0 f i ATI_Compress_MT:CodecBuffer.obj
 0001:0000ecb0       ??_GCCodecBuffer@@UAEPAXI@Z 0040fcb0 f i ATI_Compress_MT:CodecBuffer.obj
 0001:0000ecf0       ??0CCodec_ETC_RGB@@QAE@XZ  0040fcf0 f   ATI_Compress_MT:Codec_ETC_RGB.obj
 0001:0000ed10       ??1CCodec_ETC_RGB@@UAE@XZ  0040fd10 f   ATI_Compress_MT:Codec_ETC_RGB.obj
 0001:0000ed20       ?CreateBuffer@CCodec_ETC_RGB@@UBEPAVCCodecBuffer@@KKKPAE@Z 0040fd20 f   ATI_Compress_MT:Codec_ETC_RGB.obj
 0001:0000ed50       ?Compress@CCodec_ETC_RGB@@UAE?AW4_CODECError@@AAVCCodecBuffer@@0P6A_NMKK@ZKK@Z 0040fd50 f   ATI_Compress_MT:Codec_ETC_RGB.obj
 0001:0000eef0       ?Decompress@CCodec_ETC_RGB@@UAE?AW4_CODECError@@AAVCCodecBuffer@@0@Z 0040fef0 f   ATI_Compress_MT:Codec_ETC_RGB.obj
 0001:0000eff0       ?GetBlockHeight@CCodec_Block_4x4@@UAEKXZ 0040fff0 f i ATI_Compress_MT:Codec_ETC_RGB.obj
 0001:0000f000       ??_ECCodec_ETC_RGB@@UAEPAXI@Z 00410000 f i ATI_Compress_MT:Codec_ETC_RGB.obj
 0001:0000f000       ??_GCCodec_ETC_RGB@@UAEPAXI@Z 00410000 f i ATI_Compress_MT:Codec_ETC_RGB.obj
 0001:0000f030       ??0CCodec_ATC_RGBA_Interpolated@@QAE@XZ 00410030 f   ATI_Compress_MT:Codec_ATC_RGBA_Interpolated.obj
 0001:0000f050       ??1CCodec_ATC_RGBA_Interpolated@@UAE@XZ 00410050 f   ATI_Compress_MT:Codec_ATC_RGBA_Interpolated.obj
 0001:0000f060       ?Compress@CCodec_ATC_RGBA_Interpolated@@UAE?AW4_CODECError@@AAVCCodecBuffer@@0P6A_NMKK@ZKK@Z 00410060 f   ATI_Compress_MT:Codec_ATC_RGBA_Interpolated.obj
 0001:0000f200       ?Decompress@CCodec_ATC_RGBA_Interpolated@@UAE?AW4_CODECError@@AAVCCodecBuffer@@0@Z 00410200 f   ATI_Compress_MT:Codec_ATC_RGBA_Interpolated.obj
 0001:0000f300       ??_GCCodec_ATC_RGBA_Interpolated@@UAEPAXI@Z 00410300 f i ATI_Compress_MT:Codec_ATC_RGBA_Interpolated.obj
 0001:0000f300       ??_ECCodec_ATC_RGBA_Interpolated@@UAEPAXI@Z 00410300 f i ATI_Compress_MT:Codec_ATC_RGBA_Interpolated.obj
 0001:0000f330       ??0CCodec_ATC_RGBA_Explicit@@QAE@XZ 00410330 f   ATI_Compress_MT:Codec_ATC_RGBA_Explicit.obj
 0001:0000f350       ??1CCodec_ATC_RGBA_Explicit@@UAE@XZ 00410350 f   ATI_Compress_MT:Codec_ATC_RGBA_Explicit.obj
 0001:0000f360       ?Compress@CCodec_ATC_RGBA_Explicit@@UAE?AW4_CODECError@@AAVCCodecBuffer@@0P6A_NMKK@ZKK@Z 00410360 f   ATI_Compress_MT:Codec_ATC_RGBA_Explicit.obj
 0001:0000f500       ?Decompress@CCodec_ATC_RGBA_Explicit@@UAE?AW4_CODECError@@AAVCCodecBuffer@@0@Z 00410500 f   ATI_Compress_MT:Codec_ATC_RGBA_Explicit.obj
 0001:0000f600       ??_GCCodec_ATC_RGBA_Explicit@@UAEPAXI@Z 00410600 f i ATI_Compress_MT:Codec_ATC_RGBA_Explicit.obj
 0001:0000f600       ??_ECCodec_ATC_RGBA_Explicit@@UAEPAXI@Z 00410600 f i ATI_Compress_MT:Codec_ATC_RGBA_Explicit.obj
 0001:0000f630       ??0CCodec_ATC_RGB@@QAE@XZ  00410630 f   ATI_Compress_MT:Codec_ATC_RGB.obj
 0001:0000f650       ??1CCodec_ATC_RGB@@UAE@XZ  00410650 f   ATI_Compress_MT:Codec_ATC_RGB.obj
 0001:0000f660       ?CreateBuffer@CCodec_ATC_RGB@@UBEPAVCCodecBuffer@@KKKPAE@Z 00410660 f   ATI_Compress_MT:Codec_ATC_RGB.obj
 0001:0000f690       ?Compress@CCodec_ATC_RGB@@UAE?AW4_CODECError@@AAVCCodecBuffer@@0P6A_NMKK@ZKK@Z 00410690 f   ATI_Compress_MT:Codec_ATC_RGB.obj
 0001:0000f820       ?Decompress@CCodec_ATC_RGB@@UAE?AW4_CODECError@@AAVCCodecBuffer@@0@Z 00410820 f   ATI_Compress_MT:Codec_ATC_RGB.obj
 0001:0000f920       ??_GCCodec_ATC_RGB@@UAEPAXI@Z 00410920 f i ATI_Compress_MT:Codec_ATC_RGB.obj
 0001:0000f920       ??_ECCodec_ATC_RGB@@UAEPAXI@Z 00410920 f i ATI_Compress_MT:Codec_ATC_RGB.obj
 0001:0000f950       ??0CCodec_ATI2N_DXT5@@QAE@XZ 00410950 f   ATI_Compress_MT:Codec_ATI2N_DXT5.obj
 0001:0000f970       ??1CCodec_ATI2N_DXT5@@UAE@XZ 00410970 f   ATI_Compress_MT:Codec_ATI2N_DXT5.obj
 0001:0000f980       ?Compress@CCodec_ATI2N_DXT5@@UAE?AW4_CODECError@@AAVCCodecBuffer@@0P6A_NMKK@ZKK@Z 00410980 f   ATI_Compress_MT:Codec_ATI2N_DXT5.obj
 0001:0000fc30       ?Decompress@CCodec_ATI2N_DXT5@@UAE?AW4_CODECError@@AAVCCodecBuffer@@0@Z 00410c30 f   ATI_Compress_MT:Codec_ATI2N_DXT5.obj
 0001:0000fe40       ??_GCCodec_ATI2N_DXT5@@UAEPAXI@Z 00410e40 f i ATI_Compress_MT:Codec_ATI2N_DXT5.obj
 0001:0000fe40       ??_ECCodec_ATI2N_DXT5@@UAEPAXI@Z 00410e40 f i ATI_Compress_MT:Codec_ATI2N_DXT5.obj
 0001:0000fe70       ??0CCodec_ATI2N@@QAE@W4_CodecType@@@Z 00410e70 f   ATI_Compress_MT:Codec_ATI2N.obj
 0001:0000fe90       ??1CCodec_ATI2N@@UAE@XZ    00410e90 f   ATI_Compress_MT:Codec_ATI2N.obj
 0001:0000fea0       ?Compress@CCodec_ATI2N@@UAE?AW4_CODECError@@AAVCCodecBuffer@@0P6A_NMKK@ZKK@Z 00410ea0 f   ATI_Compress_MT:Codec_ATI2N.obj
 0001:00010150       ?Compress_Fast@CCodec_ATI2N@@UAE?AW4_CODECError@@AAVCCodecBuffer@@0P6A_NMKK@ZKK@Z 00411150 f   ATI_Compress_MT:Codec_ATI2N.obj
 0001:00010340       ?Decompress@CCodec_ATI2N@@UAE?AW4_CODECError@@AAVCCodecBuffer@@0@Z 00411340 f   ATI_Compress_MT:Codec_ATI2N.obj
 0001:00010630       ?DeriveBlockB@CCodec_ATI2N@@MAEXQAE00@Z 00411630 f   ATI_Compress_MT:Codec_ATI2N.obj
 0001:00010680       ?DeriveBlockB@CCodec_ATI2N@@MAEXQAM00@Z 00411680 f   ATI_Compress_MT:Codec_ATI2N.obj
 0001:000106d0       ??_ECCodec_ATI2N@@UAEPAXI@Z 004116d0 f i ATI_Compress_MT:Codec_ATI2N.obj
 0001:000106d0       ??_GCCodec_ATI2N@@UAEPAXI@Z 004116d0 f i ATI_Compress_MT:Codec_ATI2N.obj
 0001:00010700       ??0CCodec_ATI1N@@QAE@W4_CodecType@@@Z 00411700 f   ATI_Compress_MT:Codec_ATI1N.obj
 0001:00010720       ??1CCodec_ATI1N@@UAE@XZ    00411720 f   ATI_Compress_MT:Codec_ATI1N.obj
 0001:00010730       ?CreateBuffer@CCodec_ATI1N@@UBEPAVCCodecBuffer@@KKKPAE@Z 00411730 f   ATI_Compress_MT:Codec_ATI1N.obj
 0001:00010760       ?Compress@CCodec_ATI1N@@UAE?AW4_CODECError@@AAVCCodecBuffer@@0P6A_NMKK@ZKK@Z 00411760 f   ATI_Compress_MT:Codec_ATI1N.obj
 0001:000109a0       ?Compress_Fast@CCodec_ATI1N@@UAE?AW4_CODECError@@AAVCCodecBuffer@@0P6A_NMKK@ZKK@Z 004119a0 f   ATI_Compress_MT:Codec_ATI1N.obj
 0001:00010b30       ?Decompress@CCodec_ATI1N@@UAE?AW4_CODECError@@AAVCCodecBuffer@@0@Z 00411b30 f   ATI_Compress_MT:Codec_ATI1N.obj
 0001:00010d30       ??_ECCodec_ATI1N@@UAEPAXI@Z 00411d30 f i ATI_Compress_MT:Codec_ATI1N.obj
 0001:00010d30       ??_GCCodec_ATI1N@@UAEPAXI@Z 00411d30 f i ATI_Compress_MT:Codec_ATI1N.obj
 0001:00010d60       ??0CCodec_DXT5_xGxR@@QAE@XZ 00411d60 f   ATI_Compress_MT:Codec_DXT5_xGxR.obj
 0001:00010d80       ??1CCodec_DXT5_xGxR@@UAE@XZ 00411d80 f   ATI_Compress_MT:Codec_DXT5_xGxR.obj
 0001:00010d90       ?ReadBlock@CCodec_DXT5_xGxR@@MAEXAAVCCodecBuffer@@KKQAE@Z 00411d90 f   ATI_Compress_MT:Codec_DXT5_xGxR.obj
 0001:00010e70       ?WriteBlock@CCodec_DXT5_xGxR@@MAEXAAVCCodecBuffer@@KKQAE@Z 00411e70 f   ATI_Compress_MT:Codec_DXT5_xGxR.obj
 0001:00010f60       ?ReadBlock@CCodec_DXT5_xGxR@@MAEXAAVCCodecBuffer@@KKQAM@Z 00411f60 f   ATI_Compress_MT:Codec_DXT5_xGxR.obj
 0001:00010fd0       ?WriteBlock@CCodec_DXT5_xGxR@@MAEXAAVCCodecBuffer@@KKQAM@Z 00411fd0 f   ATI_Compress_MT:Codec_DXT5_xGxR.obj
 0001:00011060       ??_GCCodec_DXT5_xGxR@@UAEPAXI@Z 00412060 f i ATI_Compress_MT:Codec_DXT5_xGxR.obj
 0001:00011060       ??_ECCodec_DXT5_xGxR@@UAEPAXI@Z 00412060 f i ATI_Compress_MT:Codec_DXT5_xGxR.obj
 0001:00011090       ??0CCodec_DXT5_RGxB@@QAE@XZ 00412090 f   ATI_Compress_MT:Codec_DXT5_RGxB.obj
 0001:000110b0       ??1CCodec_DXT5_RGxB@@UAE@XZ 004120b0 f   ATI_Compress_MT:Codec_DXT5_RGxB.obj
 0001:000110c0       ?ReadBlock@CCodec_DXT5_RGxB@@MAEXAAVCCodecBuffer@@KKQAE@Z 004120c0 f   ATI_Compress_MT:Codec_DXT5_RGxB.obj
 0001:000111e0       ?WriteBlock@CCodec_DXT5_RGxB@@MAEXAAVCCodecBuffer@@KKQAE@Z 004121e0 f   ATI_Compress_MT:Codec_DXT5_RGxB.obj
 0001:000112f0       ?ReadBlock@CCodec_DXT5_RGxB@@MAEXAAVCCodecBuffer@@KKQAM@Z 004122f0 f   ATI_Compress_MT:Codec_DXT5_RGxB.obj
 0001:00011370       ?WriteBlock@CCodec_DXT5_RGxB@@MAEXAAVCCodecBuffer@@KKQAM@Z 00412370 f   ATI_Compress_MT:Codec_DXT5_RGxB.obj
 0001:000113f0       ??_GCCodec_DXT5_RGxB@@UAEPAXI@Z 004123f0 f i ATI_Compress_MT:Codec_DXT5_RGxB.obj
 0001:000113f0       ??_ECCodec_DXT5_RGxB@@UAEPAXI@Z 004123f0 f i ATI_Compress_MT:Codec_DXT5_RGxB.obj
 0001:00011420       ??0CCodec_DXT5_xRBG@@QAE@XZ 00412420 f   ATI_Compress_MT:Codec_DXT5_xRBG.obj
 0001:00011440       ??1CCodec_DXT5_xRBG@@UAE@XZ 00412440 f   ATI_Compress_MT:Codec_DXT5_xRBG.obj
 0001:00011450       ?ReadBlock@CCodec_DXT5_xRBG@@MAEXAAVCCodecBuffer@@KKQAE@Z 00412450 f   ATI_Compress_MT:Codec_DXT5_xRBG.obj
 0001:00011560       ?WriteBlock@CCodec_DXT5_xRBG@@MAEXAAVCCodecBuffer@@KKQAE@Z 00412560 f   ATI_Compress_MT:Codec_DXT5_xRBG.obj
 0001:00011670       ?ReadBlock@CCodec_DXT5_xRBG@@MAEXAAVCCodecBuffer@@KKQAM@Z 00412670 f   ATI_Compress_MT:Codec_DXT5_xRBG.obj
 0001:000116f0       ?WriteBlock@CCodec_DXT5_xRBG@@MAEXAAVCCodecBuffer@@KKQAM@Z 004126f0 f   ATI_Compress_MT:Codec_DXT5_xRBG.obj
 0001:00011770       ?SetParameter@CCodec_DXT5_xRBG@@UAE_NPBDM@Z 00412770 f   ATI_Compress_MT:Codec_DXT5_xRBG.obj
 0001:00011800       ?GetParameter@CCodec_DXT5_xRBG@@UAE_NPBDAAM@Z 00412800 f   ATI_Compress_MT:Codec_DXT5_xRBG.obj
 0001:00011880       __tcscmp                   00412880 f i ATI_Compress_MT:Codec_DXT5_xRBG.obj
 0001:00011890       ??_GCCodec_DXT5_xRBG@@UAEPAXI@Z 00412890 f i ATI_Compress_MT:Codec_DXT5_xRBG.obj
 0001:00011890       ??_ECCodec_DXT5_xRBG@@UAEPAXI@Z 00412890 f i ATI_Compress_MT:Codec_DXT5_xRBG.obj
 0001:000118c0       ??0CCodec_DXT5_RBxG@@QAE@XZ 004128c0 f   ATI_Compress_MT:Codec_DXT5_RBxG.obj
 0001:000118e0       ??1CCodec_DXT5_RBxG@@UAE@XZ 004128e0 f   ATI_Compress_MT:Codec_DXT5_RBxG.obj
 0001:000118f0       ?ReadBlock@CCodec_DXT5_RBxG@@MAEXAAVCCodecBuffer@@KKQAE@Z 004128f0 f   ATI_Compress_MT:Codec_DXT5_RBxG.obj
 0001:00011a10       ?WriteBlock@CCodec_DXT5_RBxG@@MAEXAAVCCodecBuffer@@KKQAE@Z 00412a10 f   ATI_Compress_MT:Codec_DXT5_RBxG.obj
 0001:00011b20       ?ReadBlock@CCodec_DXT5_RBxG@@MAEXAAVCCodecBuffer@@KKQAM@Z 00412b20 f   ATI_Compress_MT:Codec_DXT5_RBxG.obj
 0001:00011ba0       ?WriteBlock@CCodec_DXT5_RBxG@@MAEXAAVCCodecBuffer@@KKQAM@Z 00412ba0 f   ATI_Compress_MT:Codec_DXT5_RBxG.obj
 0001:00011c20       ?SetParameter@CCodec_DXT5_RBxG@@UAE_NPBDM@Z 00412c20 f   ATI_Compress_MT:Codec_DXT5_RBxG.obj
 0001:00011cb0       ?GetParameter@CCodec_DXT5_RBxG@@UAE_NPBDAAM@Z 00412cb0 f   ATI_Compress_MT:Codec_DXT5_RBxG.obj
 0001:00011d30       ??_GCCodec_DXT5_RBxG@@UAEPAXI@Z 00412d30 f i ATI_Compress_MT:Codec_DXT5_RBxG.obj
 0001:00011d30       ??_ECCodec_DXT5_RBxG@@UAEPAXI@Z 00412d30 f i ATI_Compress_MT:Codec_DXT5_RBxG.obj
 0001:00011d60       ??0CCodec_DXT5_RxBG@@QAE@XZ 00412d60 f   ATI_Compress_MT:Codec_DXT5_RxBG.obj
 0001:00011d80       ??1CCodec_DXT5_RxBG@@UAE@XZ 00412d80 f   ATI_Compress_MT:Codec_DXT5_RxBG.obj
 0001:00011d90       ?ReadBlock@CCodec_DXT5_RxBG@@MAEXAAVCCodecBuffer@@KKQAE@Z 00412d90 f   ATI_Compress_MT:Codec_DXT5_RxBG.obj
 0001:00011ea0       ?WriteBlock@CCodec_DXT5_RxBG@@MAEXAAVCCodecBuffer@@KKQAE@Z 00412ea0 f   ATI_Compress_MT:Codec_DXT5_RxBG.obj
 0001:00011fb0       ?ReadBlock@CCodec_DXT5_RxBG@@MAEXAAVCCodecBuffer@@KKQAM@Z 00412fb0 f   ATI_Compress_MT:Codec_DXT5_RxBG.obj
 0001:00012030       ?WriteBlock@CCodec_DXT5_RxBG@@MAEXAAVCCodecBuffer@@KKQAM@Z 00413030 f   ATI_Compress_MT:Codec_DXT5_RxBG.obj
 0001:000120b0       ??_ECCodec_DXT5_RxBG@@UAEPAXI@Z 004130b0 f i ATI_Compress_MT:Codec_DXT5_RxBG.obj
 0001:000120b0       ??_GCCodec_DXT5_RxBG@@UAEPAXI@Z 004130b0 f i ATI_Compress_MT:Codec_DXT5_RxBG.obj
 0001:000120e0       ??0CCodec_DXT5_xGBR@@QAE@XZ 004130e0 f   ATI_Compress_MT:Codec_DXT5_xGBR.obj
 0001:00012100       ??1CCodec_DXT5_xGBR@@UAE@XZ 00413100 f   ATI_Compress_MT:Codec_DXT5_xGBR.obj
 0001:00012110       ?ReadBlock@CCodec_DXT5_xGBR@@MAEXAAVCCodecBuffer@@KKQAE@Z 00413110 f   ATI_Compress_MT:Codec_DXT5_xGBR.obj
 0001:00012220       ?WriteBlock@CCodec_DXT5_xGBR@@MAEXAAVCCodecBuffer@@KKQAE@Z 00413220 f   ATI_Compress_MT:Codec_DXT5_xGBR.obj
 0001:00012330       ?ReadBlock@CCodec_DXT5_xGBR@@MAEXAAVCCodecBuffer@@KKQAM@Z 00413330 f   ATI_Compress_MT:Codec_DXT5_xGBR.obj
 0001:000123b0       ?WriteBlock@CCodec_DXT5_xGBR@@MAEXAAVCCodecBuffer@@KKQAM@Z 004133b0 f   ATI_Compress_MT:Codec_DXT5_xGBR.obj
 0001:00012440       ??_GCCodec_DXT5_xGBR@@UAEPAXI@Z 00413440 f i ATI_Compress_MT:Codec_DXT5_xGBR.obj
 0001:00012440       ??_ECCodec_DXT5_xGBR@@UAEPAXI@Z 00413440 f i ATI_Compress_MT:Codec_DXT5_xGBR.obj
 0001:00012470       ??0CCodec_DXT5@@QAE@XZ     00413470 f   ATI_Compress_MT:Codec_DXT5.obj
 0001:00012490       ??1CCodec_DXT5@@UAE@XZ     00413490 f   ATI_Compress_MT:Codec_DXT5.obj
 0001:000124a0       ?Compress@CCodec_DXT5@@UAE?AW4_CODECError@@AAVCCodecBuffer@@0P6A_NMKK@ZKK@Z 004134a0 f   ATI_Compress_MT:Codec_DXT5.obj
 0001:00012720       ?Compress_Fast@CCodec_DXT5@@UAE?AW4_CODECError@@AAVCCodecBuffer@@0P6A_NMKK@ZKK@Z 00413720 f   ATI_Compress_MT:Codec_DXT5.obj
 0001:000128c0       ?Compress_SuperFast@CCodec_DXT5@@UAE?AW4_CODECError@@AAVCCodecBuffer@@0P6A_NMKK@ZKK@Z 004138c0 f   ATI_Compress_MT:Codec_DXT5.obj
 0001:00012a60       ?Decompress@CCodec_DXT5@@UAE?AW4_CODECError@@AAVCCodecBuffer@@0@Z 00413a60 f   ATI_Compress_MT:Codec_DXT5.obj
 0001:00012bd0       ??_GCCodec_DXT5@@UAEPAXI@Z 00413bd0 f i ATI_Compress_MT:Codec_DXT5.obj
 0001:00012bd0       ??_ECCodec_DXT5@@UAEPAXI@Z 00413bd0 f i ATI_Compress_MT:Codec_DXT5.obj
 0001:00012c00       ??0CCodec_DXT3@@QAE@XZ     00413c00 f   ATI_Compress_MT:Codec_DXT3.obj
 0001:00012c20       ??1CCodec_DXT3@@UAE@XZ     00413c20 f   ATI_Compress_MT:Codec_DXT3.obj
 0001:00012c30       ?Compress@CCodec_DXT3@@UAE?AW4_CODECError@@AAVCCodecBuffer@@0P6A_NMKK@ZKK@Z 00413c30 f   ATI_Compress_MT:Codec_DXT3.obj
 0001:00012eb0       ?Compress_Fast@CCodec_DXT3@@UAE?AW4_CODECError@@AAVCCodecBuffer@@0P6A_NMKK@ZKK@Z 00413eb0 f   ATI_Compress_MT:Codec_DXT3.obj
 0001:00013050       ?Compress_SuperFast@CCodec_DXT3@@UAE?AW4_CODECError@@AAVCCodecBuffer@@0P6A_NMKK@ZKK@Z 00414050 f   ATI_Compress_MT:Codec_DXT3.obj
 0001:000131f0       ?Decompress@CCodec_DXT3@@UAE?AW4_CODECError@@AAVCCodecBuffer@@0@Z 004141f0 f   ATI_Compress_MT:Codec_DXT3.obj
 0001:00013360       ??_GCCodec_DXT3@@UAEPAXI@Z 00414360 f i ATI_Compress_MT:Codec_DXT3.obj
 0001:00013360       ??_ECCodec_DXT3@@UAEPAXI@Z 00414360 f i ATI_Compress_MT:Codec_DXT3.obj
 0001:00013390       ??0CCodec_DXT1@@QAE@XZ     00414390 f   ATI_Compress_MT:Codec_DXT1.obj
 0001:000133b0       ??1CCodec_DXT1@@UAE@XZ     004143b0 f   ATI_Compress_MT:Codec_DXT1.obj
 0001:000133c0       ?CreateBuffer@CCodec_DXT1@@UBEPAVCCodecBuffer@@KKKPAE@Z 004143c0 f   ATI_Compress_MT:Codec_DXT1.obj
 0001:000133f0       ?Compress@CCodec_DXT1@@UAE?AW4_CODECError@@AAVCCodecBuffer@@0P6A_NMKK@ZKK@Z 004143f0 f   ATI_Compress_MT:Codec_DXT1.obj
 0001:000136f0       ?Compress_Fast@CCodec_DXT1@@UAE?AW4_CODECError@@AAVCCodecBuffer@@0P6A_NMKK@ZKK@Z 004146f0 f   ATI_Compress_MT:Codec_DXT1.obj
 0001:00013880       ?Compress_SuperFast@CCodec_DXT1@@UAE?AW4_CODECError@@AAVCCodecBuffer@@0P6A_NMKK@ZKK@Z 00414880 f   ATI_Compress_MT:Codec_DXT1.obj
 0001:00013a10       ?Decompress@CCodec_DXT1@@UAE?AW4_CODECError@@AAVCCodecBuffer@@0@Z 00414a10 f   ATI_Compress_MT:Codec_DXT1.obj
 0001:00013b90       ?SetParameter@CCodec_DXT1@@UAE_NPBDK@Z 00414b90 f   ATI_Compress_MT:Codec_DXT1.obj
 0001:00013bf0       ?GetParameter@CCodec_DXT1@@UAE_NPBDAAK@Z 00414bf0 f   ATI_Compress_MT:Codec_DXT1.obj
 0001:00013c60       ??_GCCodec_DXT1@@UAEPAXI@Z 00414c60 f i ATI_Compress_MT:Codec_DXT1.obj
 0001:00013c60       ??_ECCodec_DXT1@@UAEPAXI@Z 00414c60 f i ATI_Compress_MT:Codec_DXT1.obj
 0001:00013c90       ?overflow@half@@CAMXZ      00414c90 f   ATI_Compress_MT:half.obj
 0001:00013cc0       ?convert@half@@CAFH@Z      00414cc0 f   ATI_Compress_MT:half.obj
 0001:00013d70       ?GetData@CCodecBuffer@@IBEPAEXZ 00414d70 f i ATI_Compress_MT:CodecBuffer_Block.obj
 0001:00013d80       ??0CCodecBuffer_Block@@QAE@W4_CodecBufferType@@KKKPAE@Z 00414d80 f   ATI_Compress_MT:CodecBuffer_Block.obj
 0001:00013ec0       ??1CCodecBuffer_Block@@UAE@XZ 00414ec0 f   ATI_Compress_MT:CodecBuffer_Block.obj
 0001:00013ed0       ?ReadBlock@CCodecBuffer_Block@@UAE_NKKPAKK@Z 00414ed0 f   ATI_Compress_MT:CodecBuffer_Block.obj
 0001:00013f40       ?WriteBlock@CCodecBuffer_Block@@UAE_NKKPAKK@Z 00414f40 f   ATI_Compress_MT:CodecBuffer_Block.obj
 0001:00013fb0       ?GetBufferType@CCodecBuffer_Block@@UBE?AW4_CodecBufferType@@XZ 00414fb0 f i ATI_Compress_MT:CodecBuffer_Block.obj
 0001:00013fc0       ?GetChannelDepth@CCodecBuffer_Block@@UBEKXZ 00414fc0 f i ATI_Compress_MT:CodecBuffer_Block.obj
 0001:00013fd0       ?GetChannelCount@CCodecBuffer_Block@@UBEKXZ 00414fd0 f i ATI_Compress_MT:CodecBuffer_Block.obj
 0001:00013fe0       ?IsFloat@CCodecBuffer_Block@@UBE_NXZ 00414fe0 f i ATI_Compress_MT:CodecBuffer_Block.obj
 0001:00013ff0       ??_GCCodecBuffer_Block@@UAEPAXI@Z 00414ff0 f i ATI_Compress_MT:CodecBuffer_Block.obj
 0001:00013ff0       ??_ECCodecBuffer_Block@@UAEPAXI@Z 00414ff0 f i ATI_Compress_MT:CodecBuffer_Block.obj
 0001:00014020       ??0CCodecBuffer_R32F@@QAE@KKKPAE@Z 00415020 f   ATI_Compress_MT:CodecBuffer_R32F.obj
 0001:00014080       ??1CCodecBuffer_R32F@@UAE@XZ 00415080 f   ATI_Compress_MT:CodecBuffer_R32F.obj
 0001:00014090       ?Copy@CCodecBuffer_R32F@@UAEXAAVCCodecBuffer@@@Z 00415090 f   ATI_Compress_MT:CodecBuffer_R32F.obj
 0001:00014150       ?WriteBlock@CCodecBuffer_R32F@@MAE_NKKEEQAMK@Z 00415150 f   ATI_Compress_MT:CodecBuffer_R32F.obj
 0001:00014290       ?ReadBlockA@CCodecBuffer_R32F@@UAE_NKKEEQAM@Z 00415290 f   ATI_Compress_MT:CodecBuffer_R32F.obj
 0001:000142d0       ?ReadBlockR@CCodecBuffer_R32F@@UAE_NKKEEQAM@Z 004152d0 f   ATI_Compress_MT:CodecBuffer_R32F.obj
 0001:00014300       ?ReadBlockG@CCodecBuffer_R32F@@UAE_NKKEEQAM@Z 00415300 f   ATI_Compress_MT:CodecBuffer_R32F.obj
 0001:00014340       ?ReadBlockB@CCodecBuffer_R32F@@UAE_NKKEEQAM@Z 00415340 f   ATI_Compress_MT:CodecBuffer_R32F.obj
 0001:00014380       ?WriteBlockA@CCodecBuffer_R32F@@UAE_NKKEEQAM@Z 00415380 f   ATI_Compress_MT:CodecBuffer_R32F.obj
 0001:000143a0       ?WriteBlockR@CCodecBuffer_R32F@@UAE_NKKEEQAM@Z 004153a0 f   ATI_Compress_MT:CodecBuffer_R32F.obj
 0001:000143d0       ?WriteBlockG@CCodecBuffer_R32F@@UAE_NKKEEQAM@Z 004153d0 f   ATI_Compress_MT:CodecBuffer_R32F.obj
 0001:000143f0       ?WriteBlockB@CCodecBuffer_R32F@@UAE_NKKEEQAM@Z 004153f0 f   ATI_Compress_MT:CodecBuffer_R32F.obj
 0001:00014410       ?WriteBlockRGBA@CCodecBuffer_R32F@@UAE_NKKEEQAM@Z 00415410 f   ATI_Compress_MT:CodecBuffer_R32F.obj
 0001:000144c0       ?ReadBlock@CCodecBuffer_R32F@@MAE_NKKEEQAMK@Z 004154c0 f   ATI_Compress_MT:CodecBuffer_R32F.obj
 0001:00014660       ?ReadBlockRGBA@CCodecBuffer_R32F@@UAE_NKKEEQAM@Z 00415660 f   ATI_Compress_MT:CodecBuffer_R32F.obj
 0001:00014840       ?GetBufferType@CCodecBuffer_R32F@@UBE?AW4_CodecBufferType@@XZ 00415840 f i ATI_Compress_MT:CodecBuffer_R32F.obj
 0001:00014850       ?GetChannelDepth@CCodecBuffer_R32F@@UBEKXZ 00415850 f i ATI_Compress_MT:CodecBuffer_R32F.obj
 0001:00014860       ?GetChannelCount@CCodecBuffer_R32F@@UBEKXZ 00415860 f i ATI_Compress_MT:CodecBuffer_R32F.obj
 0001:00014870       ?IsFloat@CCodecBuffer_R32F@@UBE_NXZ 00415870 f i ATI_Compress_MT:CodecBuffer_R32F.obj
 0001:00014880       ??$PadLine@M@@YAXKEEQAM@Z  00415880 f i ATI_Compress_MT:CodecBuffer_R32F.obj
 0001:000148e0       ??$PadBlock@M@@YAXKEEEQAM@Z 004158e0 f i ATI_Compress_MT:CodecBuffer_R32F.obj
 0001:00014950       ??_ECCodecBuffer_R32F@@UAEPAXI@Z 00415950 f i ATI_Compress_MT:CodecBuffer_R32F.obj
 0001:00014950       ??_GCCodecBuffer_R32F@@UAEPAXI@Z 00415950 f i ATI_Compress_MT:CodecBuffer_R32F.obj
 0001:00014980       ??0CCodecBuffer_RG32F@@QAE@KKKPAE@Z 00415980 f   ATI_Compress_MT:CodecBuffer_RG32F.obj
 0001:000149e0       ??1CCodecBuffer_RG32F@@UAE@XZ 004159e0 f   ATI_Compress_MT:CodecBuffer_RG32F.obj
 0001:000149f0       ?Copy@CCodecBuffer_RG32F@@UAEXAAVCCodecBuffer@@@Z 004159f0 f   ATI_Compress_MT:CodecBuffer_RG32F.obj
 0001:00014ab0       ?WriteBlock@CCodecBuffer_RG32F@@MAE_NKKEEQAMK@Z 00415ab0 f   ATI_Compress_MT:CodecBuffer_RG32F.obj
 0001:00014bf0       ?ReadBlockA@CCodecBuffer_RG32F@@UAE_NKKEEQAM@Z 00415bf0 f   ATI_Compress_MT:CodecBuffer_RG32F.obj
 0001:00014c30       ?ReadBlockR@CCodecBuffer_RG32F@@UAE_NKKEEQAM@Z 00415c30 f   ATI_Compress_MT:CodecBuffer_RG32F.obj
 0001:00014c60       ?ReadBlockG@CCodecBuffer_RG32F@@UAE_NKKEEQAM@Z 00415c60 f   ATI_Compress_MT:CodecBuffer_RG32F.obj
 0001:00014c90       ?ReadBlockB@CCodecBuffer_RG32F@@UAE_NKKEEQAM@Z 00415c90 f   ATI_Compress_MT:CodecBuffer_RG32F.obj
 0001:00014cd0       ?WriteBlockA@CCodecBuffer_RG32F@@UAE_NKKEEQAM@Z 00415cd0 f   ATI_Compress_MT:CodecBuffer_RG32F.obj
 0001:00014cf0       ?WriteBlockR@CCodecBuffer_RG32F@@UAE_NKKEEQAM@Z 00415cf0 f   ATI_Compress_MT:CodecBuffer_RG32F.obj
 0001:00014d20       ?WriteBlockG@CCodecBuffer_RG32F@@UAE_NKKEEQAM@Z 00415d20 f   ATI_Compress_MT:CodecBuffer_RG32F.obj
 0001:00014d50       ?WriteBlockB@CCodecBuffer_RG32F@@UAE_NKKEEQAM@Z 00415d50 f   ATI_Compress_MT:CodecBuffer_RG32F.obj
 0001:00014d70       ?WriteBlockRGBA@CCodecBuffer_RG32F@@UAE_NKKEEQAM@Z 00415d70 f   ATI_Compress_MT:CodecBuffer_RG32F.obj
 0001:00014e30       ?ReadBlock@CCodecBuffer_RG32F@@MAE_NKKEEQAMK@Z 00415e30 f   ATI_Compress_MT:CodecBuffer_RG32F.obj
 0001:00014fd0       ?ReadBlockRGBA@CCodecBuffer_RG32F@@UAE_NKKEEQAM@Z 00415fd0 f   ATI_Compress_MT:CodecBuffer_RG32F.obj
 0001:000151f0       ?GetBufferType@CCodecBuffer_RG32F@@UBE?AW4_CodecBufferType@@XZ 004161f0 f i ATI_Compress_MT:CodecBuffer_RG32F.obj
 0001:00015200       ?GetChannelDepth@CCodecBuffer_RG32F@@UBEKXZ 00416200 f i ATI_Compress_MT:CodecBuffer_RG32F.obj
 0001:00015210       ?GetChannelCount@CCodecBuffer_RG32F@@UBEKXZ 00416210 f i ATI_Compress_MT:CodecBuffer_RG32F.obj
 0001:00015220       ?IsFloat@CCodecBuffer_RG32F@@UBE_NXZ 00416220 f i ATI_Compress_MT:CodecBuffer_RG32F.obj
 0001:00015230       ??_GCCodecBuffer_RG32F@@UAEPAXI@Z 00416230 f i ATI_Compress_MT:CodecBuffer_RG32F.obj
 0001:00015230       ??_ECCodecBuffer_RG32F@@UAEPAXI@Z 00416230 f i ATI_Compress_MT:CodecBuffer_RG32F.obj
 0001:00015260       ??0CCodecBuffer_RGBA32F@@QAE@KKKPAE@Z 00416260 f   ATI_Compress_MT:CodecBuffer_RGBA32F.obj
 0001:000152c0       ??1CCodecBuffer_RGBA32F@@UAE@XZ 004162c0 f   ATI_Compress_MT:CodecBuffer_RGBA32F.obj
 0001:000152d0       ?Copy@CCodecBuffer_RGBA32F@@UAEXAAVCCodecBuffer@@@Z 004162d0 f   ATI_Compress_MT:CodecBuffer_RGBA32F.obj
 0001:00015390       ?WriteBlock@CCodecBuffer_RGBA32F@@MAE_NKKEEQAMK@Z 00416390 f   ATI_Compress_MT:CodecBuffer_RGBA32F.obj
 0001:000154d0       ?ReadBlockA@CCodecBuffer_RGBA32F@@UAE_NKKEEQAM@Z 004164d0 f   ATI_Compress_MT:CodecBuffer_RGBA32F.obj
 0001:00015500       ?ReadBlockR@CCodecBuffer_RGBA32F@@UAE_NKKEEQAM@Z 00416500 f   ATI_Compress_MT:CodecBuffer_RGBA32F.obj
 0001:00015530       ?ReadBlockG@CCodecBuffer_RGBA32F@@UAE_NKKEEQAM@Z 00416530 f   ATI_Compress_MT:CodecBuffer_RGBA32F.obj
 0001:00015560       ?ReadBlockB@CCodecBuffer_RGBA32F@@UAE_NKKEEQAM@Z 00416560 f   ATI_Compress_MT:CodecBuffer_RGBA32F.obj
 0001:00015590       ?WriteBlockA@CCodecBuffer_RGBA32F@@UAE_NKKEEQAM@Z 00416590 f   ATI_Compress_MT:CodecBuffer_RGBA32F.obj
 0001:000155c0       ?WriteBlockR@CCodecBuffer_RGBA32F@@UAE_NKKEEQAM@Z 004165c0 f   ATI_Compress_MT:CodecBuffer_RGBA32F.obj
 0001:000155f0       ?WriteBlockG@CCodecBuffer_RGBA32F@@UAE_NKKEEQAM@Z 004165f0 f   ATI_Compress_MT:CodecBuffer_RGBA32F.obj
 0001:00015620       ?WriteBlockB@CCodecBuffer_RGBA32F@@UAE_NKKEEQAM@Z 00416620 f   ATI_Compress_MT:CodecBuffer_RGBA32F.obj
 0001:00015650       ?WriteBlockRGBA@CCodecBuffer_RGBA32F@@UAE_NKKEEQAM@Z 00416650 f   ATI_Compress_MT:CodecBuffer_RGBA32F.obj
 0001:000156e0       ?ReadBlock@CCodecBuffer_RGBA32F@@MAE_NKKEEQAMK@Z 004166e0 f   ATI_Compress_MT:CodecBuffer_RGBA32F.obj
 0001:00015880       ?ReadBlockRGBA@CCodecBuffer_RGBA32F@@UAE_NKKEEQAM@Z 00416880 f   ATI_Compress_MT:CodecBuffer_RGBA32F.obj
 0001:000159d0       ?GetBufferType@CCodecBuffer_RGBA32F@@UBE?AW4_CodecBufferType@@XZ 004169d0 f i ATI_Compress_MT:CodecBuffer_RGBA32F.obj
 0001:000159e0       ?GetChannelDepth@CCodecBuffer_RGBA32F@@UBEKXZ 004169e0 f i ATI_Compress_MT:CodecBuffer_RGBA32F.obj
 0001:000159f0       ?GetChannelCount@CCodecBuffer_RGBA32F@@UBEKXZ 004169f0 f i ATI_Compress_MT:CodecBuffer_RGBA32F.obj
 0001:00015a00       ?IsFloat@CCodecBuffer_RGBA32F@@UBE_NXZ 00416a00 f i ATI_Compress_MT:CodecBuffer_RGBA32F.obj
 0001:00015a10       ??_GCCodecBuffer_RGBA32F@@UAEPAXI@Z 00416a10 f i ATI_Compress_MT:CodecBuffer_RGBA32F.obj
 0001:00015a10       ??_ECCodecBuffer_RGBA32F@@UAEPAXI@Z 00416a10 f i ATI_Compress_MT:CodecBuffer_RGBA32F.obj
 0001:00015a40       ??0CCodecBuffer_R32@@QAE@KKKPAE@Z 00416a40 f   ATI_Compress_MT:CodecBuffer_R32.obj
 0001:00015aa0       ??1CCodecBuffer_R32@@UAE@XZ 00416aa0 f   ATI_Compress_MT:CodecBuffer_R32.obj
 0001:00015ab0       ?Copy@CCodecBuffer_R32@@UAEXAAVCCodecBuffer@@@Z 00416ab0 f   ATI_Compress_MT:CodecBuffer_R32.obj
 0001:00015b70       ?WriteBlock@CCodecBuffer_R32@@MAE_NKKEEQAKK@Z 00416b70 f   ATI_Compress_MT:CodecBuffer_R32.obj
 0001:00015c30       ?ReadBlockA@CCodecBuffer_R32@@UAE_NKKEEQAK@Z 00416c30 f   ATI_Compress_MT:CodecBuffer_R32.obj
 0001:00015c70       ?ReadBlockR@CCodecBuffer_R32@@UAE_NKKEEQAK@Z 00416c70 f   ATI_Compress_MT:CodecBuffer_R32.obj
 0001:00015ca0       ?ReadBlockG@CCodecBuffer_R32@@UAE_NKKEEQAK@Z 00416ca0 f   ATI_Compress_MT:CodecBuffer_R32.obj
 0001:00015ce0       ?ReadBlockB@CCodecBuffer_R32@@UAE_NKKEEQAK@Z 00416ce0 f   ATI_Compress_MT:CodecBuffer_R32.obj
 0001:00015d20       ?WriteBlockA@CCodecBuffer_R32@@UAE_NKKEEQAK@Z 00416d20 f   ATI_Compress_MT:CodecBuffer_R32.obj
 0001:00015d40       ?WriteBlockR@CCodecBuffer_R32@@UAE_NKKEEQAK@Z 00416d40 f   ATI_Compress_MT:CodecBuffer_R32.obj
 0001:00015d70       ?WriteBlockG@CCodecBuffer_R32@@UAE_NKKEEQAK@Z 00416d70 f   ATI_Compress_MT:CodecBuffer_R32.obj
 0001:00015d90       ?WriteBlockB@CCodecBuffer_R32@@UAE_NKKEEQAK@Z 00416d90 f   ATI_Compress_MT:CodecBuffer_R32.obj
 0001:00015db0       ?WriteBlockRGBA@CCodecBuffer_R32@@UAE_NKKEEQAK@Z 00416db0 f   ATI_Compress_MT:CodecBuffer_R32.obj
 0001:00015e60       ?ReadBlock@CCodecBuffer_R32@@MAE_NKKEEQAKK@Z 00416e60 f   ATI_Compress_MT:CodecBuffer_R32.obj
 0001:00015fc0       ?ReadBlockRGBA@CCodecBuffer_R32@@UAE_NKKEEQAK@Z 00416fc0 f   ATI_Compress_MT:CodecBuffer_R32.obj
 0001:00016120       ?GetBufferType@CCodecBuffer_R32@@UBE?AW4_CodecBufferType@@XZ 00417120 f i ATI_Compress_MT:CodecBuffer_R32.obj
 0001:00016130       ?GetChannelDepth@CCodecBuffer_R32@@UBEKXZ 00417130 f i ATI_Compress_MT:CodecBuffer_R32.obj
 0001:00016140       ?GetChannelCount@CCodecBuffer_R32@@UBEKXZ 00417140 f i ATI_Compress_MT:CodecBuffer_R32.obj
 0001:00016150       ?IsFloat@CCodecBuffer_R32@@UBE_NXZ 00417150 f i ATI_Compress_MT:CodecBuffer_R32.obj
 0001:00016160       ??$PadLine@K@@YAXKEEQAK@Z  00417160 f i ATI_Compress_MT:CodecBuffer_R32.obj
 0001:000161c0       ??$PadBlock@K@@YAXKEEEQAK@Z 004171c0 f i ATI_Compress_MT:CodecBuffer_R32.obj
 0001:00016230       ??_ECCodecBuffer_R32@@UAEPAXI@Z 00417230 f i ATI_Compress_MT:CodecBuffer_R32.obj
 0001:00016230       ??_GCCodecBuffer_R32@@UAEPAXI@Z 00417230 f i ATI_Compress_MT:CodecBuffer_R32.obj
 0001:00016260       ??0CCodecBuffer_RG32@@QAE@KKKPAE@Z 00417260 f   ATI_Compress_MT:CodecBuffer_RG32.obj
 0001:000162c0       ??1CCodecBuffer_RG32@@UAE@XZ 004172c0 f   ATI_Compress_MT:CodecBuffer_RG32.obj
 0001:000162d0       ?Copy@CCodecBuffer_RG32@@UAEXAAVCCodecBuffer@@@Z 004172d0 f   ATI_Compress_MT:CodecBuffer_RG32.obj
 0001:00016390       ?WriteBlock@CCodecBuffer_RG32@@MAE_NKKEEQAKK@Z 00417390 f   ATI_Compress_MT:CodecBuffer_RG32.obj
 0001:00016450       ?ReadBlockA@CCodecBuffer_RG32@@UAE_NKKEEQAK@Z 00417450 f   ATI_Compress_MT:CodecBuffer_RG32.obj
 0001:00016490       ?ReadBlockR@CCodecBuffer_RG32@@UAE_NKKEEQAK@Z 00417490 f   ATI_Compress_MT:CodecBuffer_RG32.obj
 0001:000164c0       ?ReadBlockG@CCodecBuffer_RG32@@UAE_NKKEEQAK@Z 004174c0 f   ATI_Compress_MT:CodecBuffer_RG32.obj
 0001:000164f0       ?ReadBlockB@CCodecBuffer_RG32@@UAE_NKKEEQAK@Z 004174f0 f   ATI_Compress_MT:CodecBuffer_RG32.obj
 0001:00016530       ?WriteBlockA@CCodecBuffer_RG32@@UAE_NKKEEQAK@Z 00417530 f   ATI_Compress_MT:CodecBuffer_RG32.obj
 0001:00016550       ?WriteBlockR@CCodecBuffer_RG32@@UAE_NKKEEQAK@Z 00417550 f   ATI_Compress_MT:CodecBuffer_RG32.obj
 0001:00016580       ?WriteBlockG@CCodecBuffer_RG32@@UAE_NKKEEQAK@Z 00417580 f   ATI_Compress_MT:CodecBuffer_RG32.obj
 0001:000165b0       ?WriteBlockB@CCodecBuffer_RG32@@UAE_NKKEEQAK@Z 004175b0 f   ATI_Compress_MT:CodecBuffer_RG32.obj
 0001:000165d0       ?WriteBlockRGBA@CCodecBuffer_RG32@@UAE_NKKEEQAK@Z 004175d0 f   ATI_Compress_MT:CodecBuffer_RG32.obj
 0001:00016690       ?ReadBlock@CCodecBuffer_RG32@@MAE_NKKEEQAKK@Z 00417690 f   ATI_Compress_MT:CodecBuffer_RG32.obj
 0001:000167f0       ?ReadBlockRGBA@CCodecBuffer_RG32@@UAE_NKKEEQAK@Z 004177f0 f   ATI_Compress_MT:CodecBuffer_RG32.obj
 0001:00016950       ?GetBufferType@CCodecBuffer_RG32@@UBE?AW4_CodecBufferType@@XZ 00417950 f i ATI_Compress_MT:CodecBuffer_RG32.obj
 0001:00016960       ?GetChannelDepth@CCodecBuffer_RG32@@UBEKXZ 00417960 f i ATI_Compress_MT:CodecBuffer_RG32.obj
 0001:00016970       ?GetChannelCount@CCodecBuffer_RG32@@UBEKXZ 00417970 f i ATI_Compress_MT:CodecBuffer_RG32.obj
 0001:00016980       ?IsFloat@CCodecBuffer_RG32@@UBE_NXZ 00417980 f i ATI_Compress_MT:CodecBuffer_RG32.obj
 0001:00016990       ??_ECCodecBuffer_RG32@@UAEPAXI@Z 00417990 f i ATI_Compress_MT:CodecBuffer_RG32.obj
 0001:00016990       ??_GCCodecBuffer_RG32@@UAEPAXI@Z 00417990 f i ATI_Compress_MT:CodecBuffer_RG32.obj
 0001:000169c0       ??0CCodecBuffer_RGBA32@@QAE@KKKPAE@Z 004179c0 f   ATI_Compress_MT:CodecBuffer_RGBA32.obj
 0001:00016a20       ??1CCodecBuffer_RGBA32@@UAE@XZ 00417a20 f   ATI_Compress_MT:CodecBuffer_RGBA32.obj
 0001:00016a30       ?Copy@CCodecBuffer_RGBA32@@UAEXAAVCCodecBuffer@@@Z 00417a30 f   ATI_Compress_MT:CodecBuffer_RGBA32.obj
 0001:00016af0       ?WriteBlock@CCodecBuffer_RGBA32@@MAE_NKKEEQAKK@Z 00417af0 f   ATI_Compress_MT:CodecBuffer_RGBA32.obj
 0001:00016bb0       ?ReadBlockA@CCodecBuffer_RGBA32@@UAE_NKKEEQAK@Z 00417bb0 f   ATI_Compress_MT:CodecBuffer_RGBA32.obj
 0001:00016be0       ?ReadBlockR@CCodecBuffer_RGBA32@@UAE_NKKEEQAK@Z 00417be0 f   ATI_Compress_MT:CodecBuffer_RGBA32.obj
 0001:00016c10       ?ReadBlockG@CCodecBuffer_RGBA32@@UAE_NKKEEQAK@Z 00417c10 f   ATI_Compress_MT:CodecBuffer_RGBA32.obj
 0001:00016c40       ?ReadBlockB@CCodecBuffer_RGBA32@@UAE_NKKEEQAK@Z 00417c40 f   ATI_Compress_MT:CodecBuffer_RGBA32.obj
 0001:00016c70       ?WriteBlockA@CCodecBuffer_RGBA32@@UAE_NKKEEQAK@Z 00417c70 f   ATI_Compress_MT:CodecBuffer_RGBA32.obj
 0001:00016ca0       ?WriteBlockR@CCodecBuffer_RGBA32@@UAE_NKKEEQAK@Z 00417ca0 f   ATI_Compress_MT:CodecBuffer_RGBA32.obj
 0001:00016cd0       ?WriteBlockG@CCodecBuffer_RGBA32@@UAE_NKKEEQAK@Z 00417cd0 f   ATI_Compress_MT:CodecBuffer_RGBA32.obj
 0001:00016d00       ?WriteBlockB@CCodecBuffer_RGBA32@@UAE_NKKEEQAK@Z 00417d00 f   ATI_Compress_MT:CodecBuffer_RGBA32.obj
 0001:00016d30       ?WriteBlockRGBA@CCodecBuffer_RGBA32@@UAE_NKKEEQAK@Z 00417d30 f   ATI_Compress_MT:CodecBuffer_RGBA32.obj
 0001:00016dc0       ?ReadBlock@CCodecBuffer_RGBA32@@MAE_NKKEEQAKK@Z 00417dc0 f   ATI_Compress_MT:CodecBuffer_RGBA32.obj
 0001:00016f20       ?ReadBlockRGBA@CCodecBuffer_RGBA32@@UAE_NKKEEQAK@Z 00417f20 f   ATI_Compress_MT:CodecBuffer_RGBA32.obj
 0001:00017070       ?GetBufferType@CCodecBuffer_RGBA32@@UBE?AW4_CodecBufferType@@XZ 00418070 f i ATI_Compress_MT:CodecBuffer_RGBA32.obj
 0001:00017080       ?GetChannelDepth@CCodecBuffer_RGBA32@@UBEKXZ 00418080 f i ATI_Compress_MT:CodecBuffer_RGBA32.obj
 0001:00017090       ?GetChannelCount@CCodecBuffer_RGBA32@@UBEKXZ 00418090 f i ATI_Compress_MT:CodecBuffer_RGBA32.obj
 0001:000170a0       ?IsFloat@CCodecBuffer_RGBA32@@UBE_NXZ 004180a0 f i ATI_Compress_MT:CodecBuffer_RGBA32.obj
 0001:000170b0       ??_ECCodecBuffer_RGBA32@@UAEPAXI@Z 004180b0 f i ATI_Compress_MT:CodecBuffer_RGBA32.obj
 0001:000170b0       ??_GCCodecBuffer_RGBA32@@UAEPAXI@Z 004180b0 f i ATI_Compress_MT:CodecBuffer_RGBA32.obj
 0001:000170e0       ??0CCodecBuffer_R16F@@QAE@KKKPAE@Z 004180e0 f   ATI_Compress_MT:CodecBuffer_R16F.obj
 0001:00017130       ??1CCodecBuffer_R16F@@UAE@XZ 00418130 f   ATI_Compress_MT:CodecBuffer_R16F.obj
 0001:00017140       ?WriteBlock@CCodecBuffer_R16F@@MAE_NKKEEQAVhalf@@K@Z 00418140 f   ATI_Compress_MT:CodecBuffer_R16F.obj
 0001:00017200       ?ReadBlockA@CCodecBuffer_R16F@@UAE_NKKEEQAVhalf@@@Z 00418200 f   ATI_Compress_MT:CodecBuffer_R16F.obj
 0001:00017240       ?ReadBlockR@CCodecBuffer_R16F@@UAE_NKKEEQAVhalf@@@Z 00418240 f   ATI_Compress_MT:CodecBuffer_R16F.obj
 0001:00017270       ?ReadBlockG@CCodecBuffer_R16F@@UAE_NKKEEQAVhalf@@@Z 00418270 f   ATI_Compress_MT:CodecBuffer_R16F.obj
 0001:000172b0       ?ReadBlockB@CCodecBuffer_R16F@@UAE_NKKEEQAVhalf@@@Z 004182b0 f   ATI_Compress_MT:CodecBuffer_R16F.obj
 0001:000172f0       ?WriteBlockA@CCodecBuffer_R16F@@UAE_NKKEEQAVhalf@@@Z 004182f0 f   ATI_Compress_MT:CodecBuffer_R16F.obj
 0001:00017310       ?WriteBlockR@CCodecBuffer_R16F@@UAE_NKKEEQAVhalf@@@Z 00418310 f   ATI_Compress_MT:CodecBuffer_R16F.obj
 0001:00017340       ?WriteBlockG@CCodecBuffer_R16F@@UAE_NKKEEQAVhalf@@@Z 00418340 f   ATI_Compress_MT:CodecBuffer_R16F.obj
 0001:00017360       ?WriteBlockB@CCodecBuffer_R16F@@UAE_NKKEEQAVhalf@@@Z 00418360 f   ATI_Compress_MT:CodecBuffer_R16F.obj
 0001:00017380       ?WriteBlockRGBA@CCodecBuffer_R16F@@UAE_NKKEEQAVhalf@@@Z 00418380 f   ATI_Compress_MT:CodecBuffer_R16F.obj
 0001:00017440       ?Copy@CCodecBuffer_R16F@@UAEXAAVCCodecBuffer@@@Z 00418440 f   ATI_Compress_MT:CodecBuffer_R16F.obj
 0001:00017520       ?ReadBlock@CCodecBuffer_R16F@@MAE_NKKEEQAVhalf@@K@Z 00418520 f   ATI_Compress_MT:CodecBuffer_R16F.obj
 0001:00017680       ?ReadBlockRGBA@CCodecBuffer_R16F@@UAE_NKKEEQAVhalf@@@Z 00418680 f   ATI_Compress_MT:CodecBuffer_R16F.obj
 0001:00017850       ?GetBufferType@CCodecBuffer_R16F@@UBE?AW4_CodecBufferType@@XZ 00418850 f i ATI_Compress_MT:CodecBuffer_R16F.obj
 0001:00017860       ?GetChannelDepth@CCodecBuffer_R16F@@UBEKXZ 00418860 f i ATI_Compress_MT:CodecBuffer_R16F.obj
 0001:00017870       ?GetChannelCount@CCodecBuffer_R16F@@UBEKXZ 00418870 f i ATI_Compress_MT:CodecBuffer_R16F.obj
 0001:00017880       ?IsFloat@CCodecBuffer_R16F@@UBE_NXZ 00418880 f i ATI_Compress_MT:CodecBuffer_R16F.obj
 0001:00017890       ??$PadLine@Vhalf@@@@YAXKEEQAVhalf@@@Z 00418890 f i ATI_Compress_MT:CodecBuffer_R16F.obj
 0001:000178f0       ??$PadBlock@Vhalf@@@@YAXKEEEQAVhalf@@@Z 004188f0 f i ATI_Compress_MT:CodecBuffer_R16F.obj
 0001:00017960       ??_GCCodecBuffer_R16F@@UAEPAXI@Z 00418960 f i ATI_Compress_MT:CodecBuffer_R16F.obj
 0001:00017960       ??_ECCodecBuffer_R16F@@UAEPAXI@Z 00418960 f i ATI_Compress_MT:CodecBuffer_R16F.obj
 0001:00017990       ??0CCodecBuffer_RG16F@@QAE@KKKPAE@Z 00418990 f   ATI_Compress_MT:CodecBuffer_RG16F.obj
 0001:000179f0       ??1CCodecBuffer_RG16F@@UAE@XZ 004189f0 f   ATI_Compress_MT:CodecBuffer_RG16F.obj
 0001:00017a00       ?WriteBlock@CCodecBuffer_RG16F@@MAE_NKKEEQAVhalf@@K@Z 00418a00 f   ATI_Compress_MT:CodecBuffer_RG16F.obj
 0001:00017ac0       ?ReadBlockA@CCodecBuffer_RG16F@@UAE_NKKEEQAVhalf@@@Z 00418ac0 f   ATI_Compress_MT:CodecBuffer_RG16F.obj
 0001:00017b00       ?ReadBlockR@CCodecBuffer_RG16F@@UAE_NKKEEQAVhalf@@@Z 00418b00 f   ATI_Compress_MT:CodecBuffer_RG16F.obj
 0001:00017b30       ?ReadBlockG@CCodecBuffer_RG16F@@UAE_NKKEEQAVhalf@@@Z 00418b30 f   ATI_Compress_MT:CodecBuffer_RG16F.obj
 0001:00017b60       ?ReadBlockB@CCodecBuffer_RG16F@@UAE_NKKEEQAVhalf@@@Z 00418b60 f   ATI_Compress_MT:CodecBuffer_RG16F.obj
 0001:00017ba0       ?WriteBlockA@CCodecBuffer_RG16F@@UAE_NKKEEQAVhalf@@@Z 00418ba0 f   ATI_Compress_MT:CodecBuffer_RG16F.obj
 0001:00017bc0       ?WriteBlockR@CCodecBuffer_RG16F@@UAE_NKKEEQAVhalf@@@Z 00418bc0 f   ATI_Compress_MT:CodecBuffer_RG16F.obj
 0001:00017bf0       ?WriteBlockG@CCodecBuffer_RG16F@@UAE_NKKEEQAVhalf@@@Z 00418bf0 f   ATI_Compress_MT:CodecBuffer_RG16F.obj
 0001:00017c20       ?WriteBlockB@CCodecBuffer_RG16F@@UAE_NKKEEQAVhalf@@@Z 00418c20 f   ATI_Compress_MT:CodecBuffer_RG16F.obj
 0001:00017c40       ?WriteBlockRGBA@CCodecBuffer_RG16F@@UAE_NKKEEQAVhalf@@@Z 00418c40 f   ATI_Compress_MT:CodecBuffer_RG16F.obj
 0001:00017d00       ?Copy@CCodecBuffer_RG16F@@UAEXAAVCCodecBuffer@@@Z 00418d00 f   ATI_Compress_MT:CodecBuffer_RG16F.obj
 0001:00017de0       ?ReadBlock@CCodecBuffer_RG16F@@MAE_NKKEEQAVhalf@@K@Z 00418de0 f   ATI_Compress_MT:CodecBuffer_RG16F.obj
 0001:00017f40       ?ReadBlockRGBA@CCodecBuffer_RG16F@@UAE_NKKEEQAVhalf@@@Z 00418f40 f   ATI_Compress_MT:CodecBuffer_RG16F.obj
 0001:00018100       ?GetBufferType@CCodecBuffer_RG16F@@UBE?AW4_CodecBufferType@@XZ 00419100 f i ATI_Compress_MT:CodecBuffer_RG16F.obj
 0001:00018110       ?GetChannelDepth@CCodecBuffer_RG16F@@UBEKXZ 00419110 f i ATI_Compress_MT:CodecBuffer_RG16F.obj
 0001:00018120       ?GetChannelCount@CCodecBuffer_RG16F@@UBEKXZ 00419120 f i ATI_Compress_MT:CodecBuffer_RG16F.obj
 0001:00018130       ?IsFloat@CCodecBuffer_RG16F@@UBE_NXZ 00419130 f i ATI_Compress_MT:CodecBuffer_RG16F.obj
 0001:00018140       ??_GCCodecBuffer_RG16F@@UAEPAXI@Z 00419140 f i ATI_Compress_MT:CodecBuffer_RG16F.obj
 0001:00018140       ??_ECCodecBuffer_RG16F@@UAEPAXI@Z 00419140 f i ATI_Compress_MT:CodecBuffer_RG16F.obj
 0001:00018170       ??0CCodecBuffer_RGBA16F@@QAE@KKKPAE@Z 00419170 f   ATI_Compress_MT:CodecBuffer_RGBA16F.obj
 0001:000181d0       ??1CCodecBuffer_RGBA16F@@UAE@XZ 004191d0 f   ATI_Compress_MT:CodecBuffer_RGBA16F.obj
 0001:000181e0       ?WriteBlock@CCodecBuffer_RGBA16F@@MAE_NKKEEQAVhalf@@K@Z 004191e0 f   ATI_Compress_MT:CodecBuffer_RGBA16F.obj
 0001:000182a0       ?ReadBlockA@CCodecBuffer_RGBA16F@@UAE_NKKEEQAVhalf@@@Z 004192a0 f   ATI_Compress_MT:CodecBuffer_RGBA16F.obj
 0001:000182d0       ?ReadBlockR@CCodecBuffer_RGBA16F@@UAE_NKKEEQAVhalf@@@Z 004192d0 f   ATI_Compress_MT:CodecBuffer_RGBA16F.obj
 0001:00018300       ?ReadBlockG@CCodecBuffer_RGBA16F@@UAE_NKKEEQAVhalf@@@Z 00419300 f   ATI_Compress_MT:CodecBuffer_RGBA16F.obj
 0001:00018330       ?ReadBlockB@CCodecBuffer_RGBA16F@@UAE_NKKEEQAVhalf@@@Z 00419330 f   ATI_Compress_MT:CodecBuffer_RGBA16F.obj
 0001:00018360       ?WriteBlockA@CCodecBuffer_RGBA16F@@UAE_NKKEEQAVhalf@@@Z 00419360 f   ATI_Compress_MT:CodecBuffer_RGBA16F.obj
 0001:00018390       ?WriteBlockR@CCodecBuffer_RGBA16F@@UAE_NKKEEQAVhalf@@@Z 00419390 f   ATI_Compress_MT:CodecBuffer_RGBA16F.obj
 0001:000183c0       ?WriteBlockG@CCodecBuffer_RGBA16F@@UAE_NKKEEQAVhalf@@@Z 004193c0 f   ATI_Compress_MT:CodecBuffer_RGBA16F.obj
 0001:000183f0       ?WriteBlockB@CCodecBuffer_RGBA16F@@UAE_NKKEEQAVhalf@@@Z 004193f0 f   ATI_Compress_MT:CodecBuffer_RGBA16F.obj
 0001:00018420       ?WriteBlockRGBA@CCodecBuffer_RGBA16F@@UAE_NKKEEQAVhalf@@@Z 00419420 f   ATI_Compress_MT:CodecBuffer_RGBA16F.obj
 0001:000184c0       ?Copy@CCodecBuffer_RGBA16F@@UAEXAAVCCodecBuffer@@@Z 004194c0 f   ATI_Compress_MT:CodecBuffer_RGBA16F.obj
 0001:000185a0       ?ReadBlock@CCodecBuffer_RGBA16F@@MAE_NKKEEQAVhalf@@K@Z 004195a0 f   ATI_Compress_MT:CodecBuffer_RGBA16F.obj
 0001:00018700       ?ReadBlockRGBA@CCodecBuffer_RGBA16F@@UAE_NKKEEQAVhalf@@@Z 00419700 f   ATI_Compress_MT:CodecBuffer_RGBA16F.obj
 0001:00018840       ?GetBufferType@CCodecBuffer_RGBA16F@@UBE?AW4_CodecBufferType@@XZ 00419840 f i ATI_Compress_MT:CodecBuffer_RGBA16F.obj
 0001:00018850       ?GetChannelDepth@CCodecBuffer_RGBA16F@@UBEKXZ 00419850 f i ATI_Compress_MT:CodecBuffer_RGBA16F.obj
 0001:00018860       ?GetChannelCount@CCodecBuffer_RGBA16F@@UBEKXZ 00419860 f i ATI_Compress_MT:CodecBuffer_RGBA16F.obj
 0001:00018870       ?IsFloat@CCodecBuffer_RGBA16F@@UBE_NXZ 00419870 f i ATI_Compress_MT:CodecBuffer_RGBA16F.obj
 0001:00018880       ??_GCCodecBuffer_RGBA16F@@UAEPAXI@Z 00419880 f i ATI_Compress_MT:CodecBuffer_RGBA16F.obj
 0001:00018880       ??_ECCodecBuffer_RGBA16F@@UAEPAXI@Z 00419880 f i ATI_Compress_MT:CodecBuffer_RGBA16F.obj
 0001:000188b0       ??0CCodecBuffer_R16@@QAE@KKKPAE@Z 004198b0 f   ATI_Compress_MT:CodecBuffer_R16.obj
 0001:00018900       ??1CCodecBuffer_R16@@UAE@XZ 00419900 f   ATI_Compress_MT:CodecBuffer_R16.obj
 0001:00018910       ?Copy@CCodecBuffer_R16@@UAEXAAVCCodecBuffer@@@Z 00419910 f   ATI_Compress_MT:CodecBuffer_R16.obj
 0001:000189f0       ?WriteBlock@CCodecBuffer_R16@@MAE_NKKEEQAG@Z 004199f0 f   ATI_Compress_MT:CodecBuffer_R16.obj
 0001:00018ab0       ?ReadBlockA@CCodecBuffer_R16@@UAE_NKKEEQAG@Z 00419ab0 f   ATI_Compress_MT:CodecBuffer_R16.obj
 0001:00018af0       ?ReadBlockR@CCodecBuffer_R16@@UAE_NKKEEQAG@Z 00419af0 f   ATI_Compress_MT:CodecBuffer_R16.obj
 0001:00018b00       ?ReadBlockG@CCodecBuffer_R16@@UAE_NKKEEQAG@Z 00419b00 f   ATI_Compress_MT:CodecBuffer_R16.obj
 0001:00018b40       ?ReadBlockB@CCodecBuffer_R16@@UAE_NKKEEQAG@Z 00419b40 f   ATI_Compress_MT:CodecBuffer_R16.obj
 0001:00018b80       ?WriteBlockA@CCodecBuffer_R16@@UAE_NKKEEQAG@Z 00419b80 f   ATI_Compress_MT:CodecBuffer_R16.obj
 0001:00018ba0       ?WriteBlockR@CCodecBuffer_R16@@UAE_NKKEEQAG@Z 00419ba0 f   ATI_Compress_MT:CodecBuffer_R16.obj
 0001:00018bb0       ?WriteBlockG@CCodecBuffer_R16@@UAE_NKKEEQAG@Z 00419bb0 f   ATI_Compress_MT:CodecBuffer_R16.obj
 0001:00018bd0       ?WriteBlockB@CCodecBuffer_R16@@UAE_NKKEEQAG@Z 00419bd0 f   ATI_Compress_MT:CodecBuffer_R16.obj
 0001:00018bf0       ?WriteBlockRGBA@CCodecBuffer_R16@@UAE_NKKEEQAG@Z 00419bf0 f   ATI_Compress_MT:CodecBuffer_R16.obj
 0001:00018cb0       ?ReadBlock@CCodecBuffer_R16@@MAE_NKKEEQAG@Z 00419cb0 f   ATI_Compress_MT:CodecBuffer_R16.obj
 0001:00018df0       ?ReadBlockRGBA@CCodecBuffer_R16@@UAE_NKKEEQAG@Z 00419df0 f   ATI_Compress_MT:CodecBuffer_R16.obj
 0001:00018f40       ?GetBufferType@CCodecBuffer_R16@@UBE?AW4_CodecBufferType@@XZ 00419f40 f i ATI_Compress_MT:CodecBuffer_R16.obj
 0001:00018f50       ?GetChannelDepth@CCodecBuffer_R16@@UBEKXZ 00419f50 f i ATI_Compress_MT:CodecBuffer_R16.obj
 0001:00018f60       ?GetChannelCount@CCodecBuffer_R16@@UBEKXZ 00419f60 f i ATI_Compress_MT:CodecBuffer_R16.obj
 0001:00018f70       ?IsFloat@CCodecBuffer_R16@@UBE_NXZ 00419f70 f i ATI_Compress_MT:CodecBuffer_R16.obj
 0001:00018f80       ??$PadLine@G@@YAXKEEQAG@Z  00419f80 f i ATI_Compress_MT:CodecBuffer_R16.obj
 0001:00018fe0       ??$PadBlock@G@@YAXKEEEQAG@Z 00419fe0 f i ATI_Compress_MT:CodecBuffer_R16.obj
 0001:00019050       ??_GCCodecBuffer_R16@@UAEPAXI@Z 0041a050 f i ATI_Compress_MT:CodecBuffer_R16.obj
 0001:00019050       ??_ECCodecBuffer_R16@@UAEPAXI@Z 0041a050 f i ATI_Compress_MT:CodecBuffer_R16.obj
 0001:00019080       ??0CCodecBuffer_RG16@@QAE@KKKPAE@Z 0041a080 f   ATI_Compress_MT:CodecBuffer_RG16.obj
 0001:000190e0       ??1CCodecBuffer_RG16@@UAE@XZ 0041a0e0 f   ATI_Compress_MT:CodecBuffer_RG16.obj
 0001:000190f0       ?Copy@CCodecBuffer_RG16@@UAEXAAVCCodecBuffer@@@Z 0041a0f0 f   ATI_Compress_MT:CodecBuffer_RG16.obj
 0001:000191d0       ?WriteBlock@CCodecBuffer_RG16@@MAE_NKKEEQAGK@Z 0041a1d0 f   ATI_Compress_MT:CodecBuffer_RG16.obj
 0001:00019290       ?ReadBlockA@CCodecBuffer_RG16@@UAE_NKKEEQAG@Z 0041a290 f   ATI_Compress_MT:CodecBuffer_RG16.obj
 0001:000192d0       ?ReadBlockR@CCodecBuffer_RG16@@UAE_NKKEEQAG@Z 0041a2d0 f   ATI_Compress_MT:CodecBuffer_RG16.obj
 0001:00019300       ?ReadBlockG@CCodecBuffer_RG16@@UAE_NKKEEQAG@Z 0041a300 f   ATI_Compress_MT:CodecBuffer_RG16.obj
 0001:00019330       ?ReadBlockB@CCodecBuffer_RG16@@UAE_NKKEEQAG@Z 0041a330 f   ATI_Compress_MT:CodecBuffer_RG16.obj
 0001:00019370       ?WriteBlockA@CCodecBuffer_RG16@@UAE_NKKEEQAG@Z 0041a370 f   ATI_Compress_MT:CodecBuffer_RG16.obj
 0001:00019390       ?WriteBlockR@CCodecBuffer_RG16@@UAE_NKKEEQAG@Z 0041a390 f   ATI_Compress_MT:CodecBuffer_RG16.obj
 0001:000193c0       ?WriteBlockG@CCodecBuffer_RG16@@UAE_NKKEEQAG@Z 0041a3c0 f   ATI_Compress_MT:CodecBuffer_RG16.obj
 0001:000193f0       ?WriteBlockB@CCodecBuffer_RG16@@UAE_NKKEEQAG@Z 0041a3f0 f   ATI_Compress_MT:CodecBuffer_RG16.obj
 0001:00019410       ?WriteBlockRGBA@CCodecBuffer_RG16@@UAE_NKKEEQAG@Z 0041a410 f   ATI_Compress_MT:CodecBuffer_RG16.obj
 0001:000194d0       ?ReadBlock@CCodecBuffer_RG16@@MAE_NKKEEQAGK@Z 0041a4d0 f   ATI_Compress_MT:CodecBuffer_RG16.obj
 0001:00019630       ?ReadBlockRGBA@CCodecBuffer_RG16@@UAE_NKKEEQAG@Z 0041a630 f   ATI_Compress_MT:CodecBuffer_RG16.obj
 0001:00019780       ?GetBufferType@CCodecBuffer_RG16@@UBE?AW4_CodecBufferType@@XZ 0041a780 f i ATI_Compress_MT:CodecBuffer_RG16.obj
 0001:00019790       ?GetChannelDepth@CCodecBuffer_RG16@@UBEKXZ 0041a790 f i ATI_Compress_MT:CodecBuffer_RG16.obj
 0001:000197a0       ?GetChannelCount@CCodecBuffer_RG16@@UBEKXZ 0041a7a0 f i ATI_Compress_MT:CodecBuffer_RG16.obj
 0001:000197b0       ?IsFloat@CCodecBuffer_RG16@@UBE_NXZ 0041a7b0 f i ATI_Compress_MT:CodecBuffer_RG16.obj
 0001:000197c0       ??_GCCodecBuffer_RG16@@UAEPAXI@Z 0041a7c0 f i ATI_Compress_MT:CodecBuffer_RG16.obj
 0001:000197c0       ??_ECCodecBuffer_RG16@@UAEPAXI@Z 0041a7c0 f i ATI_Compress_MT:CodecBuffer_RG16.obj
 0001:000197f0       ??0CCodecBuffer_RGBA16@@QAE@KKKPAE@Z 0041a7f0 f   ATI_Compress_MT:CodecBuffer_RGBA16.obj
 0001:00019850       ??1CCodecBuffer_RGBA16@@UAE@XZ 0041a850 f   ATI_Compress_MT:CodecBuffer_RGBA16.obj
 0001:00019860       ?Copy@CCodecBuffer_RGBA16@@UAEXAAVCCodecBuffer@@@Z 0041a860 f   ATI_Compress_MT:CodecBuffer_RGBA16.obj
 0001:00019940       ?WriteBlock@CCodecBuffer_RGBA16@@MAE_NKKEEQAGK@Z 0041a940 f   ATI_Compress_MT:CodecBuffer_RGBA16.obj
 0001:00019a00       ?ReadBlockA@CCodecBuffer_RGBA16@@UAE_NKKEEQAG@Z 0041aa00 f   ATI_Compress_MT:CodecBuffer_RGBA16.obj
 0001:00019a30       ?ReadBlockR@CCodecBuffer_RGBA16@@UAE_NKKEEQAG@Z 0041aa30 f   ATI_Compress_MT:CodecBuffer_RGBA16.obj
 0001:00019a60       ?ReadBlockG@CCodecBuffer_RGBA16@@UAE_NKKEEQAG@Z 0041aa60 f   ATI_Compress_MT:CodecBuffer_RGBA16.obj
 0001:00019a90       ?ReadBlockB@CCodecBuffer_RGBA16@@UAE_NKKEEQAG@Z 0041aa90 f   ATI_Compress_MT:CodecBuffer_RGBA16.obj
 0001:00019ac0       ?WriteBlockA@CCodecBuffer_RGBA16@@UAE_NKKEEQAG@Z 0041aac0 f   ATI_Compress_MT:CodecBuffer_RGBA16.obj
 0001:00019af0       ?WriteBlockR@CCodecBuffer_RGBA16@@UAE_NKKEEQAG@Z 0041aaf0 f   ATI_Compress_MT:CodecBuffer_RGBA16.obj
 0001:00019b20       ?WriteBlockG@CCodecBuffer_RGBA16@@UAE_NKKEEQAG@Z 0041ab20 f   ATI_Compress_MT:CodecBuffer_RGBA16.obj
 0001:00019b50       ?WriteBlockB@CCodecBuffer_RGBA16@@UAE_NKKEEQAG@Z 0041ab50 f   ATI_Compress_MT:CodecBuffer_RGBA16.obj
 0001:00019b80       ?WriteBlockRGBA@CCodecBuffer_RGBA16@@UAE_NKKEEQAG@Z 0041ab80 f   ATI_Compress_MT:CodecBuffer_RGBA16.obj
 0001:00019c20       ?ReadBlock@CCodecBuffer_RGBA16@@MAE_NKKEEQAGK@Z 0041ac20 f   ATI_Compress_MT:CodecBuffer_RGBA16.obj
 0001:00019d80       ?ReadBlockRGBA@CCodecBuffer_RGBA16@@UAE_NKKEEQAG@Z 0041ad80 f   ATI_Compress_MT:CodecBuffer_RGBA16.obj
 0001:00019ec0       ?GetBufferType@CCodecBuffer_RGBA16@@UBE?AW4_CodecBufferType@@XZ 0041aec0 f i ATI_Compress_MT:CodecBuffer_RGBA16.obj
 0001:00019ed0       ?GetChannelDepth@CCodecBuffer_RGBA16@@UBEKXZ 0041aed0 f i ATI_Compress_MT:CodecBuffer_RGBA16.obj
 0001:00019ee0       ?GetChannelCount@CCodecBuffer_RGBA16@@UBEKXZ 0041aee0 f i ATI_Compress_MT:CodecBuffer_RGBA16.obj
 0001:00019ef0       ?IsFloat@CCodecBuffer_RGBA16@@UBE_NXZ 0041aef0 f i ATI_Compress_MT:CodecBuffer_RGBA16.obj
 0001:00019f00       ??_GCCodecBuffer_RGBA16@@UAEPAXI@Z 0041af00 f i ATI_Compress_MT:CodecBuffer_RGBA16.obj
 0001:00019f00       ??_ECCodecBuffer_RGBA16@@UAEPAXI@Z 0041af00 f i ATI_Compress_MT:CodecBuffer_RGBA16.obj
 0001:00019f30       ??0CCodecBuffer_RGBA2101010@@QAE@KKKPAE@Z 0041af30 f   ATI_Compress_MT:CodecBuffer_RGBA2101010.obj
 0001:00019f90       ??1CCodecBuffer_RGBA2101010@@UAE@XZ 0041af90 f   ATI_Compress_MT:CodecBuffer_RGBA2101010.obj
 0001:00019fa0       ?Copy@CCodecBuffer_RGBA2101010@@UAEXAAVCCodecBuffer@@@Z 0041afa0 f   ATI_Compress_MT:CodecBuffer_RGBA2101010.obj
 0001:0001a060       ?WriteBlock@CCodecBuffer_RGBA2101010@@MAE_NKKEEQAGKK_N@Z 0041b060 f   ATI_Compress_MT:CodecBuffer_RGBA2101010.obj
 0001:0001a170       ?ReadBlockA@CCodecBuffer_RGBA2101010@@UAE_NKKEEQAG@Z 0041b170 f   ATI_Compress_MT:CodecBuffer_RGBA2101010.obj
 0001:0001a1a0       ?ReadBlockR@CCodecBuffer_RGBA2101010@@UAE_NKKEEQAG@Z 0041b1a0 f   ATI_Compress_MT:CodecBuffer_RGBA2101010.obj
 0001:0001a1d0       ?ReadBlockG@CCodecBuffer_RGBA2101010@@UAE_NKKEEQAG@Z 0041b1d0 f   ATI_Compress_MT:CodecBuffer_RGBA2101010.obj
 0001:0001a200       ?ReadBlockB@CCodecBuffer_RGBA2101010@@UAE_NKKEEQAG@Z 0041b200 f   ATI_Compress_MT:CodecBuffer_RGBA2101010.obj
 0001:0001a230       ?WriteBlockA@CCodecBuffer_RGBA2101010@@UAE_NKKEEQAG@Z 0041b230 f   ATI_Compress_MT:CodecBuffer_RGBA2101010.obj
 0001:0001a260       ?WriteBlockR@CCodecBuffer_RGBA2101010@@UAE_NKKEEQAG@Z 0041b260 f   ATI_Compress_MT:CodecBuffer_RGBA2101010.obj
 0001:0001a290       ?WriteBlockG@CCodecBuffer_RGBA2101010@@UAE_NKKEEQAG@Z 0041b290 f   ATI_Compress_MT:CodecBuffer_RGBA2101010.obj
 0001:0001a2c0       ?WriteBlockB@CCodecBuffer_RGBA2101010@@UAE_NKKEEQAG@Z 0041b2c0 f   ATI_Compress_MT:CodecBuffer_RGBA2101010.obj
 0001:0001a2f0       ?WriteBlockRGBA@CCodecBuffer_RGBA2101010@@UAE_NKKEEQAK@Z 0041b2f0 f   ATI_Compress_MT:CodecBuffer_RGBA2101010.obj
 0001:0001a3b0       ?WriteBlockRGBA@CCodecBuffer_RGBA2101010@@UAE_NKKEEQAG@Z 0041b3b0 f   ATI_Compress_MT:CodecBuffer_RGBA2101010.obj
 0001:0001a4a0       ?ReadBlock@CCodecBuffer_RGBA2101010@@MAE_NKKEEQAGKK_N@Z 0041b4a0 f   ATI_Compress_MT:CodecBuffer_RGBA2101010.obj
 0001:0001a660       ?ReadBlockRGBA@CCodecBuffer_RGBA2101010@@UAE_NKKEEQAK@Z 0041b660 f   ATI_Compress_MT:CodecBuffer_RGBA2101010.obj
 0001:0001a7b0       ?ReadBlockRGBA@CCodecBuffer_RGBA2101010@@UAE_NKKEEQAG@Z 0041b7b0 f   ATI_Compress_MT:CodecBuffer_RGBA2101010.obj
 0001:0001a980       ?GetBufferType@CCodecBuffer_RGBA2101010@@UBE?AW4_CodecBufferType@@XZ 0041b980 f i ATI_Compress_MT:CodecBuffer_RGBA2101010.obj
 0001:0001a990       ?GetChannelDepth@CCodecBuffer_RGBA2101010@@UBEKXZ 0041b990 f i ATI_Compress_MT:CodecBuffer_RGBA2101010.obj
 0001:0001a9a0       ?GetChannelCount@CCodecBuffer_RGBA2101010@@UBEKXZ 0041b9a0 f i ATI_Compress_MT:CodecBuffer_RGBA2101010.obj
 0001:0001a9b0       ?IsFloat@CCodecBuffer_RGBA2101010@@UBE_NXZ 0041b9b0 f i ATI_Compress_MT:CodecBuffer_RGBA2101010.obj
 0001:0001a9c0       ??_ECCodecBuffer_RGBA2101010@@UAEPAXI@Z 0041b9c0 f i ATI_Compress_MT:CodecBuffer_RGBA2101010.obj
 0001:0001a9c0       ??_GCCodecBuffer_RGBA2101010@@UAEPAXI@Z 0041b9c0 f i ATI_Compress_MT:CodecBuffer_RGBA2101010.obj
 0001:0001a9f0       ??0CCodecBuffer_R8@@QAE@KKKPAE@Z 0041b9f0 f   ATI_Compress_MT:CodecBuffer_R8.obj
 0001:0001aa40       ??1CCodecBuffer_R8@@UAE@XZ 0041ba40 f   ATI_Compress_MT:CodecBuffer_R8.obj
 0001:0001aa50       ?Copy@CCodecBuffer_R8@@UAEXAAVCCodecBuffer@@@Z 0041ba50 f   ATI_Compress_MT:CodecBuffer_R8.obj
 0001:0001ab20       ?WriteBlock@CCodecBuffer_R8@@MAE_NKKEEQAE@Z 0041bb20 f   ATI_Compress_MT:CodecBuffer_R8.obj
 0001:0001abb0       ?ReadBlockA@CCodecBuffer_R8@@UAE_NKKEEQAE@Z 0041bbb0 f   ATI_Compress_MT:CodecBuffer_R8.obj
 0001:0001abf0       ?ReadBlockR@CCodecBuffer_R8@@UAE_NKKEEQAE@Z 0041bbf0 f   ATI_Compress_MT:CodecBuffer_R8.obj
 0001:0001ac00       ?ReadBlockG@CCodecBuffer_R8@@UAE_NKKEEQAE@Z 0041bc00 f   ATI_Compress_MT:CodecBuffer_R8.obj
 0001:0001ac40       ?ReadBlockB@CCodecBuffer_R8@@UAE_NKKEEQAE@Z 0041bc40 f   ATI_Compress_MT:CodecBuffer_R8.obj
 0001:0001ac80       ?WriteBlockA@CCodecBuffer_R8@@UAE_NKKEEQAE@Z 0041bc80 f   ATI_Compress_MT:CodecBuffer_R8.obj
 0001:0001aca0       ?WriteBlockR@CCodecBuffer_R8@@UAE_NKKEEQAE@Z 0041bca0 f   ATI_Compress_MT:CodecBuffer_R8.obj
 0001:0001acb0       ?WriteBlockG@CCodecBuffer_R8@@UAE_NKKEEQAE@Z 0041bcb0 f   ATI_Compress_MT:CodecBuffer_R8.obj
 0001:0001acd0       ?WriteBlockB@CCodecBuffer_R8@@UAE_NKKEEQAE@Z 0041bcd0 f   ATI_Compress_MT:CodecBuffer_R8.obj
 0001:0001acf0       ?WriteBlockRGBA@CCodecBuffer_R8@@UAE_NKKEEQAE@Z 0041bcf0 f   ATI_Compress_MT:CodecBuffer_R8.obj
 0001:0001adb0       ?ReadBlock@CCodecBuffer_R8@@MAE_NKKEEQAE@Z 0041bdb0 f   ATI_Compress_MT:CodecBuffer_R8.obj
 0001:0001aec0       ?ReadBlockRGBA@CCodecBuffer_R8@@UAE_NKKEEQAE@Z 0041bec0 f   ATI_Compress_MT:CodecBuffer_R8.obj
 0001:0001b020       ?GetBufferType@CCodecBuffer_R8@@UBE?AW4_CodecBufferType@@XZ 0041c020 f i ATI_Compress_MT:CodecBuffer_R8.obj
 0001:0001b030       ?GetChannelDepth@CCodecBuffer_R8@@UBEKXZ 0041c030 f i ATI_Compress_MT:CodecBuffer_R8.obj
 0001:0001b040       ?GetChannelCount@CCodecBuffer_R8@@UBEKXZ 0041c040 f i ATI_Compress_MT:CodecBuffer_R8.obj
 0001:0001b050       ?IsFloat@CCodecBuffer_R8@@UBE_NXZ 0041c050 f i ATI_Compress_MT:CodecBuffer_R8.obj
 0001:0001b060       ??$PadLine@E@@YAXKEEQAE@Z  0041c060 f i ATI_Compress_MT:CodecBuffer_R8.obj
 0001:0001b0c0       ??$PadBlock@E@@YAXKEEEQAE@Z 0041c0c0 f i ATI_Compress_MT:CodecBuffer_R8.obj
 0001:0001b130       ??_GCCodecBuffer_R8@@UAEPAXI@Z 0041c130 f i ATI_Compress_MT:CodecBuffer_R8.obj
 0001:0001b130       ??_ECCodecBuffer_R8@@UAEPAXI@Z 0041c130 f i ATI_Compress_MT:CodecBuffer_R8.obj
 0001:0001b160       ??0CCodecBuffer_RG8@@QAE@KKKPAE@Z 0041c160 f   ATI_Compress_MT:CodecBuffer_RG8.obj
 0001:0001b1b0       ??1CCodecBuffer_RG8@@UAE@XZ 0041c1b0 f   ATI_Compress_MT:CodecBuffer_RG8.obj
 0001:0001b1c0       ?Copy@CCodecBuffer_RG8@@UAEXAAVCCodecBuffer@@@Z 0041c1c0 f   ATI_Compress_MT:CodecBuffer_RG8.obj
 0001:0001b290       ?WriteBlock@CCodecBuffer_RG8@@MAE_NKKEEQAEK@Z 0041c290 f   ATI_Compress_MT:CodecBuffer_RG8.obj
 0001:0001b370       ?ReadBlockA@CCodecBuffer_RG8@@UAE_NKKEEQAE@Z 0041c370 f   ATI_Compress_MT:CodecBuffer_RG8.obj
 0001:0001b3b0       ?ReadBlockR@CCodecBuffer_RG8@@UAE_NKKEEQAE@Z 0041c3b0 f   ATI_Compress_MT:CodecBuffer_RG8.obj
 0001:0001b3e0       ?ReadBlockG@CCodecBuffer_RG8@@UAE_NKKEEQAE@Z 0041c3e0 f   ATI_Compress_MT:CodecBuffer_RG8.obj
 0001:0001b410       ?ReadBlockB@CCodecBuffer_RG8@@UAE_NKKEEQAE@Z 0041c410 f   ATI_Compress_MT:CodecBuffer_RG8.obj
 0001:0001b450       ?WriteBlockA@CCodecBuffer_RG8@@UAE_NKKEEQAE@Z 0041c450 f   ATI_Compress_MT:CodecBuffer_RG8.obj
 0001:0001b470       ?WriteBlockR@CCodecBuffer_RG8@@UAE_NKKEEQAE@Z 0041c470 f   ATI_Compress_MT:CodecBuffer_RG8.obj
 0001:0001b4a0       ?WriteBlockG@CCodecBuffer_RG8@@UAE_NKKEEQAE@Z 0041c4a0 f   ATI_Compress_MT:CodecBuffer_RG8.obj
 0001:0001b4d0       ?WriteBlockB@CCodecBuffer_RG8@@UAE_NKKEEQAE@Z 0041c4d0 f   ATI_Compress_MT:CodecBuffer_RG8.obj
 0001:0001b4f0       ?WriteBlockRGBA@CCodecBuffer_RG8@@UAE_NKKEEQAE@Z 0041c4f0 f   ATI_Compress_MT:CodecBuffer_RG8.obj
 0001:0001b5b0       ?ReadBlock@CCodecBuffer_RG8@@MAE_NKKEEQAEK@Z 0041c5b0 f   ATI_Compress_MT:CodecBuffer_RG8.obj
 0001:0001b6f0       ?ReadBlockRGBA@CCodecBuffer_RG8@@UAE_NKKEEQAE@Z 0041c6f0 f   ATI_Compress_MT:CodecBuffer_RG8.obj
 0001:0001b840       ?GetBufferType@CCodecBuffer_RG8@@UBE?AW4_CodecBufferType@@XZ 0041c840 f i ATI_Compress_MT:CodecBuffer_RG8.obj
 0001:0001b850       ?GetChannelDepth@CCodecBuffer_RG8@@UBEKXZ 0041c850 f i ATI_Compress_MT:CodecBuffer_RG8.obj
 0001:0001b860       ?GetChannelCount@CCodecBuffer_RG8@@UBEKXZ 0041c860 f i ATI_Compress_MT:CodecBuffer_RG8.obj
 0001:0001b870       ?IsFloat@CCodecBuffer_RG8@@UBE_NXZ 0041c870 f i ATI_Compress_MT:CodecBuffer_RG8.obj
 0001:0001b880       ??_GCCodecBuffer_RG8@@UAEPAXI@Z 0041c880 f i ATI_Compress_MT:CodecBuffer_RG8.obj
 0001:0001b880       ??_ECCodecBuffer_RG8@@UAEPAXI@Z 0041c880 f i ATI_Compress_MT:CodecBuffer_RG8.obj
 0001:0001b8b0       ??0CCodecBuffer_RGB888@@QAE@KKKPAE@Z 0041c8b0 f   ATI_Compress_MT:CodecBuffer_RGB888.obj
 0001:0001b900       ??1CCodecBuffer_RGB888@@UAE@XZ 0041c900 f   ATI_Compress_MT:CodecBuffer_RGB888.obj
 0001:0001b910       ?Copy@CCodecBuffer_RGB888@@UAEXAAVCCodecBuffer@@@Z 0041c910 f   ATI_Compress_MT:CodecBuffer_RGB888.obj
 0001:0001b9e0       ?WriteBlock@CCodecBuffer_RGB888@@MAE_NKKEEQAEK@Z 0041c9e0 f   ATI_Compress_MT:CodecBuffer_RGB888.obj
 0001:0001ba70       ?ReadBlockA@CCodecBuffer_RGB888@@UAE_NKKEEQAE@Z 0041ca70 f   ATI_Compress_MT:CodecBuffer_RGB888.obj
 0001:0001baa0       ?ReadBlockR@CCodecBuffer_RGB888@@UAE_NKKEEQAE@Z 0041caa0 f   ATI_Compress_MT:CodecBuffer_RGB888.obj
 0001:0001bad0       ?ReadBlockG@CCodecBuffer_RGB888@@UAE_NKKEEQAE@Z 0041cad0 f   ATI_Compress_MT:CodecBuffer_RGB888.obj
 0001:0001bb00       ?ReadBlockB@CCodecBuffer_RGB888@@UAE_NKKEEQAE@Z 0041cb00 f   ATI_Compress_MT:CodecBuffer_RGB888.obj
 0001:0001bb30       ?WriteBlockA@CCodecBuffer_RGB888@@UAE_NKKEEQAE@Z 0041cb30 f   ATI_Compress_MT:CodecBuffer_RGB888.obj
 0001:0001bb40       ?WriteBlockR@CCodecBuffer_RGB888@@UAE_NKKEEQAE@Z 0041cb40 f   ATI_Compress_MT:CodecBuffer_RGB888.obj
 0001:0001bb70       ?WriteBlockG@CCodecBuffer_RGB888@@UAE_NKKEEQAE@Z 0041cb70 f   ATI_Compress_MT:CodecBuffer_RGB888.obj
 0001:0001bba0       ?WriteBlockB@CCodecBuffer_RGB888@@UAE_NKKEEQAE@Z 0041cba0 f   ATI_Compress_MT:CodecBuffer_RGB888.obj
 0001:0001bbd0       ?WriteBlockRGBA@CCodecBuffer_RGB888@@UAE_NKKEEQAE@Z 0041cbd0 f   ATI_Compress_MT:CodecBuffer_RGB888.obj
 0001:0001bca0       ?ReadBlock@CCodecBuffer_RGB888@@MAE_NKKEEQAEK@Z 0041cca0 f   ATI_Compress_MT:CodecBuffer_RGB888.obj
 0001:0001bdc0       ?ReadBlockRGBA@CCodecBuffer_RGB888@@UAE_NKKEEQAE@Z 0041cdc0 f   ATI_Compress_MT:CodecBuffer_RGB888.obj
 0001:0001bf20       ?GetBufferType@CCodecBuffer_RGB888@@UBE?AW4_CodecBufferType@@XZ 0041cf20 f i ATI_Compress_MT:CodecBuffer_RGB888.obj
 0001:0001bf30       ?GetChannelDepth@CCodecBuffer_RGB888@@UBEKXZ 0041cf30 f i ATI_Compress_MT:CodecBuffer_RGB888.obj
 0001:0001bf40       ?GetChannelCount@CCodecBuffer_RGB888@@UBEKXZ 0041cf40 f i ATI_Compress_MT:CodecBuffer_RGB888.obj
 0001:0001bf50       ?IsFloat@CCodecBuffer_RGB888@@UBE_NXZ 0041cf50 f i ATI_Compress_MT:CodecBuffer_RGB888.obj
 0001:0001bf60       ??_GCCodecBuffer_RGB888@@UAEPAXI@Z 0041cf60 f i ATI_Compress_MT:CodecBuffer_RGB888.obj
 0001:0001bf60       ??_ECCodecBuffer_RGB888@@UAEPAXI@Z 0041cf60 f i ATI_Compress_MT:CodecBuffer_RGB888.obj
 0001:0001bf90       ??0CCodecBuffer_RGBA8888@@QAE@KKKPAE@Z 0041cf90 f   ATI_Compress_MT:CodecBuffer_RGBA8888.obj
 0001:0001bff0       ??1CCodecBuffer_RGBA8888@@UAE@XZ 0041cff0 f   ATI_Compress_MT:CodecBuffer_RGBA8888.obj
 0001:0001c000       ?Copy@CCodecBuffer_RGBA8888@@UAEXAAVCCodecBuffer@@@Z 0041d000 f   ATI_Compress_MT:CodecBuffer_RGBA8888.obj
 0001:0001c0d0       ?WriteBlock@CCodecBuffer_RGBA8888@@MAE_NKKEEQAEK@Z 0041d0d0 f   ATI_Compress_MT:CodecBuffer_RGBA8888.obj
 0001:0001c1a0       ?ReadBlockA@CCodecBuffer_RGBA8888@@UAE_NKKEEQAE@Z 0041d1a0 f   ATI_Compress_MT:CodecBuffer_RGBA8888.obj
 0001:0001c1d0       ?ReadBlockR@CCodecBuffer_RGBA8888@@UAE_NKKEEQAE@Z 0041d1d0 f   ATI_Compress_MT:CodecBuffer_RGBA8888.obj
 0001:0001c200       ?ReadBlockG@CCodecBuffer_RGBA8888@@UAE_NKKEEQAE@Z 0041d200 f   ATI_Compress_MT:CodecBuffer_RGBA8888.obj
 0001:0001c230       ?ReadBlockB@CCodecBuffer_RGBA8888@@UAE_NKKEEQAE@Z 0041d230 f   ATI_Compress_MT:CodecBuffer_RGBA8888.obj
 0001:0001c260       ?WriteBlockA@CCodecBuffer_RGBA8888@@UAE_NKKEEQAE@Z 0041d260 f   ATI_Compress_MT:CodecBuffer_RGBA8888.obj
 0001:0001c290       ?WriteBlockR@CCodecBuffer_RGBA8888@@UAE_NKKEEQAE@Z 0041d290 f   ATI_Compress_MT:CodecBuffer_RGBA8888.obj
 0001:0001c2c0       ?WriteBlockG@CCodecBuffer_RGBA8888@@UAE_NKKEEQAE@Z 0041d2c0 f   ATI_Compress_MT:CodecBuffer_RGBA8888.obj
 0001:0001c2f0       ?WriteBlockB@CCodecBuffer_RGBA8888@@UAE_NKKEEQAE@Z 0041d2f0 f   ATI_Compress_MT:CodecBuffer_RGBA8888.obj
 0001:0001c320       ?WriteBlockRGBA@CCodecBuffer_RGBA8888@@UAE_NKKEEQAE@Z 0041d320 f   ATI_Compress_MT:CodecBuffer_RGBA8888.obj
 0001:0001c3e0       ?ReadBlock@CCodecBuffer_RGBA8888@@MAE_NKKEEQAEK@Z 0041d3e0 f   ATI_Compress_MT:CodecBuffer_RGBA8888.obj
 0001:0001c520       ?ReadBlockRGBA@CCodecBuffer_RGBA8888@@UAE_NKKEEQAE@Z 0041d520 f   ATI_Compress_MT:CodecBuffer_RGBA8888.obj
 0001:0001c720       ?GetBufferType@CCodecBuffer_RGBA8888@@UBE?AW4_CodecBufferType@@XZ 0041d720 f i ATI_Compress_MT:CodecBuffer_RGBA8888.obj
 0001:0001c730       ?GetChannelDepth@CCodecBuffer_RGBA8888@@UBEKXZ 0041d730 f i ATI_Compress_MT:CodecBuffer_RGBA8888.obj
 0001:0001c740       ?GetChannelCount@CCodecBuffer_RGBA8888@@UBEKXZ 0041d740 f i ATI_Compress_MT:CodecBuffer_RGBA8888.obj
 0001:0001c750       ?IsFloat@CCodecBuffer_RGBA8888@@UBE_NXZ 0041d750 f i ATI_Compress_MT:CodecBuffer_RGBA8888.obj
 0001:0001c760       ??_ECCodecBuffer_RGBA8888@@UAEPAXI@Z 0041d760 f i ATI_Compress_MT:CodecBuffer_RGBA8888.obj
 0001:0001c760       ??_GCCodecBuffer_RGBA8888@@UAEPAXI@Z 0041d760 f i ATI_Compress_MT:CodecBuffer_RGBA8888.obj
 0001:0001c790       ??0CCodec_ETC@@QAE@W4_CodecType@@@Z 0041d790 f   ATI_Compress_MT:Codec_ETC.obj
 0001:0001c7b0       ??1CCodec_ETC@@UAE@XZ      0041d7b0 f   ATI_Compress_MT:Codec_ETC.obj
 0001:0001c7c0       ?CompressRGBBlock@CCodec_ETC@@IAE?AW4_CODECError@@QAEQAK@Z 0041d7c0 f   ATI_Compress_MT:Codec_ETC.obj
 0001:0001c8b0       ?DecompressRGBBlock@CCodec_ETC@@IAEXQAEQAK@Z 0041d8b0 f   ATI_Compress_MT:Codec_ETC.obj
 0001:0001c980       ?CompressExplicitAlphaBlock@CCodec_ETC@@IAE?AW4_CODECError@@QAEQAK@Z 0041d980 f   ATI_Compress_MT:Codec_ETC.obj
 0001:0001cb10       ?DecompressExplicitAlphaBlock@CCodec_ETC@@IAEXQAEQAK@Z 0041db10 f   ATI_Compress_MT:Codec_ETC.obj
 0001:0001cb50       ?EncodeAlphaBlock@CCodec_ETC@@IAEXQAKQAE1@Z 0041db50 f   ATI_Compress_MT:Codec_ETC.obj
 0001:0001ccb0       ?GetCompressedAlphaRamp@CCodec_ETC@@IAEXQAEQAK@Z 0041dcb0 f   ATI_Compress_MT:Codec_ETC.obj
 0001:0001ce20       ?CompressRGBABlock_ExplicitAlpha@CCodec_ETC@@IAE?AW4_CODECError@@QAEQAK@Z 0041de20 f   ATI_Compress_MT:Codec_ETC.obj
 0001:0001ce80       ?DecompressRGBABlock_ExplicitAlpha@CCodec_ETC@@IAEXQAEQAK@Z 0041de80 f   ATI_Compress_MT:Codec_ETC.obj
 0001:0001cf40       ?CompressInterpolatedAlphaBlock@CCodec_ETC@@IAE?AW4_CODECError@@QAEQAK@Z 0041df40 f   ATI_Compress_MT:Codec_ETC.obj
 0001:0001d010       ?DecompressInterpolatedAlphaBlock@CCodec_ETC@@IAEXQAEQAK@Z 0041e010 f   ATI_Compress_MT:Codec_ETC.obj
 0001:0001d170       ?CompressRGBABlock_InterpolatedAlpha@CCodec_ETC@@IAE?AW4_CODECError@@QAEQAK@Z 0041e170 f   ATI_Compress_MT:Codec_ETC.obj
 0001:0001d1d0       ?DecompressRGBABlock_InterpolatedAlpha@CCodec_ETC@@IAEXQAEQAK@Z 0041e1d0 f   ATI_Compress_MT:Codec_ETC.obj
 0001:0001d290       ??_GCCodec_ETC@@UAEPAXI@Z  0041e290 f i ATI_Compress_MT:Codec_ETC.obj
 0001:0001d290       ??_ECCodec_ETC@@UAEPAXI@Z  0041e290 f i ATI_Compress_MT:Codec_ETC.obj
 0001:0001d2c0       ??0CCodec_Block_4x4@@QAE@W4_CodecType@@@Z 0041e2c0 f   ATI_Compress_MT:Codec_Block_4x4.obj
 0001:0001d330       ??1CCodec_Block_4x4@@UAE@XZ 0041e330 f   ATI_Compress_MT:Codec_Block_4x4.obj
 0001:0001d340       ?CreateBuffer@CCodec_Block_4x4@@UBEPAVCCodecBuffer@@KKKPAE@Z 0041e340 f   ATI_Compress_MT:Codec_Block_4x4.obj
 0001:0001d370       ?SetParameter@CCodec_Block_4x4@@UAE_NPBDM@Z 0041e370 f   ATI_Compress_MT:Codec_Block_4x4.obj
 0001:0001d390       ?GetParameter@CCodec_Block_4x4@@UAE_NPBDAAM@Z 0041e390 f   ATI_Compress_MT:Codec_Block_4x4.obj
 0001:0001d3a0       ?SetParameter@CCodec_Block_4x4@@UAE_NPBDK@Z 0041e3a0 f   ATI_Compress_MT:Codec_Block_4x4.obj
 0001:0001d420       ?GetParameter@CCodec_Block_4x4@@UAE_NPBDAAK@Z 0041e420 f   ATI_Compress_MT:Codec_Block_4x4.obj
 0001:0001d480       ??_GCCodec_Block_4x4@@UAEPAXI@Z 0041e480 f i ATI_Compress_MT:Codec_Block_4x4.obj
 0001:0001d480       ??_ECCodec_Block_4x4@@UAEPAXI@Z 0041e480 f i ATI_Compress_MT:Codec_Block_4x4.obj
 0001:0001d4b0       ??0CCodec_ATC@@QAE@W4_CodecType@@@Z 0041e4b0 f   ATI_Compress_MT:Codec_ATC.obj
 0001:0001d4d0       ??1CCodec_ATC@@UAE@XZ      0041e4d0 f   ATI_Compress_MT:Codec_ATC.obj
 0001:0001d4e0       ?CompressRGBBlock@CCodec_ATC@@IAE?AW4_CODECError@@QAEQAK@Z 0041e4e0 f   ATI_Compress_MT:Codec_ATC.obj
 0001:0001d590       ?DecompressRGBBlock@CCodec_ATC@@IAEXQAEQAK@Z 0041e590 f   ATI_Compress_MT:Codec_ATC.obj
 0001:0001d630       ?CompressExplicitAlphaBlock@CCodec_ATC@@IAE?AW4_CODECError@@QAEQAK@Z 0041e630 f   ATI_Compress_MT:Codec_ATC.obj
 0001:0001d7c0       ?DecompressExplicitAlphaBlock@CCodec_ATC@@IAEXQAEQAK@Z 0041e7c0 f   ATI_Compress_MT:Codec_ATC.obj
 0001:0001d800       ?EncodeAlphaBlock@CCodec_ATC@@IAEXQAKQAE1@Z 0041e800 f   ATI_Compress_MT:Codec_ATC.obj
 0001:0001d960       ?GetCompressedAlphaRamp@CCodec_ATC@@IAEXQAEQAK@Z 0041e960 f   ATI_Compress_MT:Codec_ATC.obj
 0001:0001dad0       ?CompressRGBABlock_ExplicitAlpha@CCodec_ATC@@IAE?AW4_CODECError@@QAEQAK@Z 0041ead0 f   ATI_Compress_MT:Codec_ATC.obj
 0001:0001db30       ?DecompressRGBABlock_ExplicitAlpha@CCodec_ATC@@IAEXQAEQAK@Z 0041eb30 f   ATI_Compress_MT:Codec_ATC.obj
 0001:0001dbf0       ?CompressInterpolatedAlphaBlock@CCodec_ATC@@IAE?AW4_CODECError@@QAEQAK@Z 0041ebf0 f   ATI_Compress_MT:Codec_ATC.obj
 0001:0001dcc0       ?DecompressInterpolatedAlphaBlock@CCodec_ATC@@IAEXQAEQAK@Z 0041ecc0 f   ATI_Compress_MT:Codec_ATC.obj
 0001:0001de20       ?CompressRGBABlock_InterpolatedAlpha@CCodec_ATC@@IAE?AW4_CODECError@@QAEQAK@Z 0041ee20 f   ATI_Compress_MT:Codec_ATC.obj
 0001:0001de80       ?DecompressRGBABlock_InterpolatedAlpha@CCodec_ATC@@IAEXQAEQAK@Z 0041ee80 f   ATI_Compress_MT:Codec_ATC.obj
 0001:0001df40       ??_ECCodec_ATC@@UAEPAXI@Z  0041ef40 f i ATI_Compress_MT:Codec_ATC.obj
 0001:0001df40       ??_GCCodec_ATC@@UAEPAXI@Z  0041ef40 f i ATI_Compress_MT:Codec_ATC.obj
 0001:0001df70       ??0CCodec_DXTC@@QAE@W4_CodecType@@@Z 0041ef70 f   ATI_Compress_MT:Codec_DXTC.obj
 0001:0001dfd0       ??1CCodec_DXTC@@UAE@XZ     0041efd0 f   ATI_Compress_MT:Codec_DXTC.obj
 0001:0001dfe0       ?SetParameter@CCodec_DXTC@@UAE_NPBDK@Z 0041efe0 f   ATI_Compress_MT:Codec_DXTC.obj
 0001:0001e0d0       ?GetParameter@CCodec_DXTC@@UAE_NPBDAAK@Z 0041f0d0 f   ATI_Compress_MT:Codec_DXTC.obj
 0001:0001e1c0       ?SetParameter@CCodec_DXTC@@UAE_NPBDM@Z 0041f1c0 f   ATI_Compress_MT:Codec_DXTC.obj
 0001:0001e270       ?GetParameter@CCodec_DXTC@@UAE_NPBDAAM@Z 0041f270 f   ATI_Compress_MT:Codec_DXTC.obj
 0001:0001e320       ??_ECCodec_DXTC@@UAEPAXI@Z 0041f320 f i ATI_Compress_MT:Codec_DXTC.obj
 0001:0001e320       ??_GCCodec_DXTC@@UAEPAXI@Z 0041f320 f i ATI_Compress_MT:Codec_DXTC.obj
 0001:0001e350       ?CompressAlphaBlock_Fast@CCodec_DXTC@@MAE?AW4_CODECError@@QAEQAK@Z 0041f350 f   ATI_Compress_MT:Codec_DXTC_Alpha.obj
 0001:0001e370       ?EncodeAlphaBlock@CCodec_DXTC@@IAEXQAKQAE1@Z 0041f370 f   ATI_Compress_MT:Codec_DXTC_Alpha.obj
 0001:0001e4d0       ?CompressExplicitAlphaBlock@CCodec_DXTC@@MAE?AW4_CODECError@@QAEQAK@Z 0041f4d0 f   ATI_Compress_MT:Codec_DXTC_Alpha.obj
 0001:0001e4f0       ?CompressExplicitAlphaBlock_Fast@CCodec_DXTC@@MAE?AW4_CODECError@@QAEQAK@Z 0041f4f0 f   ATI_Compress_MT:Codec_DXTC_Alpha.obj
 0001:0001e510       ?CompressExplicitAlphaBlock@CCodec_DXTC@@MAE?AW4_CODECError@@QAMQAK@Z 0041f510 f   ATI_Compress_MT:Codec_DXTC_Alpha.obj
 0001:0001e5b0       ?DecompressExplicitAlphaBlock@CCodec_DXTC@@MAEXQAEQAK@Z 0041f5b0 f   ATI_Compress_MT:Codec_DXTC_Alpha.obj
 0001:0001e5f0       ?DecompressExplicitAlphaBlock@CCodec_DXTC@@MAEXQAMQAK@Z 0041f5f0 f   ATI_Compress_MT:Codec_DXTC_Alpha.obj
 0001:0001e7c0       ?GetCompressedAlphaRamp@CCodec_DXTC@@IAEXQAEQAK@Z 0041f7c0 f   ATI_Compress_MT:Codec_DXTC_Alpha.obj
 0001:0001e930       ?GetCompressedAlphaRamp@CCodec_DXTC@@IAEXQAMQAK@Z 0041f930 f   ATI_Compress_MT:Codec_DXTC_Alpha.obj
 0001:0001ea50       ?CompressAlphaBlock@CCodec_DXTC@@MAE?AW4_CODECError@@QAEQAK@Z 0041fa50 f   ATI_Compress_MT:Codec_DXTC_Alpha.obj
 0001:0001eb20       ?CompressAlphaBlock@CCodec_DXTC@@MAE?AW4_CODECError@@QAMQAK@Z 0041fb20 f   ATI_Compress_MT:Codec_DXTC_Alpha.obj
 0001:0001ebf0       ?DecompressAlphaBlock@CCodec_DXTC@@MAEXQAEQAK@Z 0041fbf0 f   ATI_Compress_MT:Codec_DXTC_Alpha.obj
 0001:0001ed50       ?DecompressAlphaBlock@CCodec_DXTC@@MAEXQAMQAK@Z 0041fd50 f   ATI_Compress_MT:Codec_DXTC_Alpha.obj
 0001:0001efa0       ?CompressRGBABlock@CCodec_DXTC@@MAE?AW4_CODECError@@QAEQAKPAM@Z 0041ffa0 f   ATI_Compress_MT:Codec_DXTC_RGBA.obj
 0001:0001f010       ?DecompressRGBABlock@CCodec_DXTC@@MAEXQAEQAK@Z 00420010 f   ATI_Compress_MT:Codec_DXTC_RGBA.obj
 0001:0001f0d0       ?CompressRGBABlock_ExplicitAlpha@CCodec_DXTC@@MAE?AW4_CODECError@@QAEQAKPAM@Z 004200d0 f   ATI_Compress_MT:Codec_DXTC_RGBA.obj
 0001:0001f140       ?DecompressRGBABlock_ExplicitAlpha@CCodec_DXTC@@MAEXQAEQAK@Z 00420140 f   ATI_Compress_MT:Codec_DXTC_RGBA.obj
 0001:0001f200       ?CompressRGBBlock@CCodec_DXTC@@MAE?AW4_CODECError@@QAEQAKPAM_N3E@Z 00420200 f   ATI_Compress_MT:Codec_DXTC_RGBA.obj
 0001:0001f4f0       ?CompressRGBBlock_Fast@CCodec_DXTC@@MAE?AW4_CODECError@@QAEQAK@Z 004204f0 f   ATI_Compress_MT:Codec_DXTC_RGBA.obj
 0001:0001f510       ?CompressRGBBlock_SuperFast@CCodec_DXTC@@MAE?AW4_CODECError@@QAEQAK@Z 00420510 f   ATI_Compress_MT:Codec_DXTC_RGBA.obj
 0001:0001f530       ?CompressRGBABlock_Fast@CCodec_DXTC@@MAE?AW4_CODECError@@QAEQAK@Z 00420530 f   ATI_Compress_MT:Codec_DXTC_RGBA.obj
 0001:0001f5a0       ?CompressRGBABlock_SuperFast@CCodec_DXTC@@MAE?AW4_CODECError@@QAEQAK@Z 004205a0 f   ATI_Compress_MT:Codec_DXTC_RGBA.obj
 0001:0001f610       ?CompressRGBABlock_ExplicitAlpha_Fast@CCodec_DXTC@@MAE?AW4_CODECError@@QAEQAK@Z 00420610 f   ATI_Compress_MT:Codec_DXTC_RGBA.obj
 0001:0001f680       ?CompressRGBABlock_ExplicitAlpha_SuperFast@CCodec_DXTC@@MAE?AW4_CODECError@@QAEQAK@Z 00420680 f   ATI_Compress_MT:Codec_DXTC_RGBA.obj
 0001:0001f6f0       ?CompressRGBABlock@CCodec_DXTC@@MAE?AW4_CODECError@@QAMQAKPAM@Z 004206f0 f   ATI_Compress_MT:Codec_DXTC_RGBA.obj
 0001:0001f780       ?CompressRGBABlock_ExplicitAlpha@CCodec_DXTC@@MAE?AW4_CODECError@@QAMQAKPAM@Z 00420780 f   ATI_Compress_MT:Codec_DXTC_RGBA.obj
 0001:0001f810       ?CompressRGBBlock@CCodec_DXTC@@MAE?AW4_CODECError@@QAMQAKPAM_N3M@Z 00420810 f   ATI_Compress_MT:Codec_DXTC_RGBA.obj
 0001:0001fad0       ?DecompressRGBABlock@CCodec_DXTC@@MAEXQAMQAK@Z 00420ad0 f   ATI_Compress_MT:Codec_DXTC_RGBA.obj
 0001:0001fb60       ?DecompressRGBABlock_ExplicitAlpha@CCodec_DXTC@@MAEXQAMQAK@Z 00420b60 f   ATI_Compress_MT:Codec_DXTC_RGBA.obj
 0001:0001fbf0       ?DecompressRGBBlock@CCodec_DXTC@@MAEXQAEQAK_N@Z 00420bf0 f   ATI_Compress_MT:Codec_DXTC_RGBA.obj
 0001:0001fe30       ?DecompressRGBBlock@CCodec_DXTC@@MAEXQAMQAK_N@Z 00420e30 f   ATI_Compress_MT:Codec_DXTC_RGBA.obj
 0001:000201a0       ?CalculateColourWeightings@CCodec_DXTC@@IAEPAMQAE@Z 004211a0 f   ATI_Compress_MT:Codec_DXTC_RGBA.obj
 0001:000204c0       ?CalculateColourWeightings@CCodec_DXTC@@IAEPAMQAM@Z 004214c0 f   ATI_Compress_MT:Codec_DXTC_RGBA.obj
 0001:000207e0       ??0CCodec_DXT5_Swizzled@@QAE@W4_CodecType@@@Z 004217e0 f   ATI_Compress_MT:Codec_DXT5_Swizzled.obj
 0001:00020800       ??1CCodec_DXT5_Swizzled@@UAE@XZ 00421800 f   ATI_Compress_MT:Codec_DXT5_Swizzled.obj
 0001:00020810       ?Compress@CCodec_DXT5_Swizzled@@UAE?AW4_CODECError@@AAVCCodecBuffer@@0P6A_NMKK@ZKK@Z 00421810 f   ATI_Compress_MT:Codec_DXT5_Swizzled.obj
 0001:00020a80       ?Compress_Fast@CCodec_DXT5_Swizzled@@UAE?AW4_CODECError@@AAVCCodecBuffer@@0P6A_NMKK@ZKK@Z 00421a80 f   ATI_Compress_MT:Codec_DXT5_Swizzled.obj
 0001:00020c20       ?Compress_SuperFast@CCodec_DXT5_Swizzled@@UAE?AW4_CODECError@@AAVCCodecBuffer@@0P6A_NMKK@ZKK@Z 00421c20 f   ATI_Compress_MT:Codec_DXT5_Swizzled.obj
 0001:00020dc0       ?Decompress@CCodec_DXT5_Swizzled@@UAE?AW4_CODECError@@AAVCCodecBuffer@@0@Z 00421dc0 f   ATI_Compress_MT:Codec_DXT5_Swizzled.obj
 0001:00020f20       ??_ECCodec_DXT5_Swizzled@@UAEPAXI@Z 00421f20 f i ATI_Compress_MT:Codec_DXT5_Swizzled.obj
 0001:00020f20       ??_GCCodec_DXT5_Swizzled@@UAEPAXI@Z 00421f20 f i ATI_Compress_MT:Codec_DXT5_Swizzled.obj
 0001:00020f50       ?ConstructColor@@YAKEEEEEE@Z 00421f50 f   ATI_Compress_MT:ATiXCodec.obj
 0001:00022960       ?CompBlock1X@@YAMPAMGQAEPAEE_N3HH3@Z 00423960 f   ATI_Compress_MT:ATiXCodec.obj
 0001:00022a40       ?CompBlock1X@@YAMPAEGQAE0E_N2HH2@Z 00423a40 f   ATI_Compress_MT:ATiXCodec.obj
 0001:00022db0       ?Clstr@@YAMQAKGQAY01EPAEEPAM_NEEEE@Z 00423db0 f   ATI_Compress_MT:ATiXCodec.obj
 0001:00023160       ?Clstr@@YAMQAMGQAY01EPAEEPAM_NMEEE@Z 00424160 f   ATI_Compress_MT:ATiXCodec.obj
 0001:000274c0       ?CompressRGBBlockXSSE2@@YAXQAY01MQAY03MQAMHE_NEPAMEEE@Z 004284c0 f   ATI_Compress_MT:ATiXCodec.obj
 0001:000285e0       ?CompRGBBlock@@YAMPAMGEEEQAY01EPAEE_N3E03M@Z 004295e0 f   ATI_Compress_MT:ATiXCodec.obj
 0001:00028cd0       ?CompRGBBlock@@YAMPAKGEEEQAY01EPAEE_N3EPAM3E@Z 00429cd0 f   ATI_Compress_MT:ATiXCodec.obj
 0001:00029000       ?abs@@YAMM@Z               0042a000 f i ATI_Compress_MT:ATiXCodec.obj
 0001:00029010       ?MkWkRmpPts@@YAXPA_NQAY01M1EEE@Z 0042a010 f i ATI_Compress_MT:ATiXCodec.obj
 0001:00029170       ?BldClrRmp@@YAXQAM0E@Z     0042a170 f i ATI_Compress_MT:ATiXCodec.obj
 0001:00029240       ?BldRmp@@YAXQAY0BA@MQAY01ME@Z 0042a240 f i ATI_Compress_MT:ATiXCodec.obj
 0001:00029270       ??0CCodec_Block@@QAE@W4_CodecType@@@Z 0042a270 f   ATI_Compress_MT:Codec_Block.obj
 0001:00029290       ??1CCodec_Block@@UAE@XZ    0042a290 f   ATI_Compress_MT:Codec_Block.obj
 0001:000292a0       ??_ECCodec_Block@@UAEPAXI@Z 0042a2a0 f i ATI_Compress_MT:Codec_Block.obj
 0001:000292a0       ??_GCCodec_Block@@UAEPAXI@Z 0042a2a0 f i ATI_Compress_MT:Codec_Block.obj
 0001:000299f0       _atiDecodeRGBBlockATITC    0042a9f0 f   ATI_Compress_MT:ati_tc.obj
 0001:00029e00       _CollatePixelsIntoRegions  0042ae00 f   ATI_Compress_MT:ati_tc.obj
 0001:0002a330       _atiEncodeRGBBlockATITC    0042b330 f   ATI_Compress_MT:ati_tc.obj
 0001:0002a720       _atiEncodeAlphaBlockATITCA4 0042b720 f   ATI_Compress_MT:ati_tc.obj
 0001:0002a800       _atiDecodeAlphaBlockATITCA4 0042b800 f   ATI_Compress_MT:ati_tc.obj
 0001:0002a8d0       _DXTCV11CompressBlock      0042b8d0 f   ATI_Compress_MT:dxtc_v11_compress.obj
 0001:0002bbe0       _DXTCV11CompressAlphaBlock 0042cbe0 f   ATI_Compress_MT:dxtc_v11_compress.obj
 0001:0002bec0       _DXTCV11CompressExplicitAlphaBlock 0042cec0 f   ATI_Compress_MT:dxtc_v11_compress.obj
 0001:0002c010       @DXTCV11CompressExplicitAlphaBlockMMX@8 0042d010 f   ATI_Compress_MT:dxtc_v11_compress_sse2.obj
 0001:0002c087       _DXTCV11CompressBlockSSE2  0042d087 f   ATI_Compress_MT:dxtc_v11_compress_sse2.obj
 0001:0002c800       @DXTCV11CompressBlockSSE2Strided@12 0042d800 f   ATI_Compress_MT:dxtc_v11_compress_sse2.obj
 0001:0002cf70       _DXTCV11CompressBlockSSE   0042df70 f   ATI_Compress_MT:dxtc_v11_compress_asm.obj
 0001:0002d460       ??0PixelType@pvrtexture@@QAE@XZ 0042e460 f   PVRTexLib:PVRTextureFormat.obj
 0001:0002d470       ??0PixelType@pvrtexture@@QAE@_K@Z 0042e470 f   PVRTexLib:PVRTextureFormat.obj
 0001:0002d490       ??0PixelType@pvrtexture@@QAE@EEEEEEEE@Z 0042e490 f   PVRTexLib:PVRTextureFormat.obj
 0001:0002e480       ?PVRTDecompressPVRTC@@YAHPBXHHHPAE@Z 0042f480 f   PVRTexLib:PVRTDecompress.obj
 0001:0002e940       ?PVRTDecompressETC@@YAHQBXABI1PAXABH@Z 0042f940 f   PVRTexLib:PVRTDecompress.obj
 0001:0002ea80       ??0MetaDataBlock@@QAE@ABU0@@Z 0042fa80 f i PVRTexLib:PVRTextureHeader.obj
 0001:0002ead0       ?SizeOfBlock@MetaDataBlock@@QBEIXZ 0042fad0 f i PVRTexLib:PVRTextureHeader.obj
 0001:0002eae0       ??0PVRTextureHeaderV3@@QAE@XZ 0042fae0 f i PVRTexLib:PVRTextureHeader.obj
 0001:0002eb20       ?getFileHeader@CPVRTextureHeader@pvrtexture@@QBE?AUPVRTextureHeaderV3@@XZ 0042fb20 f   PVRTexLib:PVRTextureHeader.obj
 0001:0002eb40       ?getPixelType@CPVRTextureHeader@pvrtexture@@QBE?ATPixelType@2@XZ 0042fb40 f   PVRTexLib:PVRTextureHeader.obj
 0001:0002eb60       ?getBitsPerPixel@CPVRTextureHeader@pvrtexture@@QBEIXZ 0042fb60 f   PVRTexLib:PVRTextureHeader.obj
 0001:0002eb80       ?getColourSpace@CPVRTextureHeader@pvrtexture@@QBE?AW4EPVRTColourSpace@@XZ 0042fb80 f   PVRTexLib:PVRTextureHeader.obj
 0001:0002eb90       ?getChannelType@CPVRTextureHeader@pvrtexture@@QBE?AW4EPVRTVariableType@@XZ 0042fb90 f   PVRTexLib:PVRTextureHeader.obj
 0001:0002eba0       ?getOGLFormat@CPVRTextureHeader@pvrtexture@@QBEXAAI00@Z 0042fba0 f   PVRTexLib:PVRTextureHeader.obj
 0001:0002ebe0       ?getOGLESFormat@CPVRTextureHeader@pvrtexture@@QBEXAAI00@Z 0042fbe0 f   PVRTexLib:PVRTextureHeader.obj
 0001:0002ec20       ?getD3DFormat@CPVRTextureHeader@pvrtexture@@QBEIXZ 0042fc20 f   PVRTexLib:PVRTextureHeader.obj
 0001:0002ec60       ?getDXGIFormat@CPVRTextureHeader@pvrtexture@@QBEIXZ 0042fc60 f   PVRTexLib:PVRTextureHeader.obj
 0001:0002eca0       ?getWidth@CPVRTextureHeader@pvrtexture@@QBEII@Z 0042fca0 f   PVRTexLib:PVRTextureHeader.obj
 0001:0002ecd0       ?getHeight@CPVRTextureHeader@pvrtexture@@QBEII@Z 0042fcd0 f   PVRTexLib:PVRTextureHeader.obj
 0001:0002ed00       ?getDepth@CPVRTextureHeader@pvrtexture@@QBEII@Z 0042fd00 f   PVRTexLib:PVRTextureHeader.obj
 0001:0002ed30       ?getDataSize@CPVRTextureHeader@pvrtexture@@QBEIH_N0@Z 0042fd30 f   PVRTexLib:PVRTextureHeader.obj
 0001:0002ed60       ?getNumArrayMembers@CPVRTextureHeader@pvrtexture@@QBEIXZ 0042fd60 f   PVRTexLib:PVRTextureHeader.obj
 0001:0002ed70       ?getNumMIPLevels@CPVRTextureHeader@pvrtexture@@QBEIXZ 0042fd70 f   PVRTexLib:PVRTextureHeader.obj
 0001:0002ed80       ?getNumFaces@CPVRTextureHeader@pvrtexture@@QBEIXZ 0042fd80 f   PVRTexLib:PVRTextureHeader.obj
 0001:0002ed90       ?isFileCompressed@CPVRTextureHeader@pvrtexture@@QBE_NXZ 0042fd90 f   PVRTexLib:PVRTextureHeader.obj
 0001:0002eda0       ?isPreMultiplied@CPVRTextureHeader@pvrtexture@@QBE_NXZ 0042fda0 f   PVRTexLib:PVRTextureHeader.obj
 0001:0002edb0       ?getMetaDataSize@CPVRTextureHeader@pvrtexture@@QBEIXZ 0042fdb0 f   PVRTexLib:PVRTextureHeader.obj
 0001:0002edc0       ?setPixelFormat@CPVRTextureHeader@pvrtexture@@QAEXTPixelType@2@@Z 0042fdc0 f   PVRTexLib:PVRTextureHeader.obj
 0001:0002ede0       ?setColourSpace@CPVRTextureHeader@pvrtexture@@QAEXW4EPVRTColourSpace@@@Z 0042fde0 f   PVRTexLib:PVRTextureHeader.obj
 0001:0002edf0       ?setChannelType@CPVRTextureHeader@pvrtexture@@QAEXW4EPVRTVariableType@@@Z 0042fdf0 f   PVRTexLib:PVRTextureHeader.obj
 0001:0002ee00       ?setOGLFormat@CPVRTextureHeader@pvrtexture@@QAE_NABI00@Z 0042fe00 f   PVRTexLib:PVRTextureHeader.obj
 0001:0002ee50       ?setOGLESFormat@CPVRTextureHeader@pvrtexture@@QAE_NABI00@Z 0042fe50 f   PVRTexLib:PVRTextureHeader.obj
 0001:0002eea0       ?setDXGIFormat@CPVRTextureHeader@pvrtexture@@QAE_NABI@Z 0042fea0 f   PVRTexLib:PVRTextureHeader.obj
 0001:0002eee0       ?setWidth@CPVRTextureHeader@pvrtexture@@QAEXI@Z 0042fee0 f   PVRTexLib:PVRTextureHeader.obj
 0001:0002eef0       ?setHeight@CPVRTextureHeader@pvrtexture@@QAEXI@Z 0042fef0 f   PVRTexLib:PVRTextureHeader.obj
 0001:0002ef00       ?setDepth@CPVRTextureHeader@pvrtexture@@QAEXI@Z 0042ff00 f   PVRTexLib:PVRTextureHeader.obj
 0001:0002ef10       ?setNumArrayMembers@CPVRTextureHeader@pvrtexture@@QAEXI@Z 0042ff10 f   PVRTexLib:PVRTextureHeader.obj
 0001:0002ef20       ?setNumMIPLevels@CPVRTextureHeader@pvrtexture@@QAEXI@Z 0042ff20 f   PVRTexLib:PVRTextureHeader.obj
 0001:0002ef30       ?setNumFaces@CPVRTextureHeader@pvrtexture@@QAEXI@Z 0042ff30 f   PVRTexLib:PVRTextureHeader.obj
 0001:0002ef40       ?setIsFileCompressed@CPVRTextureHeader@pvrtexture@@QAEX_N@Z 0042ff40 f   PVRTexLib:PVRTextureHeader.obj
 0001:0002ef60       ?setIsPreMultiplied@CPVRTextureHeader@pvrtexture@@QAEX_N@Z 0042ff60 f   PVRTexLib:PVRTextureHeader.obj
 0001:0002ef80       ?getMetaDataMap@CPVRTextureHeader@pvrtexture@@QBEPBV?$CPVRTMap@IV?$CPVRTMap@IUMetaDataBlock@@@@@@XZ 0042ff80 f   PVRTexLib:PVRTextureHeader.obj
 0001:0002ef90       ?GetSize@?$CPVRTMap@IV?$CPVRTMap@IUMetaDataBlock@@@@@@QBEIXZ 0042ff90 f i PVRTexLib:PVRTextureHeader.obj
 0001:0002efa0       ?GetSize@?$CPVRTMap@IUMetaDataBlock@@@@QBEIXZ 0042ffa0 f i PVRTexLib:PVRTextureHeader.obj
 0001:0002efb0       ??A?$CPVRTArray@I@@QAEAAII@Z 0042ffb0 f i PVRTexLib:PVRTextureHeader.obj
 0001:0002efc0       ??A?$CPVRTArray@V?$CPVRTMap@IUMetaDataBlock@@@@@@QAEAAV?$CPVRTMap@IUMetaDataBlock@@@@I@Z 0042ffc0 f i PVRTexLib:PVRTextureHeader.obj
 0001:0002efe0       ??A?$CPVRTArray@V?$CPVRTMap@IUMetaDataBlock@@@@@@QBEABV?$CPVRTMap@IUMetaDataBlock@@@@I@Z 0042ffe0 f i PVRTexLib:PVRTextureHeader.obj
 0001:0002f000       ??A?$CPVRTArray@UMetaDataBlock@@@@QAEAAUMetaDataBlock@@I@Z 00430000 f i PVRTexLib:PVRTextureHeader.obj
 0001:0002f010       ?GetDefaultSize@?$CPVRTArray@I@@SAIXZ 00430010 f i PVRTexLib:PVRTextureHeader.obj
 0001:0002f020       ?GetDefaultSize@?$CPVRTArray@V?$CPVRTMap@IUMetaDataBlock@@@@@@SAIXZ 00430020 f i PVRTexLib:PVRTextureHeader.obj
 0001:0002f030       ?SetCapacity@?$CPVRTArray@I@@QAE?AW4EPVRTError@@I@Z 00430030 f i PVRTexLib:PVRTextureHeader.obj
 0001:0002f0b0       ?SetCapacity@?$CPVRTArray@UMetaDataBlock@@@@QAE?AW4EPVRTError@@I@Z 004300b0 f i PVRTexLib:PVRTextureHeader.obj
 0001:0002f1e0       ?GetDefaultSize@?$CPVRTArray@UMetaDataBlock@@@@SAIXZ 004301e0 f i PVRTexLib:PVRTextureHeader.obj
 0001:0002f1f0       ?GetSize@?$CPVRTArray@V?$CPVRTMap@IUMetaDataBlock@@@@@@QBEIXZ 004301f0 f i PVRTexLib:PVRTextureHeader.obj
 0001:0002f200       ?GetCapacity@?$CPVRTArray@V?$CPVRTMap@IUMetaDataBlock@@@@@@QBEIXZ 00430200 f i PVRTexLib:PVRTextureHeader.obj
 0001:0002f210       ?getTextureSize@CPVRTextureHeader@pvrtexture@@QBEIH_N0@Z 00430210 f   PVRTexLib:PVRTextureHeader.obj
 0001:0002f260       ?setD3DFormat@CPVRTextureHeader@pvrtexture@@QAE_NABI@Z 00430260 f   PVRTexLib:PVRTextureHeader.obj
 0001:0002f2c0       ?GetIndexOf@?$CPVRTMap@IV?$CPVRTMap@IUMetaDataBlock@@@@@@QBEII@Z 004302c0 f i PVRTexLib:PVRTextureHeader.obj
 0001:0002f2f0       ?GetDataAtIndex@?$CPVRTMap@IV?$CPVRTMap@IUMetaDataBlock@@@@@@QBEPBV?$CPVRTMap@IUMetaDataBlock@@@@I@Z 004302f0 f i PVRTexLib:PVRTextureHeader.obj
 0001:0002f310       ?GetIndexOf@?$CPVRTMap@IUMetaDataBlock@@@@QBEII@Z 00430310 f i PVRTexLib:PVRTextureHeader.obj
 0001:0002f340       ?GetDataAtIndex@?$CPVRTMap@IUMetaDataBlock@@@@QBEPBUMetaDataBlock@@I@Z 00430340 f i PVRTexLib:PVRTextureHeader.obj
 0001:0002f360       ?Remove@?$CPVRTMap@IUMetaDataBlock@@@@QAE?AW4EPVRTError@@I@Z 00430360 f i PVRTexLib:PVRTextureHeader.obj
 0001:0002f3d0       ?Exists@?$CPVRTMap@IUMetaDataBlock@@@@QBE_NI@Z 004303d0 f i PVRTexLib:PVRTextureHeader.obj
 0001:0002f400       ??0?$CPVRTArray@I@@QAE@XZ  00430400 f i PVRTexLib:PVRTextureHeader.obj
 0001:0002f440       ?Append@?$CPVRTArray@I@@QAEIXZ 00430440 f i PVRTexLib:PVRTextureHeader.obj
 0001:0002f460       ??0?$CPVRTArray@UMetaDataBlock@@@@QAE@XZ 00430460 f i PVRTexLib:PVRTextureHeader.obj
 0001:0002f520       ?Append@?$CPVRTArray@UMetaDataBlock@@@@QAEIXZ 00430520 f i PVRTexLib:PVRTextureHeader.obj
 0001:0002f540       ?getOrientation@CPVRTextureHeader@pvrtexture@@QBE?AW4EPVRTOrientation@@W4EPVRTAxis@@@Z 00430540 f   PVRTexLib:PVRTextureHeader.obj
 0001:0002f600       ?isBumpMap@CPVRTextureHeader@pvrtexture@@QBE_NXZ 00430600 f   PVRTexLib:PVRTextureHeader.obj
 0001:0002f660       ?getBumpMapScale@CPVRTextureHeader@pvrtexture@@QBEMXZ 00430660 f   PVRTexLib:PVRTextureHeader.obj
 0001:0002f700       ?getBumpMapOrder@CPVRTextureHeader@pvrtexture@@QBE?AVCPVRTString@@XZ 00430700 f   PVRTexLib:PVRTextureHeader.obj
 0001:0002f870       ?getNumTextureAtlasMembers@CPVRTextureHeader@pvrtexture@@QBEHXZ 00430870 f   PVRTexLib:PVRTextureHeader.obj
 0001:0002f970       ?getTextureAtlasData@CPVRTextureHeader@pvrtexture@@QBEPBMXZ 00430970 f   PVRTexLib:PVRTextureHeader.obj
 0001:0002fa10       ?getCubeMapOrder@CPVRTextureHeader@pvrtexture@@QBE?AVCPVRTString@@XZ 00430a10 f   PVRTexLib:PVRTextureHeader.obj
 0001:0002fb90       ?getBorder@CPVRTextureHeader@pvrtexture@@QBEXAAI00@Z 00430b90 f   PVRTexLib:PVRTextureHeader.obj
 0001:0002fc60       ?getMetaData@CPVRTextureHeader@pvrtexture@@QBE?AUMetaDataBlock@@II@Z 00430c60 f   PVRTexLib:PVRTextureHeader.obj
 0001:0002fd50       ?hasMetaData@CPVRTextureHeader@pvrtexture@@QBE_NII@Z 00430d50 f   PVRTexLib:PVRTextureHeader.obj
 0001:0002fdc0       ?Append@?$CPVRTArray@I@@QAEIABI@Z 00430dc0 f i PVRTexLib:PVRTextureHeader.obj
 0001:0002fdf0       ??0?$CPVRTMap@IUMetaDataBlock@@@@QAE@XZ 00430df0 f i PVRTexLib:PVRTextureHeader.obj
 0001:0002fe80       ?Append@?$CPVRTArray@UMetaDataBlock@@@@QAEIABUMetaDataBlock@@@Z 00430e80 f i PVRTexLib:PVRTextureHeader.obj
 0001:0002feb0       ??A?$CPVRTMap@IUMetaDataBlock@@@@QAEAAUMetaDataBlock@@I@Z 00430eb0 f i PVRTexLib:PVRTextureHeader.obj
 0001:0002ff90       ??0?$CPVRTArray@V?$CPVRTMap@IUMetaDataBlock@@@@@@QAE@XZ 00430f90 f i PVRTexLib:PVRTextureHeader.obj
 0001:00030050       ?SetCapacity@?$CPVRTArray@V?$CPVRTMap@IUMetaDataBlock@@@@@@QAE?AW4EPVRTError@@I@Z 00431050 f i PVRTexLib:PVRTextureHeader.obj
 0001:000301c0       ??$Copy@V?$CPVRTMap@IUMetaDataBlock@@@@@?$CPVRTArray@V?$CPVRTMap@IUMetaDataBlock@@@@@@QAEXABV0@@Z 004311c0 f i PVRTexLib:PVRTextureHeader.obj
 0001:00030300       ??4?$CPVRTArray@V?$CPVRTMap@IUMetaDataBlock@@@@@@QAEAAV0@ABV0@@Z 00431300 f i PVRTexLib:PVRTextureHeader.obj
 0001:00030320       ?Append@?$CPVRTArray@V?$CPVRTMap@IUMetaDataBlock@@@@@@QAEIXZ 00431320 f i PVRTexLib:PVRTextureHeader.obj
 0001:00030340       ??4?$CPVRTMap@IV?$CPVRTMap@IUMetaDataBlock@@@@@@QAEAAV0@ABV0@@Z 00431340 f i PVRTexLib:PVRTextureHeader.obj
 0001:00030380       ??0?$CPVRTMap@IV?$CPVRTMap@IUMetaDataBlock@@@@@@QAE@XZ 00431380 f i PVRTexLib:PVRTextureHeader.obj
 0001:00030410       ?Append@?$CPVRTArray@V?$CPVRTMap@IUMetaDataBlock@@@@@@QAEIABV?$CPVRTMap@IUMetaDataBlock@@@@@Z 00431410 f i PVRTexLib:PVRTextureHeader.obj
 0001:00030460       ??0CPVRTextureHeader@pvrtexture@@QAE@XZ 00431460 f   PVRTexLib:PVRTextureHeader.obj
 0001:00030520       ??0CPVRTextureHeader@pvrtexture@@QAE@_KIIIIIIW4EPVRTColourSpace@@W4EPVRTVariableType@@_N@Z 00431520 f   PVRTexLib:PVRTextureHeader.obj
 0001:00030630       ??4CPVRTextureHeader@pvrtexture@@QAEAAV01@ABV01@@Z 00431630 f   PVRTexLib:PVRTextureHeader.obj
 0001:00030680       ??A?$CPVRTMap@IV?$CPVRTMap@IUMetaDataBlock@@@@@@QAEAAV?$CPVRTMap@IUMetaDataBlock@@@@I@Z 00431680 f i PVRTexLib:PVRTextureHeader.obj
 0001:000307d0       ?setOrientation@CPVRTextureHeader@pvrtexture@@QAEXW4EPVRTOrientation@@@Z 004317d0 f   PVRTexLib:PVRTextureHeader.obj
 0001:00030890       ?setBumpMap@CPVRTextureHeader@pvrtexture@@QAEXMVCPVRTString@@@Z 00431890 f   PVRTexLib:PVRTextureHeader.obj
 0001:00030990       ?setTextureAtlas@CPVRTextureHeader@pvrtexture@@QAEXPAMI@Z 00431990 f   PVRTexLib:PVRTextureHeader.obj
 0001:00030a20       ?setCubeMapOrder@CPVRTextureHeader@pvrtexture@@QAEXVCPVRTString@@@Z 00431a20 f   PVRTexLib:PVRTextureHeader.obj
 0001:00030b20       ?setBorder@CPVRTextureHeader@pvrtexture@@QAEXIII@Z 00431b20 f   PVRTexLib:PVRTextureHeader.obj
 0001:00030bc0       ?addMetaData@CPVRTextureHeader@pvrtexture@@QAEXABUMetaDataBlock@@@Z 00431bc0 f   PVRTexLib:PVRTextureHeader.obj
 0001:00030c00       ?removeMetaData@CPVRTextureHeader@pvrtexture@@QAEXABI0@Z 00431c00 f   PVRTexLib:PVRTextureHeader.obj
 0001:00030c50       ??0CPVRTextureHeader@pvrtexture@@QAE@UPVRTextureHeaderV3@@IPAUMetaDataBlock@@@Z 00431c50 f   PVRTexLib:PVRTextureHeader.obj
 0001:00030d10       ?getDataPtr@CPVRTexture@pvrtexture@@QBEPAXIII@Z 00431d10 f   PVRTexLib:PVRTexture.obj
 0001:00030db0       ?getHeader@CPVRTexture@pvrtexture@@QBEABVCPVRTextureHeader@2@XZ 00431db0 f   PVRTexLib:PVRTexture.obj
 0001:00030dc0       ?addPaddingMetaData@CPVRTexture@pvrtexture@@QAEXI@Z 00431dc0 f   PVRTexLib:PVRTexture.obj
 0001:00030e60       ?privateLoadPVRFile@CPVRTexture@pvrtexture@@AAE_NPAU_iobuf@@@Z 00431e60 f   PVRTexLib:PVRTexture.obj
 0001:000311e0       ?privateLoadKTXFile@CPVRTexture@pvrtexture@@AAE_NPAU_iobuf@@@Z 004321e0 f   PVRTexLib:PVRTexture.obj
 0001:000317e0       ?privateSaveKTXFile@CPVRTexture@pvrtexture@@ABE_NPAU_iobuf@@@Z 004327e0 f   PVRTexLib:PVRTexture.obj
 0001:00031dd0       ?privateLoadDDSFile@CPVRTexture@pvrtexture@@AAE_NPAU_iobuf@@@Z 00432dd0 f   PVRTexLib:PVRTexture.obj
 0001:000325b0       ?privateSaveDDSFile@CPVRTexture@pvrtexture@@ABE_NPAU_iobuf@@@Z 004335b0 f   PVRTexLib:PVRTexture.obj
 0001:00032f10       ??0?$CPVRTArray@I@@QAE@ABV0@@Z 00433f10 f i PVRTexLib:PVRTexture.obj
 0001:00032f70       ?privateSavePVRFile@CPVRTexture@pvrtexture@@ABE_NPAU_iobuf@@@Z 00433f70 f   PVRTexLib:PVRTexture.obj
 0001:00033090       ?privateSaveCHeaderFile@CPVRTexture@pvrtexture@@ABE_NPAU_iobuf@@VCPVRTString@@@Z 00434090 f   PVRTexLib:PVRTexture.obj
 0001:00033340       ?saveFile@CPVRTexture@pvrtexture@@QBE_NABVCPVRTString@@@Z 00434340 f   PVRTexLib:PVRTexture.obj
 0001:00033640       ??0?$CPVRTArray@V?$CPVRTMap@IUMetaDataBlock@@@@@@QAE@ABV0@@Z 00434640 f i PVRTexLib:PVRTexture.obj
 0001:00033740       ??0?$CPVRTMap@IV?$CPVRTMap@IUMetaDataBlock@@@@@@QAE@ABV0@@Z 00434740 f i PVRTexLib:PVRTexture.obj
 0001:000337b0       ??0CPVRTextureHeader@pvrtexture@@QAE@ABV01@@Z 004347b0 f i PVRTexLib:PVRTexture.obj
 0001:00033830       ??0CPVRTexture@pvrtexture@@QAE@ABV01@@Z 00434830 f   PVRTexLib:PVRTexture.obj
 0001:000338f0       ??0CPVRTexture@pvrtexture@@QAE@PBD@Z 004348f0 f   PVRTexLib:PVRTexture.obj
 0001:00033a60       ??0CPVRTexture@pvrtexture@@QAE@PBX@Z 00434a60 f   PVRTexLib:PVRTexture.obj
 0001:00033d00       ??1CPVRTexture@pvrtexture@@QAE@XZ 00434d00 f   PVRTexLib:PVRTexture.obj
 0001:00033d70       ??4CPVRTexture@pvrtexture@@QAEAAV01@ABV01@@Z 00434d70 f   PVRTexLib:PVRTexture.obj
 0001:00033e00       ?privateSaveLegacyPVRFile@CPVRTexture@pvrtexture@@ABE_NPAU_iobuf@@W4ELegacyApi@2@@Z 00434e00 f   PVRTexLib:PVRTexture.obj
 0001:00033f80       ??0CPVRTexture@pvrtexture@@QAE@XZ 00434f80 f   PVRTexLib:PVRTexture.obj
 0001:00033ff0       ??0CPVRTexture@pvrtexture@@QAE@ABVCPVRTextureHeader@1@PBX@Z 00434ff0 f   PVRTexLib:PVRTexture.obj
 0001:000340b0       ?saveFileLegacyPVR@CPVRTexture@pvrtexture@@QBE_NABVCPVRTString@@W4ELegacyApi@2@@Z 004350b0 f   PVRTexLib:PVRTexture.obj
 0001:00034200       ?getMaxChannelValue@?$Pixel@E@pvrtexture@@SAEXZ 00435200 f i PVRTexLib:PVRTextureUtilities.obj
 0001:00034210       ?getMaxChannelValue@?$Pixel@G@pvrtexture@@SAGXZ 00435210 f i PVRTexLib:PVRTextureUtilities.obj
 0001:00034220       ?getMaxChannelValue@?$Pixel@I@pvrtexture@@SAIXZ 00435220 f i PVRTexLib:PVRTextureUtilities.obj
 0001:00034230       ?getMaxChannelValue@?$Pixel@M@pvrtexture@@SAMXZ 00435230 f i PVRTexLib:PVRTextureUtilities.obj
 0001:00034240       ?IntermediateTranscodeFormat@pvrtexture@@YAXABTPixelType@1@ABW4EPVRTVariableType@@AAT21@AAW43@@Z 00435240 f   PVRTexLib:PVRTextureUtilities.obj
 0001:00034410       ?TranscodeTrivial@pvrtexture@@YAIAAVCPVRTexture@1@0AAVCPixelEncoder@1@1W4EPVRTColourSpace@@W44@@Z 00435410 f   PVRTexLib:PVRTextureUtilities.obj
 0001:00034580       ?ClampColourBits@pvrtexture@@YAEABHABE@Z 00435580 f i PVRTexLib:PVRTextureUtilities.obj
 0001:000345b0       ?GetQuantisedValue@pvrtexture@@YAIABIABE1@Z 004355b0 f i PVRTexLib:PVRTextureUtilities.obj
 0001:00034600       ?evaluateSplines@pvrtexture@@YAMQBMABM@Z 00435600 f   PVRTexLib:PVRTextureUtilities.obj
 0001:00034690       ?MapCharToEnum@pvrtexture@@YA?AW4EChannelName@1@E@Z 00435690 f   PVRTexLib:PVRTextureUtilities.obj
 0001:00034720       ?MapEnumToChar@pvrtexture@@YAEW4EChannelName@1@@Z 00435720 f   PVRTexLib:PVRTextureUtilities.obj
 0001:00034770       ?isStandardPixelType@pvrtexture@@YA_NABTPixelType@1@ABW4EPVRTVariableType@@@Z 00435770 f   PVRTexLib:PVRTextureUtilities.obj
 0001:000347d0       ??$_Pow_int@M@@YAMMH@Z     004357d0 f i PVRTexLib:PVRTextureUtilities.obj
 0001:00034820       ??$Rotate90@E@pvrtexture@@YA_NPAU?$Pixel@E@0@0ABI11W4EPVRTAxis@@_N@Z 00435820 f i PVRTexLib:PVRTextureUtilities.obj
 0001:00034bc0       ??$Rotate90@G@pvrtexture@@YA_NPAU?$Pixel@G@0@0ABI11W4EPVRTAxis@@_N@Z 00435bc0 f i PVRTexLib:PVRTextureUtilities.obj
 0001:00034fb0       ??$Rotate90@I@pvrtexture@@YA_NPAU?$Pixel@I@0@0ABI11W4EPVRTAxis@@_N@Z 00435fb0 f i PVRTexLib:PVRTextureUtilities.obj
 0001:00035430       ??$Rotate90@M@pvrtexture@@YA_NPAU?$Pixel@M@0@0ABI11W4EPVRTAxis@@_N@Z 00436430 f i PVRTexLib:PVRTextureUtilities.obj
 0001:000358b0       ??$Border@E@pvrtexture@@YA_NPAU?$Pixel@E@0@0IIIIII@Z 004368b0 f i PVRTexLib:PVRTextureUtilities.obj
 0001:00035d10       ??$Border@G@pvrtexture@@YA_NPAU?$Pixel@G@0@0IIIIII@Z 00436d10 f i PVRTexLib:PVRTextureUtilities.obj
 0001:000361b0       ??$Border@I@pvrtexture@@YA_NPAU?$Pixel@I@0@0IIIIII@Z 004371b0 f i PVRTexLib:PVRTextureUtilities.obj
 0001:000366e0       ??$Border@M@pvrtexture@@YA_NPAU?$Pixel@M@0@0IIIIII@Z 004376e0 f i PVRTexLib:PVRTextureUtilities.obj
 0001:00036c10       ??$PreMultiplyAlpha@E@pvrtexture@@YA_NPAU?$Pixel@E@0@ABI11@Z 00437c10 f i PVRTexLib:PVRTextureUtilities.obj
 0001:00036cf0       ??$PreMultiplyAlpha@G@pvrtexture@@YA_NPAU?$Pixel@G@0@ABI11@Z 00437cf0 f i PVRTexLib:PVRTextureUtilities.obj
 0001:00036de0       ??$PreMultiplyAlpha@I@pvrtexture@@YA_NPAU?$Pixel@I@0@ABI11@Z 00437de0 f i PVRTexLib:PVRTextureUtilities.obj
 0001:00036ee0       ??$PreMultiplyAlpha@M@pvrtexture@@YA_NPAU?$Pixel@M@0@ABI11@Z 00437ee0 f i PVRTexLib:PVRTextureUtilities.obj
 0001:00036fb0       ??$Bleed@E@pvrtexture@@YA_NPAU?$Pixel@E@0@ABI11@Z 00437fb0 f i PVRTexLib:PVRTextureUtilities.obj
 0001:00037240       ??$Bleed@G@pvrtexture@@YA_NPAU?$Pixel@G@0@ABI11@Z 00438240 f i PVRTexLib:PVRTextureUtilities.obj
 0001:000374d0       ??$Bleed@I@pvrtexture@@YA_NPAU?$Pixel@I@0@ABI11@Z 004384d0 f i PVRTexLib:PVRTextureUtilities.obj
 0001:00037770       ??$Bleed@M@pvrtexture@@YA_NPAU?$Pixel@M@0@ABI11@Z 00438770 f i PVRTexLib:PVRTextureUtilities.obj
 0001:000379b0       ??$SetChannels@EI@pvrtexture@@YA_NPAU?$Pixel@E@0@ABI111PAW4EChannelName@0@PAI@Z 004389b0 f i PVRTexLib:PVRTextureUtilities.obj
 0001:00037a60       ??$SetChannels@GI@pvrtexture@@YA_NPAU?$Pixel@G@0@ABI111PAW4EChannelName@0@PAI@Z 00438a60 f i PVRTexLib:PVRTextureUtilities.obj
 0001:00037b20       ??$SetChannels@II@pvrtexture@@YA_NPAU?$Pixel@I@0@ABI111PAW4EChannelName@0@PAI@Z 00438b20 f i PVRTexLib:PVRTextureUtilities.obj
 0001:00037bd0       ??$SetChannels@MI@pvrtexture@@YA_NPAU?$Pixel@M@0@ABI111PAW4EChannelName@0@PAI@Z 00438bd0 f i PVRTexLib:PVRTextureUtilities.obj
 0001:00037cd0       ??$SetChannels@EM@pvrtexture@@YA_NPAU?$Pixel@E@0@ABI111PAW4EChannelName@0@PAM@Z 00438cd0 f i PVRTexLib:PVRTextureUtilities.obj
 0001:00037ef0       ??$SetChannels@GM@pvrtexture@@YA_NPAU?$Pixel@G@0@ABI111PAW4EChannelName@0@PAM@Z 00438ef0 f i PVRTexLib:PVRTextureUtilities.obj
 0001:00038120       ??$SetChannels@IM@pvrtexture@@YA_NPAU?$Pixel@I@0@ABI111PAW4EChannelName@0@PAM@Z 00439120 f i PVRTexLib:PVRTextureUtilities.obj
 0001:00038340       ??$SetChannels@MM@pvrtexture@@YA_NPAU?$Pixel@M@0@ABI111PAW4EChannelName@0@PAM@Z 00439340 f i PVRTexLib:PVRTextureUtilities.obj
 0001:000383f0       ??$CopyChannels@EE@pvrtexture@@YA_NPAU?$Pixel@E@0@0ABI111PAW4EChannelName@0@2@Z 004393f0 f i PVRTexLib:PVRTextureUtilities.obj
 0001:00038730       ??$CopyChannels@EG@pvrtexture@@YA_NPAU?$Pixel@E@0@PAU?$Pixel@G@0@ABI222PAW4EChannelName@0@3@Z 00439730 f i PVRTexLib:PVRTextureUtilities.obj
 0001:00038a70       ??$CopyChannels@EI@pvrtexture@@YA_NPAU?$Pixel@E@0@PAU?$Pixel@I@0@ABI222PAW4EChannelName@0@3@Z 00439a70 f i PVRTexLib:PVRTextureUtilities.obj
 0001:00038d90       ??$CopyChannels@EM@pvrtexture@@YA_NPAU?$Pixel@E@0@PAU?$Pixel@M@0@ABI222PAW4EChannelName@0@3@Z 00439d90 f i PVRTexLib:PVRTextureUtilities.obj
 0001:00038fe0       ??$CopyChannels@GE@pvrtexture@@YA_NPAU?$Pixel@G@0@PAU?$Pixel@E@0@ABI222PAW4EChannelName@0@3@Z 00439fe0 f i PVRTexLib:PVRTextureUtilities.obj
 0001:00039310       ??$CopyChannels@GG@pvrtexture@@YA_NPAU?$Pixel@G@0@0ABI111PAW4EChannelName@0@2@Z 0043a310 f i PVRTexLib:PVRTextureUtilities.obj
 0001:00039660       ??$CopyChannels@GI@pvrtexture@@YA_NPAU?$Pixel@G@0@PAU?$Pixel@I@0@ABI222PAW4EChannelName@0@3@Z 0043a660 f i PVRTexLib:PVRTextureUtilities.obj
 0001:00039990       ??$CopyChannels@GM@pvrtexture@@YA_NPAU?$Pixel@G@0@PAU?$Pixel@M@0@ABI222PAW4EChannelName@0@3@Z 0043a990 f i PVRTexLib:PVRTextureUtilities.obj
 0001:00039be0       ??$CopyChannels@IE@pvrtexture@@YA_NPAU?$Pixel@I@0@PAU?$Pixel@E@0@ABI222PAW4EChannelName@0@3@Z 0043abe0 f i PVRTexLib:PVRTextureUtilities.obj
 0001:00039f50       ??$CopyChannels@IG@pvrtexture@@YA_NPAU?$Pixel@I@0@PAU?$Pixel@G@0@ABI222PAW4EChannelName@0@3@Z 0043af50 f i PVRTexLib:PVRTextureUtilities.obj
 0001:0003a2d0       ??$CopyChannels@II@pvrtexture@@YA_NPAU?$Pixel@I@0@0ABI111PAW4EChannelName@0@2@Z 0043b2d0 f i PVRTexLib:PVRTextureUtilities.obj
 0001:0003a650       ??$CopyChannels@IM@pvrtexture@@YA_NPAU?$Pixel@I@0@PAU?$Pixel@M@0@ABI222PAW4EChannelName@0@3@Z 0043b650 f i PVRTexLib:PVRTextureUtilities.obj
 0001:0003a8b0       ??$CopyChannels@ME@pvrtexture@@YA_NPAU?$Pixel@M@0@PAU?$Pixel@E@0@ABI222PAW4EChannelName@0@3@Z 0043b8b0 f i PVRTexLib:PVRTextureUtilities.obj
 0001:0003ab80       ??$CopyChannels@MG@pvrtexture@@YA_NPAU?$Pixel@M@0@PAU?$Pixel@G@0@ABI222PAW4EChannelName@0@3@Z 0043bb80 f i PVRTexLib:PVRTextureUtilities.obj
 0001:0003ae60       ??$CopyChannels@MI@pvrtexture@@YA_NPAU?$Pixel@M@0@PAU?$Pixel@I@0@ABI222PAW4EChannelName@0@3@Z 0043be60 f i PVRTexLib:PVRTextureUtilities.obj
 0001:0003b130       ??$CopyChannels@MM@pvrtexture@@YA_NPAU?$Pixel@M@0@0ABI111PAW4EChannelName@0@2@Z 0043c130 f i PVRTexLib:PVRTextureUtilities.obj
 0001:0003b2e0       ??$SetChannels@EE@pvrtexture@@YA_NPAU?$Pixel@E@0@ABI111PAW4EChannelName@0@PAE@Z 0043c2e0 f i PVRTexLib:PVRTextureUtilities.obj
 0001:0003b390       ??0?$Pixel@E@pvrtexture@@QAE@XZ 0043c390 f i PVRTexLib:PVRTextureUtilities.obj
 0001:0003b3a0       ??0?$Pixel@E@pvrtexture@@QAE@EEEE@Z 0043c3a0 f i PVRTexLib:PVRTextureUtilities.obj
 0001:0003b3c0       ??A?$Pixel@E@pvrtexture@@QAEAAEI@Z 0043c3c0 f i PVRTexLib:PVRTextureUtilities.obj
 0001:0003b3d0       ??0?$Pixel@G@pvrtexture@@QAE@XZ 0043c3d0 f i PVRTexLib:PVRTextureUtilities.obj
 0001:0003b3e0       ??0?$Pixel@G@pvrtexture@@QAE@GGGG@Z 0043c3e0 f i PVRTexLib:PVRTextureUtilities.obj
 0001:0003b410       ??A?$Pixel@G@pvrtexture@@QAEAAGI@Z 0043c410 f i PVRTexLib:PVRTextureUtilities.obj
 0001:0003b420       ??0?$Pixel@I@pvrtexture@@QAE@XZ 0043c420 f i PVRTexLib:PVRTextureUtilities.obj
 0001:0003b430       ??0?$Pixel@I@pvrtexture@@QAE@IIII@Z 0043c430 f i PVRTexLib:PVRTextureUtilities.obj
 0001:0003b450       ??A?$Pixel@I@pvrtexture@@QAEAAII@Z 0043c450 f i PVRTexLib:PVRTextureUtilities.obj
 0001:0003b460       ??0?$Pixel@M@pvrtexture@@QAE@XZ 0043c460 f i PVRTexLib:PVRTextureUtilities.obj
 0001:0003b470       ??0?$Pixel@M@pvrtexture@@QAE@MMMM@Z 0043c470 f i PVRTexLib:PVRTextureUtilities.obj
 0001:0003b490       ??A?$Pixel@M@pvrtexture@@QAEAAMI@Z 0043c490 f i PVRTexLib:PVRTextureUtilities.obj
 0001:0003b4a0       ??$PVRTswap@PAU?$Pixel@E@pvrtexture@@@@YAXAAPAU?$Pixel@E@pvrtexture@@0@Z 0043c4a0 f i PVRTexLib:PVRTextureUtilities.obj
 0001:0003b4c0       ??$PVRTswap@PAU?$Pixel@G@pvrtexture@@@@YAXAAPAU?$Pixel@G@pvrtexture@@0@Z 0043c4c0 f i PVRTexLib:PVRTextureUtilities.obj
 0001:0003b4e0       ??$PVRTswap@PAU?$Pixel@I@pvrtexture@@@@YAXAAPAU?$Pixel@I@pvrtexture@@0@Z 0043c4e0 f i PVRTexLib:PVRTextureUtilities.obj
 0001:0003b500       ??$PVRTswap@PAU?$Pixel@M@pvrtexture@@@@YAXAAPAU?$Pixel@M@pvrtexture@@0@Z 0043c500 f i PVRTexLib:PVRTextureUtilities.obj
 0001:0003b520       ??$SampleNearest@E@pvrtexture@@YAXPAU?$Pixel@E@0@0ABI1111@Z 0043c520 f i PVRTexLib:PVRTextureUtilities.obj
 0001:0003b550       ??$SampleCubic@E@pvrtexture@@YAXPAU?$Pixel@E@0@0ABI11ABM22@Z 0043c550 f i PVRTexLib:PVRTextureUtilities.obj
 0001:0003be20       ??$SampleNearest@G@pvrtexture@@YAXPAU?$Pixel@G@0@0ABI1111@Z 0043ce20 f i PVRTexLib:PVRTextureUtilities.obj
 0001:0003be60       ??$SampleCubic@G@pvrtexture@@YAXPAU?$Pixel@G@0@0ABI11ABM22@Z 0043ce60 f i PVRTexLib:PVRTextureUtilities.obj
 0001:0003c730       ??$SampleNearest@I@pvrtexture@@YAXPAU?$Pixel@I@0@0ABI1111@Z 0043d730 f i PVRTexLib:PVRTextureUtilities.obj
 0001:0003c770       ??$SampleCubic@I@pvrtexture@@YAXPAU?$Pixel@I@0@0ABI11ABM22@Z 0043d770 f i PVRTexLib:PVRTextureUtilities.obj
 0001:0003d050       ??$SampleNearest@M@pvrtexture@@YAXPAU?$Pixel@M@0@0ABI1111@Z 0043e050 f i PVRTexLib:PVRTextureUtilities.obj
 0001:0003d090       ??$SampleCubic@M@pvrtexture@@YAXPAU?$Pixel@M@0@0ABI11ABM22@Z 0043e090 f i PVRTexLib:PVRTextureUtilities.obj
 0001:0003d8e0       ??Y?$Pixel@M@pvrtexture@@QAEAAU01@ABU01@@Z 0043e8e0 f i PVRTexLib:PVRTextureUtilities.obj
 0001:0003d910       ??D?$Pixel@M@pvrtexture@@QAE?AU01@M@Z 0043e910 f i PVRTexLib:PVRTextureUtilities.obj
 0001:0003d940       ??$?0E@?$Pixel@M@pvrtexture@@QAE@ABU?$Pixel@E@1@@Z 0043e940 f i PVRTexLib:PVRTextureUtilities.obj
 0001:0003d980       ??$?0M@?$Pixel@E@pvrtexture@@QAE@ABU?$Pixel@M@1@@Z 0043e980 f i PVRTexLib:PVRTextureUtilities.obj
 0001:0003da20       ??$?0G@?$Pixel@M@pvrtexture@@QAE@ABU?$Pixel@G@1@@Z 0043ea20 f i PVRTexLib:PVRTextureUtilities.obj
 0001:0003da60       ??$?0M@?$Pixel@G@pvrtexture@@QAE@ABU?$Pixel@M@1@@Z 0043ea60 f i PVRTexLib:PVRTextureUtilities.obj
 0001:0003db00       ??$?0I@?$Pixel@M@pvrtexture@@QAE@ABU?$Pixel@I@1@@Z 0043eb00 f i PVRTexLib:PVRTextureUtilities.obj
 0001:0003db60       ??$?0M@?$Pixel@I@pvrtexture@@QAE@ABU?$Pixel@M@1@@Z 0043eb60 f i PVRTexLib:PVRTextureUtilities.obj
 0001:0003dc00       ?pow@@YAMMH@Z              0043ec00 f i PVRTexLib:PVRTextureUtilities.obj
 0001:0003dc20       ?PreMultiplyAlpha@pvrtexture@@YA_NAAVCPVRTexture@1@@Z 0043ec20 f   PVRTexLib:PVRTextureUtilities.obj
 0001:0003de40       ?Bleed@pvrtexture@@YA_NAAVCPVRTexture@1@@Z 0043ee40 f   PVRTexLib:PVRTextureUtilities.obj
 0001:0003e060       ?SetChannels@pvrtexture@@YA_NAAVCPVRTexture@1@IPAW4EChannelName@1@PAI@Z 0043f060 f   PVRTexLib:PVRTextureUtilities.obj
 0001:0003e2b0       ?SetChannelsFloat@pvrtexture@@YA_NAAVCPVRTexture@1@IPAW4EChannelName@1@PAM@Z 0043f2b0 f   PVRTexLib:PVRTextureUtilities.obj
 0001:0003e500       ?CopyChannels@pvrtexture@@YA_NAAVCPVRTexture@1@ABV21@IPAW4EChannelName@1@2@Z 0043f500 f   PVRTexLib:PVRTextureUtilities.obj
 0001:0003ecd0       ?Dither@pvrtexture@@YAXPAETPixelType@1@III@Z 0043fcd0 f   PVRTexLib:PVRTextureUtilities.obj
 0001:0003f0a0       ??$StretchCanvas@E@pvrtexture@@YA_NPAU?$Pixel@E@0@0IIIIIIHHH@Z 004400a0 f i PVRTexLib:PVRTextureUtilities.obj
 0001:0003f180       ??$StretchCanvas@G@pvrtexture@@YA_NPAU?$Pixel@G@0@0IIIIIIHHH@Z 00440180 f i PVRTexLib:PVRTextureUtilities.obj
 0001:0003f280       ??$StretchCanvas@I@pvrtexture@@YA_NPAU?$Pixel@I@0@0IIIIIIHHH@Z 00440280 f i PVRTexLib:PVRTextureUtilities.obj
 0001:0003f390       ??$StretchCanvas@M@pvrtexture@@YA_NPAU?$Pixel@M@0@0IIIIIIHHH@Z 00440390 f i PVRTexLib:PVRTextureUtilities.obj
 0001:0003f6d0       ??$Flip@E@pvrtexture@@YA_NPAU?$Pixel@E@0@ABI11W4EPVRTAxis@@@Z 004406d0 f i PVRTexLib:PVRTextureUtilities.obj
 0001:0003f8c0       ??$Flip@G@pvrtexture@@YA_NPAU?$Pixel@G@0@ABI11W4EPVRTAxis@@@Z 004408c0 f i PVRTexLib:PVRTextureUtilities.obj
 0001:0003fae0       ??$Flip@I@pvrtexture@@YA_NPAU?$Pixel@I@0@ABI11W4EPVRTAxis@@@Z 00440ae0 f i PVRTexLib:PVRTextureUtilities.obj
 0001:0003fd90       ??$Flip@M@pvrtexture@@YA_NPAU?$Pixel@M@0@ABI11W4EPVRTAxis@@@Z 00440d90 f i PVRTexLib:PVRTextureUtilities.obj
 0001:00040040       ??$CreateNormalMap@E@pvrtexture@@YA_NPAU?$Pixel@E@0@PAU?$Pixel@M@0@IIIMPBD@Z 00441040 f i PVRTexLib:PVRTextureUtilities.obj
 0001:000403e0       ??$CreateNormalMap@G@pvrtexture@@YA_NPAU?$Pixel@G@0@PAU?$Pixel@M@0@IIIMPBD@Z 004413e0 f i PVRTexLib:PVRTextureUtilities.obj
 0001:00040780       ??$CreateNormalMap@I@pvrtexture@@YA_NPAU?$Pixel@I@0@PAU?$Pixel@M@0@IIIMPBD@Z 00441780 f i PVRTexLib:PVRTextureUtilities.obj
 0001:00040b40       ??$CreateNormalMap@M@pvrtexture@@YA_NPAU?$Pixel@M@0@0IIIMPBD@Z 00441b40 f i PVRTexLib:PVRTextureUtilities.obj
 0001:00040e60       ??$ColourMIPMap@E@pvrtexture@@YA_NPAU?$Pixel@E@0@ABI111@Z 00441e60 f i PVRTexLib:PVRTextureUtilities.obj
 0001:00040f30       ??$ColourMIPMap@G@pvrtexture@@YA_NPAU?$Pixel@G@0@ABI111@Z 00441f30 f i PVRTexLib:PVRTextureUtilities.obj
 0001:00041010       ??$ColourMIPMap@I@pvrtexture@@YA_NPAU?$Pixel@I@0@ABI111@Z 00442010 f i PVRTexLib:PVRTextureUtilities.obj
 0001:000410f0       ??$ColourMIPMap@M@pvrtexture@@YA_NPAU?$Pixel@M@0@ABI111@Z 004420f0 f i PVRTexLib:PVRTextureUtilities.obj
 0001:000411a0       ??$SampleLinear@E@pvrtexture@@YAXPAU?$Pixel@E@0@0ABI11ABM22@Z 004421a0 f i PVRTexLib:PVRTextureUtilities.obj
 0001:000417a0       ??$ConvolutionKernel@E@pvrtexture@@YA_NPAU?$Pixel@E@0@0IIIPAMMIII@Z 004427a0 f i PVRTexLib:PVRTextureUtilities.obj
 0001:00041a90       ??$SampleLinear@G@pvrtexture@@YAXPAU?$Pixel@G@0@0ABI11ABM22@Z 00442a90 f i PVRTexLib:PVRTextureUtilities.obj
 0001:000421e0       ??$ConvolutionKernel@G@pvrtexture@@YA_NPAU?$Pixel@G@0@0IIIPAMMIII@Z 004431e0 f i PVRTexLib:PVRTextureUtilities.obj
 0001:00042460       ??$SampleLinear@I@pvrtexture@@YAXPAU?$Pixel@I@0@0ABI11ABM22@Z 00443460 f i PVRTexLib:PVRTextureUtilities.obj
 0001:00042bc0       ??$ConvolutionKernel@I@pvrtexture@@YA_NPAU?$Pixel@I@0@0IIIPAMMIII@Z 00443bc0 f i PVRTexLib:PVRTextureUtilities.obj
 0001:00042ed0       ??$SampleLinear@M@pvrtexture@@YAXPAU?$Pixel@M@0@0ABI11ABM22@Z 00443ed0 f i PVRTexLib:PVRTextureUtilities.obj
 0001:000435d0       ??$ConvolutionKernel@M@pvrtexture@@YA_NPAU?$Pixel@M@0@0IIIPAMMIII@Z 004445d0 f i PVRTexLib:PVRTextureUtilities.obj
 0001:00043830       ?Flip@pvrtexture@@YA_NAAVCPVRTexture@1@W4EPVRTAxis@@@Z 00444830 f   PVRTexLib:PVRTextureUtilities.obj
 0001:00043a60       ?ColourMIPMaps@pvrtexture@@YA_NAAVCPVRTexture@1@@Z 00444a60 f   PVRTexLib:PVRTextureUtilities.obj
 0001:00043ca0       ??$StretchImage@E@pvrtexture@@YA_NPAU?$Pixel@E@0@0IIIIIIW4EResizeMode@0@@Z 00444ca0 f i PVRTexLib:PVRTextureUtilities.obj
 0001:00044520       ??$StretchImage@G@pvrtexture@@YA_NPAU?$Pixel@G@0@0IIIIIIW4EResizeMode@0@@Z 00445520 f i PVRTexLib:PVRTextureUtilities.obj
 0001:00044db0       ??$StretchImage@I@pvrtexture@@YA_NPAU?$Pixel@I@0@0IIIIIIW4EResizeMode@0@@Z 00445db0 f i PVRTexLib:PVRTextureUtilities.obj
 0001:00045650       ??$StretchImage@M@pvrtexture@@YA_NPAU?$Pixel@M@0@0IIIIIIW4EResizeMode@0@@Z 00446650 f i PVRTexLib:PVRTextureUtilities.obj
 0001:00045ef0       ??$SteppedStretchImage@E@pvrtexture@@YA_NPAU?$Pixel@E@0@0IIIIIIW4EResizeMode@0@@Z 00446ef0 f i PVRTexLib:PVRTextureUtilities.obj
 0001:000460a0       ??$SteppedStretchImage@G@pvrtexture@@YA_NPAU?$Pixel@G@0@0IIIIIIW4EResizeMode@0@@Z 004470a0 f i PVRTexLib:PVRTextureUtilities.obj
 0001:00046250       ??$SteppedStretchImage@I@pvrtexture@@YA_NPAU?$Pixel@I@0@0IIIIIIW4EResizeMode@0@@Z 00447250 f i PVRTexLib:PVRTextureUtilities.obj
 0001:00046400       ??$SteppedStretchImage@M@pvrtexture@@YA_NPAU?$Pixel@M@0@0IIIIIIW4EResizeMode@0@@Z 00447400 f i PVRTexLib:PVRTextureUtilities.obj
 0001:000465b0       ?ResizeCanvas@pvrtexture@@YA_NAAVCPVRTexture@1@ABI11ABH22@Z 004475b0 f   PVRTexLib:PVRTextureUtilities.obj
 0001:000469b0       ?Rotate90@pvrtexture@@YA_NAAVCPVRTexture@1@W4EPVRTAxis@@_N@Z 004479b0 f   PVRTexLib:PVRTextureUtilities.obj
 0001:00046d80       ?Border@pvrtexture@@YA_NAAVCPVRTexture@1@III@Z 00447d80 f   PVRTexLib:PVRTextureUtilities.obj
 0001:00047100       ?GenerateNormalMap@pvrtexture@@YA_NAAVCPVRTexture@1@MVCPVRTString@@@Z 00448100 f   PVRTexLib:PVRTextureUtilities.obj
 0001:000474a0       ?GenerateMIPMaps@pvrtexture@@YA_NAAVCPVRTexture@1@W4EResizeMode@1@I@Z 004484a0 f   PVRTexLib:PVRTextureUtilities.obj
 0001:00047920       ?DecompressNonTrivial@pvrtexture@@YAIAAVCPVRTexture@1@@Z 00448920 f   PVRTexLib:PVRTextureUtilities.obj
 0001:000483a0       ?CompressNonTrivial@pvrtexture@@YAIAAVCPVRTexture@1@TPixelType@1@W4ECompressorQuality@1@@Z 004493a0 f   PVRTexLib:PVRTextureUtilities.obj
 0001:00048aa0       ?Resize@pvrtexture@@YA_NAAVCPVRTexture@1@ABI11W4EResizeMode@1@@Z 00449aa0 f   PVRTexLib:PVRTextureUtilities.obj
 0001:00048e50       ?Transcode@pvrtexture@@YA_NAAVCPVRTexture@1@TPixelType@1@W4EPVRTVariableType@@W4EPVRTColourSpace@@W4ECompressorQuality@1@_N@Z 00449e50 f   PVRTexLib:PVRTextureUtilities.obj
 0001:00049490       ?ReadFromPtr@MetaDataBlock@@QAE_NPAPBE@Z 0044a490 f   PVRTexLib:PVRTTexture.obj
 0001:000494f0       ?PVRTTextureCreate@@YAPAUPVRTextureHeaderV3@@IIIII_N@Z 0044a4f0 f   PVRTexLib:PVRTTexture.obj
 0001:000495a0       ?PVRTTextureTwiddle@@YAXAAIII@Z 0044a5a0 f   PVRTexLib:PVRTTexture.obj
 0001:000495f0       ?PVRTTextureDeTwiddle@@YAXAAI0I@Z 0044a5f0 f   PVRTexLib:PVRTTexture.obj
 0001:00049650       ?PVRTGetBitsPerPixel@@YAI_K@Z 0044a650 f   PVRTexLib:PVRTTexture.obj
 0001:00049700       ?PVRTGetFormatMinDims@@YAX_KAAI11@Z 0044a700 f   PVRTexLib:PVRTTexture.obj
 0001:00049840       ?PVRTGetTextureDataSize@@YAIUPVRTextureHeaderV3@@H_N1@Z 0044a840 f   PVRTexLib:PVRTTexture.obj
 0001:00049a00       ?PVRTMapLegacyTextureEnumToNewFormat@@YAXW4PVRTPixelType@@AA_KAAW4EPVRTColourSpace@@AAW4EPVRTVariableType@@AA_N@Z 0044aa00 f   PVRTexLib:PVRTTexture.obj
 0001:0004ad80       ?PVRTTextureLoadTiled@@YAXQAEIIQBEIII_N@Z 0044bd80 f   PVRTexLib:PVRTTexture.obj
 0001:0004ae30       ?PVRTConvertOldTextureHeaderToV3@@YAXPBUPVR_Texture_Header@@AAUPVRTextureHeaderV3@@PAV?$CPVRTMap@IV?$CPVRTMap@IUMetaDataBlock@@@@@@@Z 0044be30 f   PVRTexLib:PVRTTexture.obj
 0001:0004afe0       ?getOpenGLFormat@pvrtexture@@YA_NAB_KABW4EPVRTVariableType@@ABW4EPVRTColourSpace@@AAI3333@Z 0044bfe0 f   PVRTexLib:PVRTextureInfo.obj
 0001:0004c790       ?getDirect3DFormat@pvrtexture@@YA_NAB_KABW4EPVRTVariableType@@ABW4EPVRTColourSpace@@AAI@Z 0044d790 f   PVRTexLib:PVRTextureInfo.obj
 0001:0004d1a0       ?getDirectXGIFormat@pvrtexture@@YA_NAB_KABW4EPVRTVariableType@@ABW4EPVRTColourSpace@@AAI@Z 0044e1a0 f   PVRTexLib:PVRTextureInfo.obj
 0001:0004dcd0       ?getPowerVRFormatOGL@pvrtexture@@YA_NAA_KAAW4EPVRTVariableType@@AAW4EPVRTColourSpace@@ABI33@Z 0044ecd0 f   PVRTexLib:PVRTextureInfo.obj
 0001:0004f6c0       ?getPowerVRFormatD3D@pvrtexture@@YA_NAA_KAAW4EPVRTVariableType@@AAW4EPVRTColourSpace@@AA_NABI@Z 004506c0 f   PVRTexLib:PVRTextureInfo.obj
 0001:0004fbb0       ?getPowerVRFormatDXGI@pvrtexture@@YA_NAA_KAAW4EPVRTVariableType@@AAW4EPVRTColourSpace@@ABI@Z 00450bb0 f   PVRTexLib:PVRTextureInfo.obj
 0001:00050790       ??0CPVRTString@@QAE@XZ     00451790 f   PVRTexLib:PVRTString.obj
 0001:000507c0       ??1CPVRTString@@UAE@XZ     004517c0 f   PVRTexLib:PVRTString.obj
 0001:000507f0       ?append@CPVRTString@@QAEAAV1@PBDI@Z 004517f0 f   PVRTexLib:PVRTString.obj
 0001:00050880       ?append@CPVRTString@@QAEAAV1@ABV1@@Z 00451880 f   PVRTexLib:PVRTString.obj
 0001:000508a0       ?append@CPVRTString@@QAEAAV1@ID@Z 004518a0 f   PVRTexLib:PVRTString.obj
 0001:00050930       ?assign@CPVRTString@@QAEAAV1@PBDI@Z 00451930 f   PVRTexLib:PVRTString.obj
 0001:000509a0       ?assign@CPVRTString@@QAEAAV1@ABV1@@Z 004519a0 f   PVRTexLib:PVRTString.obj
 0001:000509c0       ?assign@CPVRTString@@QAEAAV1@ABV1@II@Z 004519c0 f   PVRTexLib:PVRTString.obj
 0001:000509f0       ?assign@CPVRTString@@QAEAAV1@ID@Z 004519f0 f   PVRTexLib:PVRTString.obj
 0001:00050a60       ?c_str@CPVRTString@@QBEPBDXZ 00451a60 f   PVRTexLib:PVRTString.obj
 0001:00050a70       ?capacity@CPVRTString@@QBEIXZ 00451a70 f   PVRTexLib:PVRTString.obj
 0001:00050a80       ?clear@CPVRTString@@QAEXXZ 00451a80 f   PVRTexLib:PVRTString.obj
 0001:00050ac0       ?compare@CPVRTString@@QBEHABV1@@Z 00451ac0 f   PVRTexLib:PVRTString.obj
 0001:00050b00       ??MCPVRTString@@QBE_NABV0@@Z 00451b00 f   PVRTexLib:PVRTString.obj
 0001:00050b50       ?compare@CPVRTString@@QBEHIIABV1@@Z 00451b50 f   PVRTexLib:PVRTString.obj
 0001:00050c10       ?compare@CPVRTString@@QBEHIIABV1@II@Z 00451c10 f   PVRTexLib:PVRTString.obj
 0001:00050cf0       ?compare@CPVRTString@@QBEHPBD@Z 00451cf0 f   PVRTexLib:PVRTString.obj
 0001:00050d30       ?compare@CPVRTString@@QBEHIIPBD@Z 00451d30 f   PVRTexLib:PVRTString.obj
 0001:00050df0       ?compare@CPVRTString@@QBEHIIPBDI@Z 00451df0 f   PVRTexLib:PVRTString.obj
 0001:00050ee0       ??8CPVRTString@@QBE_NABV0@@Z 00451ee0 f   PVRTexLib:PVRTString.obj
 0001:00050f30       ??8CPVRTString@@QBE_NQBD@Z 00451f30 f   PVRTexLib:PVRTString.obj
 0001:00050f80       ??9CPVRTString@@QBE_NABV0@@Z 00451f80 f   PVRTexLib:PVRTString.obj
 0001:00050fd0       ??9CPVRTString@@QBE_NQBD@Z 00451fd0 f   PVRTexLib:PVRTString.obj
 0001:00051020       ?copy@CPVRTString@@QBEIPADII@Z 00452020 f   PVRTexLib:PVRTString.obj
 0001:00051060       ?data@CPVRTString@@QBEPBDXZ 00452060 f   PVRTexLib:PVRTString.obj
 0001:00051070       ?empty@CPVRTString@@QBE_NXZ 00452070 f   PVRTexLib:PVRTString.obj
 0001:00051080       ?find@CPVRTString@@QBEIPBDII@Z 00452080 f   PVRTexLib:PVRTString.obj
 0001:000510e0       ?find_first_not_of@CPVRTString@@QBEIDI@Z 004520e0 f   PVRTexLib:PVRTString.obj
 0001:00051110       ?find_first_not_of@CPVRTString@@QBEIPBDI@Z 00452110 f   PVRTexLib:PVRTString.obj
 0001:00051160       ?find_first_not_of@CPVRTString@@QBEIPBDII@Z 00452160 f   PVRTexLib:PVRTString.obj
 0001:000511b0       ?find_first_of@CPVRTString@@QBEIDI@Z 004521b0 f   PVRTexLib:PVRTString.obj
 0001:000511e0       ?find_first_of@CPVRTString@@QBEIPBDI@Z 004521e0 f   PVRTexLib:PVRTString.obj
 0001:00051220       ?find_first_of@CPVRTString@@QBEIPBDII@Z 00452220 f   PVRTexLib:PVRTString.obj
 0001:00051260       ?find_first_ofn@CPVRTString@@QBEIPBDII@Z 00452260 f   PVRTexLib:PVRTString.obj
 0001:00051300       ?find_last_not_of@CPVRTString@@QBEIDI@Z 00452300 f   PVRTexLib:PVRTString.obj
 0001:00051330       ?find_last_not_of@CPVRTString@@QBEIPBDI@Z 00452330 f   PVRTexLib:PVRTString.obj
 0001:00051390       ?find_last_not_of@CPVRTString@@QBEIPBDII@Z 00452390 f   PVRTexLib:PVRTString.obj
 0001:000513f0       ?find_last_of@CPVRTString@@QBEIDI@Z 004523f0 f   PVRTexLib:PVRTString.obj
 0001:00051420       ?find_last_of@CPVRTString@@QBEIPBDI@Z 00452420 f   PVRTexLib:PVRTString.obj
 0001:00051470       ?find_last_of@CPVRTString@@QBEIPBDII@Z 00452470 f   PVRTexLib:PVRTString.obj
 0001:000514c0       ?find_number_of@CPVRTString@@QBEIDI@Z 004524c0 f   PVRTexLib:PVRTString.obj
 0001:000514f0       ?find_number_of@CPVRTString@@QBEIPBDI@Z 004524f0 f   PVRTexLib:PVRTString.obj
 0001:00051570       ?find_number_of@CPVRTString@@QBEIPBDII@Z 00452570 f   PVRTexLib:PVRTString.obj
 0001:000515e0       ?find_next_occurance_of@CPVRTString@@QBEHDI@Z 004525e0 f   PVRTexLib:PVRTString.obj
 0001:00051610       ?find_next_occurance_of@CPVRTString@@QBEHPBDI@Z 00452610 f   PVRTexLib:PVRTString.obj
 0001:00051680       ?find_next_occurance_of@CPVRTString@@QBEHPBDII@Z 00452680 f   PVRTexLib:PVRTString.obj
 0001:000516f0       ?find_previous_occurance_of@CPVRTString@@QBEHDI@Z 004526f0 f   PVRTexLib:PVRTString.obj
 0001:00051710       ?find_previous_occurance_of@CPVRTString@@QBEHPBDI@Z 00452710 f   PVRTexLib:PVRTString.obj
 0001:00051780       ?find_previous_occurance_of@CPVRTString@@QBEHPBDII@Z 00452780 f   PVRTexLib:PVRTString.obj
 0001:000517e0       ?length@CPVRTString@@QBEIXZ 004527e0 f   PVRTexLib:PVRTString.obj
 0001:000517f0       ?max_size@CPVRTString@@QBEIXZ 004527f0 f   PVRTexLib:PVRTString.obj
 0001:00051800       ?push_back@CPVRTString@@QAEXD@Z 00452800 f   PVRTexLib:PVRTString.obj
 0001:00051820       ?reserve@CPVRTString@@QAEXI@Z 00452820 f   PVRTexLib:PVRTString.obj
 0001:00051850       ?resize@CPVRTString@@QAEXID@Z 00452850 f   PVRTexLib:PVRTString.obj
 0001:00051880       ?size@CPVRTString@@QBEIXZ  00452880 f   PVRTexLib:PVRTString.obj
 0001:00051890       ?swap@CPVRTString@@QAEXAAV1@@Z 00452890 f   PVRTexLib:PVRTString.obj
 0001:000518d0       ?toLower@CPVRTString@@QAEAAV1@XZ 004528d0 f   PVRTexLib:PVRTString.obj
 0001:00051900       ?toUpper@CPVRTString@@QAEAAV1@XZ 00452900 f   PVRTexLib:PVRTString.obj
 0001:00051930       ??YCPVRTString@@QAEAAV0@D@Z 00452930 f   PVRTexLib:PVRTString.obj
 0001:00051950       ??YCPVRTString@@QAEAAV0@ABV0@@Z 00452950 f   PVRTexLib:PVRTString.obj
 0001:00051960       ??4CPVRTString@@QAEAAV0@D@Z 00452960 f   PVRTexLib:PVRTString.obj
 0001:00051980       ??4CPVRTString@@QAEAAV0@ABV0@@Z 00452980 f   PVRTexLib:PVRTString.obj
 0001:00051990       ??ACPVRTString@@QBEABDI@Z  00452990 f   PVRTexLib:PVRTString.obj
 0001:000519a0       ??ACPVRTString@@QAEAADI@Z  004529a0 f   PVRTexLib:PVRTString.obj
 0001:000519b0       ?substitute@CPVRTString@@QAEAAV1@DD_N@Z 004529b0 f   PVRTexLib:PVRTString.obj
 0001:00051a00       ??_GCPVRTString@@UAEPAXI@Z 00452a00 f i PVRTexLib:PVRTString.obj
 0001:00051a00       ??_ECPVRTString@@UAEPAXI@Z 00452a00 f i PVRTexLib:PVRTString.obj
 0001:00051a30       ??0CPVRTString@@QAE@ABV0@II@Z 00452a30 f   PVRTexLib:PVRTString.obj
 0001:00051a60       ??0CPVRTString@@QAE@ID@Z   00452a60 f   PVRTexLib:PVRTString.obj
 0001:00051a90       ??0CPVRTString@@QAE@D@Z    00452a90 f   PVRTexLib:PVRTString.obj
 0001:00051ac0       ?append@CPVRTString@@QAEAAV1@PBD@Z 00452ac0 f   PVRTexLib:PVRTString.obj
 0001:00051b00       ?append@CPVRTString@@QAEAAV1@ABV1@II@Z 00452b00 f   PVRTexLib:PVRTString.obj
 0001:00051b50       ?assign@CPVRTString@@QAEAAV1@PBD@Z 00452b50 f   PVRTexLib:PVRTString.obj
 0001:00051b90       ?erase@CPVRTString@@QAEAAV1@II@Z 00452b90 f   PVRTexLib:PVRTString.obj
 0001:00051be0       ?find@CPVRTString@@QBEIABV1@I@Z 00452be0 f   PVRTexLib:PVRTString.obj
 0001:00051c10       ?find_first_not_of@CPVRTString@@QBEIABV1@I@Z 00452c10 f   PVRTexLib:PVRTString.obj
 0001:00051c70       ?find_first_of@CPVRTString@@QBEIABV1@I@Z 00452c70 f   PVRTexLib:PVRTString.obj
 0001:00051ce0       ?find_last_not_of@CPVRTString@@QBEIABV1@I@Z 00452ce0 f   PVRTexLib:PVRTString.obj
 0001:00051d50       ?find_last_of@CPVRTString@@QBEIABV1@I@Z 00452d50 f   PVRTexLib:PVRTString.obj
 0001:00051dc0       ?find_number_of@CPVRTString@@QBEIABV1@I@Z 00452dc0 f   PVRTexLib:PVRTString.obj
 0001:00051e20       ?find_next_occurance_of@CPVRTString@@QBEHABV1@I@Z 00452e20 f   PVRTexLib:PVRTString.obj
 0001:00051e80       ?find_previous_occurance_of@CPVRTString@@QBEHABV1@I@Z 00452e80 f   PVRTexLib:PVRTString.obj
 0001:00051ee0       ?substr@CPVRTString@@QBE?AV1@II@Z 00452ee0 f   PVRTexLib:PVRTString.obj
 0001:00051f20       ??YCPVRTString@@QAEAAV0@PBD@Z 00452f20 f   PVRTexLib:PVRTString.obj
 0001:00051f30       ??4CPVRTString@@QAEAAV0@PBD@Z 00452f30 f   PVRTexLib:PVRTString.obj
 0001:00051f40       ??H@YA?AVCPVRTString@@ABV0@0@Z 00452f40 f   PVRTexLib:PVRTString.obj
 0001:00051f90       ??H@YA?AVCPVRTString@@ABV0@PBD@Z 00452f90 f   PVRTexLib:PVRTString.obj
 0001:00051fe0       ??H@YA?AVCPVRTString@@ABV0@D@Z 00452fe0 f   PVRTexLib:PVRTString.obj
 0001:00052040       ??H@YA?AVCPVRTString@@DABV0@@Z 00453040 f   PVRTexLib:PVRTString.obj
 0001:00052090       ?PVRTStringGetFileName@@YA?AVCPVRTString@@ABV1@@Z 00453090 f   PVRTexLib:PVRTString.obj
 0001:00052110       ?PVRTStringStripWhiteSpaceFromStartOf@@YA?AVCPVRTString@@ABV1@@Z 00453110 f   PVRTexLib:PVRTString.obj
 0001:00052180       ?PVRTStringStripWhiteSpaceFromEndOf@@YA?AVCPVRTString@@ABV1@@Z 00453180 f   PVRTexLib:PVRTString.obj
 0001:000521f0       ??0CPVRTString@@QAE@PBDI@Z 004531f0 f   PVRTexLib:PVRTString.obj
 0001:00052250       ?left@CPVRTString@@QBE?AV1@I@Z 00453250 f   PVRTexLib:PVRTString.obj
 0001:000522b0       ?right@CPVRTString@@QBE?AV1@I@Z 004532b0 f   PVRTexLib:PVRTString.obj
 0001:00052320       ?format@CPVRTString@@QAA?AV1@PBDZZ 00453320 f   PVRTexLib:PVRTString.obj
 0001:000523d0       ?formatPositional@CPVRTString@@QAA?AV1@PBDZZ 004533d0 f   PVRTexLib:PVRTString.obj
 0001:00052480       ??H@YA?AVCPVRTString@@PBDABV0@@Z 00453480 f   PVRTexLib:PVRTString.obj
 0001:000524d0       ?PVRTStringGetFileExtension@@YA?AVCPVRTString@@ABV1@@Z 004534d0 f   PVRTexLib:PVRTString.obj
 0001:00052530       ?PVRTStringGetContainingDirectoryPath@@YA?AVCPVRTString@@ABV1@@Z 00453530 f   PVRTexLib:PVRTString.obj
 0001:000525a0       ?PVRTStringFromFormattedStr@@YA?AVCPVRTString@@PBDZZ 004535a0 f   PVRTexLib:PVRTString.obj
 0001:00052640       ?PVRTStringFromFormattedStrPositional@@YA?AVCPVRTString@@PBDZZ 00453640 f   PVRTexLib:PVRTString.obj
 0001:000526e0       ?substitute@CPVRTString@@QAEAAV1@PBD0_N@Z 004536e0 f   PVRTexLib:PVRTString.obj
 0001:00052840       ?MapLegacyEnumToNewFormat@pvrtexture@@YAXW4PVRTPixelType@@AATPixelType@1@AAW4EPVRTColourSpace@@AAW4EPVRTVariableType@@AA_N@Z 00453840 f   PVRTexLib:PVRTextureLegacy.obj
 0001:00052850       ?MapNewFormatToLegacyEnum@pvrtexture@@YA?AW4PVRTPixelType@@TPixelType@1@W4EPVRTColourSpace@@W4EPVRTVariableType@@_NW4ELegacyApi@1@@Z 00453850 f   PVRTexLib:PVRTextureLegacy.obj
 0001:00053830       ?ConvertTextureHeader1To3@pvrtexture@@YAXUPVRTextureHeaderV1@1@AAUPVRTextureHeaderV3@@AAV?$CPVRTMap@IV?$CPVRTMap@IUMetaDataBlock@@@@@@@Z 00454830 f   PVRTexLib:PVRTextureLegacy.obj
 0001:00053a40       ?ConvertTextureHeader2To3@pvrtexture@@YAXUPVRTextureHeaderV2@1@AAUPVRTextureHeaderV3@@AAV?$CPVRTMap@IV?$CPVRTMap@IUMetaDataBlock@@@@@@@Z 00454a40 f   PVRTexLib:PVRTextureLegacy.obj
 0001:00053c60       ?ConvertTextureHeader3To2@pvrtexture@@YA?BUPVRTextureHeaderV2@1@VCPVRTextureHeader@1@W4ELegacyApi@1@@Z 00454c60 f   PVRTexLib:PVRTextureLegacy.obj
 0001:00053e20       ?GetBitsPerPixel@CPixelEncoder@pvrtexture@@QAEIXZ 00454e20 f   PVRTexLib:PVRTPixelConversion.obj
 0001:00053e30       ?GetError@CPixelEncoder@pvrtexture@@QAE?AW4E_PIXEL_ERROR@2@XZ 00454e30 f   PVRTexLib:PVRTPixelConversion.obj
 0001:00053e40       ?GetColourDataSize@CPixelEncoder@pvrtexture@@QAEHXZ 00454e40 f   PVRTexLib:PVRTPixelConversion.obj
 0001:00053e50       ?OverwriteColourData@CPixelEncoder@pvrtexture@@QAE_NPBE@Z 00454e50 f   PVRTexLib:PVRTPixelConversion.obj
 0001:00053e80       ?GetColourData@CPixelEncoder@pvrtexture@@QAEPBEXZ 00454e80 f   PVRTexLib:PVRTPixelConversion.obj
 0001:00053e90       ?CheckChannelContinuity@CPixelEncoder@pvrtexture@@AAEXXZ 00454e90 f   PVRTexLib:PVRTPixelConversion.obj
 0001:00053ee0       ?CheckDuplicatedChannels@CPixelEncoder@pvrtexture@@AAEXXZ 00454ee0 f   PVRTexLib:PVRTPixelConversion.obj
 0001:00053f80       ?CheckInvalidChannelBits@CPixelEncoder@pvrtexture@@AAEXXZ 00454f80 f   PVRTexLib:PVRTPixelConversion.obj
 0001:00054000       ?CheckValidTotalBits@CPixelEncoder@pvrtexture@@AAEXXZ 00455000 f   PVRTexLib:PVRTPixelConversion.obj
 0001:00054020       ?GrowUNormToFloat@CPixelEncoder@pvrtexture@@ABEMABIABE@Z 00455020 f   PVRTexLib:PVRTPixelConversion.obj
 0001:00054070       ?GrowSNormToFloat@CPixelEncoder@pvrtexture@@ABEMABHABE@Z 00455070 f   PVRTexLib:PVRTPixelConversion.obj
 0001:000540f0       ?ShrinkFloatToUNorm@CPixelEncoder@pvrtexture@@ABEIABMABE@Z 004550f0 f   PVRTexLib:PVRTPixelConversion.obj
 0001:00054160       ?ShrinkFloatToSNorm@CPixelEncoder@pvrtexture@@ABEIABMABE@Z 00455160 f   PVRTexLib:PVRTPixelConversion.obj
 0001:000541e0       ?ShrinkFloat@CPixelEncoder@pvrtexture@@ABEIABMABE11_N2@Z 004551e0 f   PVRTexLib:PVRTPixelConversion.obj
 0001:000542a0       ?GrowFloat@CPixelEncoder@pvrtexture@@ABEMABIABE11_N@Z 004552a0 f   PVRTexLib:PVRTPixelConversion.obj
 0001:00054350       ?ResizeSInt@CPixelEncoder@pvrtexture@@ABEIABHABE1@Z 00455350 f   PVRTexLib:PVRTPixelConversion.obj
 0001:000543a0       ?GenerateChannelByteMask@CPixelEncoder@pvrtexture@@AAE_KE@Z 004553a0 f   PVRTexLib:PVRTPixelConversion.obj
 0001:00054470       ?GetTypeSize@CPixelEncoder@pvrtexture@@ABEEXZ 00455470 f   PVRTexLib:PVRTPixelConversion.obj
 0001:000544b0       ??0CPixelEncoder@pvrtexture@@QAE@ABV01@@Z 004554b0 f   PVRTexLib:PVRTPixelConversion.obj
 0001:000545d0       ?CheckPixelValidity@CPixelEncoder@pvrtexture@@AAEXXZ 004555d0 f   PVRTexLib:PVRTPixelConversion.obj
 0001:000545f0       ?SetChannelSFloat@CPixelEncoder@pvrtexture@@AAEXW4EChannelName@2@ABM@Z 004555f0 f   PVRTexLib:PVRTPixelConversion.obj
 0001:00054660       ?SetChannelUFloat@CPixelEncoder@pvrtexture@@AAEXW4EChannelName@2@ABM@Z 00455660 f   PVRTexLib:PVRTPixelConversion.obj
 0001:00054750       ?SetChannelUNorm@CPixelEncoder@pvrtexture@@AAEXW4EChannelName@2@ABM@Z 00455750 f   PVRTexLib:PVRTPixelConversion.obj
 0001:00054800       ?SetChannelSNorm@CPixelEncoder@pvrtexture@@AAEXW4EChannelName@2@ABM@Z 00455800 f   PVRTexLib:PVRTPixelConversion.obj
 0001:000548b0       ?GetChannelFloat@CPixelEncoder@pvrtexture@@ABEMW4EChannelName@2@@Z 004558b0 f   PVRTexLib:PVRTPixelConversion.obj
 0001:00054c60       ??0CPixelEncoder@pvrtexture@@QAE@TPixelType@1@W4EPVRTVariableType@@@Z 00455c60 f   PVRTexLib:PVRTPixelConversion.obj
 0001:00054dc0       ??0CPixelEncoder@pvrtexture@@QAE@W4EPVRTVariableType@@EEEEW4EChannelName@1@111@Z 00455dc0 f   PVRTexLib:PVRTPixelConversion.obj
 0001:00054ef0       ?EncodeFrom@CPixelEncoder@pvrtexture@@QAEAAV12@AAV12@@Z 00455ef0 f   PVRTexLib:PVRTPixelConversion.obj
 0001:00055900       ?ConvertToColourSpace@CPixelEncoder@pvrtexture@@QAEXW4EPVRTColourSpace@@0@Z 00456900 f   PVRTexLib:PVRTPixelConversion.obj
 0001:00055af0       ?ClampRange_for_rgb9e5@@YAMM@Z 00456af0 f   PVRTexLib:RGB9E5Codec.obj
 0001:00055b20       ?MaxOf3@@YAMMMM@Z          00456b20 f   PVRTexLib:RGB9E5Codec.obj
 0001:00055b50       ?FloorLog2@@YAHM@Z         00456b50 f   PVRTexLib:RGB9E5Codec.obj
 0001:00055b70       ?Max@@YAHHH@Z              00456b70 f   PVRTexLib:RGB9E5Codec.obj
 0001:00055b90       ??$_Pow_int@N@@YANNH@Z     00456b90 f i PVRTexLib:RGB9E5Codec.obj
 0001:00055bd0       ?pow@@YANNH@Z              00456bd0 f i PVRTexLib:RGB9E5Codec.obj
 0001:00055c10       ?float3_to_rgb9e5@@YA?ATrgb9e5@@QBM@Z 00456c10 f   PVRTexLib:RGB9E5Codec.obj
 0001:00055da0       ?rgb9e5_to_float3@@YAXTrgb9e5@@QAM@Z 00456da0 f   PVRTexLib:RGB9E5Codec.obj
 0001:00055e30       ?RGB9E5Compress@pvrtexture@@YAIPBXPAXABI2@Z 00456e30 f   PVRTexLib:RGB9E5Codec.obj
 0001:00055ec0       ?RGB9E5Decompress@pvrtexture@@YAIPBXPAXABI2@Z 00456ec0 f   PVRTexLib:RGB9E5Codec.obj
 0001:00055f50       ?OneBPPCompress@pvrtexture@@YAIPBXPAXABI2@Z 00456f50 f   PVRTexLib:1bppCodec.obj
 0001:000560a0       ?OneBPPDecompress@pvrtexture@@YAIPBXPAXABI2@Z 004570a0 f   PVRTexLib:1bppCodec.obj
 0001:00056110       ?RGBGCompress@pvrtexture@@YAIPBXPAXABI2ABW4EPVRTPixelFormat@@@Z 00457110 f   PVRTexLib:RGBGCodec.obj
 0001:00056220       ?RGBGDecompress@pvrtexture@@YAIPBXPAXABI2ABW4EPVRTPixelFormat@@@Z 00457220 f   PVRTexLib:RGBGCodec.obj
 0001:00056370       ?ConvertYUVToRGB@pvrtexture@@YAXHHHAAE00@Z 00457370 f   PVRTexLib:YUVCodec.obj
 0001:00056430       ?ConvertRGBToYUV@pvrtexture@@YAXU?$Pixel@E@1@0AAE111@Z 00457430 f   PVRTexLib:YUVCodec.obj
 0001:000566d0       ?YUVCompress@pvrtexture@@YAIPBXPAXABI2ABW4EPVRTPixelFormat@@@Z 004576d0 f   PVRTexLib:YUVCodec.obj
 0001:000567e0       ?YUVDecompress@pvrtexture@@YAIPBXPAXABI2ABW4EPVRTPixelFormat@@@Z 004577e0 f   PVRTexLib:YUVCodec.obj
 0001:000569b0       ?Fto565@pvrtexture@@YAGMMM@Z 004579b0 f i PVRTexLib:BCCodec.obj
 0001:00056a40       ?storeAlpha@pvrtexture@@YAXPAIPAGH@Z 00457a40 f   PVRTexLib:BCCodec.obj
 0001:00056ab0       ?storeInterpolatedAlpha@pvrtexture@@YAXPAI0H@Z 00457ab0 f   PVRTexLib:BCCodec.obj
 0001:00056d10       ?countColours@pvrtexture@@YAHPAM00PAG@Z 00457d10 f   PVRTexLib:BCCodec.obj
 0001:00056e40       ?canHavePunchThrough@pvrtexture@@YA_NQAI@Z 00457e40 f   PVRTexLib:BCCodec.obj
 0001:00056e70       ?DXTCompress@pvrtexture@@YAIPBXPAXABI22@Z 00457e70 f   PVRTexLib:BCCodec.obj
 0001:00058db0       ?DXTDecompress@pvrtexture@@YAIPBXPAXABI22@Z 00459db0 f   PVRTexLib:BCCodec.obj
 0001:00059560       ?indexConversion@pvrtexture@@YAHH@Z 0045a560 f   PVRTexLib:ETCCodec.obj
 0001:000596b0       ?expandToWidthDivByFour@pvrtexture@@YA_NAAPAEHHAAH1H@Z 0045a6b0 f   PVRTexLib:ETCCodec.obj
 0001:000598b0       ?computeAverageColor2x4noQuantFloat@pvrtexture@@YAXPAEHHHPAM@Z 0045a8b0 f   PVRTexLib:ETCCodec.obj
 0001:000599f0       ?computeAverageColor4x2noQuantFloat@pvrtexture@@YAXPAEHHHPAM@Z 0045a9f0 f   PVRTexLib:ETCCodec.obj
 0001:00059b30       ?compressBlockWithTable2x4@pvrtexture@@YAHPAEHHH0HPAI1@Z 0045ab30 f   PVRTexLib:ETCCodec.obj
 0001:00059d10       ?compressBlockWithTable2x4percep1000@pvrtexture@@YAIPAEHHH0HPAI1@Z 0045ad10 f   PVRTexLib:ETCCodec.obj
 0001:00059ef0       ?compressBlockWithTable2x4percep@pvrtexture@@YAMPAEHHH0HPAI1@Z 0045aef0 f   PVRTexLib:ETCCodec.obj
 0001:0005a110       ?compressBlockWithTable4x2@pvrtexture@@YAHPAEHHH0HPAI1@Z 0045b110 f   PVRTexLib:ETCCodec.obj
 0001:0005a2f0       ?compressBlockWithTable4x2percep1000@pvrtexture@@YAIPAEHHH0HPAI1@Z 0045b2f0 f   PVRTexLib:ETCCodec.obj
 0001:0005a4e0       ?compressBlockWithTable4x2percep@pvrtexture@@YAMPAEHHH0HPAI1@Z 0045b4e0 f   PVRTexLib:ETCCodec.obj
 0001:0005a700       ?tryalltables_3bittable2x4@pvrtexture@@YAHPAEHHH0AAI11@Z 0045b700 f   PVRTexLib:ETCCodec.obj
 0001:0005a770       ?tryalltables_3bittable2x4percep1000@pvrtexture@@YAIPAEHHH0AAI11@Z 0045b770 f   PVRTexLib:ETCCodec.obj
 0001:0005a7e0       ?tryalltables_3bittable2x4percep@pvrtexture@@YAHPAEHHH0AAI11@Z 0045b7e0 f   PVRTexLib:ETCCodec.obj
 0001:0005a870       ?tryalltables_3bittable4x2@pvrtexture@@YAHPAEHHH0AAI11@Z 0045b870 f   PVRTexLib:ETCCodec.obj
 0001:0005a8e0       ?tryalltables_3bittable4x2percep1000@pvrtexture@@YAIPAEHHH0AAI11@Z 0045b8e0 f   PVRTexLib:ETCCodec.obj
 0001:0005a950       ?tryalltables_3bittable4x2percep@pvrtexture@@YAHPAEHHH0AAI11@Z 0045b950 f   PVRTexLib:ETCCodec.obj
 0001:0005a9e0       ?quantize444ColorCombined@pvrtexture@@YAXPAMPAHPAE@Z 0045b9e0 f   PVRTexLib:ETCCodec.obj
 0001:0005ade0       ?quantize555ColorCombined@pvrtexture@@YAXPAMPAHPAE@Z 0045bde0 f   PVRTexLib:ETCCodec.obj
 0001:0005b1e0       ?quantize444ColorCombinedPerceptual@pvrtexture@@YAXPAMPAHPAE@Z 0045c1e0 f   PVRTexLib:ETCCodec.obj
 0001:0005b5e0       ?quantize555ColorCombinedPerceptual@pvrtexture@@YAXPAMPAHPAE@Z 0045c5e0 f   PVRTexLib:ETCCodec.obj
 0001:0005ba30       ?compressBlockOnlyIndividualAveragePerceptual1000@pvrtexture@@YAIPAEHHHAAI1PAH2AAH11112222@Z 0045ca30 f   PVRTexLib:ETCCodec.obj
 0001:0005bf30       ?compressBlockOnlyIndividualAverage@pvrtexture@@YAHPAEHHHAAI1PAH2AAH11112222@Z 0045cf30 f   PVRTexLib:ETCCodec.obj
 0001:0005c430       ?compressBlockDiffFlipAverage@pvrtexture@@YAXPAEHHHAAI1@Z 0045d430 f   PVRTexLib:ETCCodec.obj
 0001:0005cc90       ?compressBlockOnlyDiffFlipAverage@pvrtexture@@YAHPAEHHHAAI1PAH2AAH@Z 0045dc90 f   PVRTexLib:ETCCodec.obj
 0001:0005d350       ?compressBlockOnlyDiffFlipAveragePerceptual1000@pvrtexture@@YAIPAEHHHAAI1@Z 0045e350 f   PVRTexLib:ETCCodec.obj
 0001:0005d8f0       ?compressBlockDiffFlipAveragePerceptual@pvrtexture@@YANPAEHHHAAI1@Z 0045e8f0 f   PVRTexLib:ETCCodec.obj
 0001:0005e150       ?multiplyMatrices@pvrtexture@@YAPAUdMatrix@1@PAU21@0@Z 0045f150 f   PVRTexLib:ETCCodec.obj
 0001:0005e240       ?transposeMatrix@pvrtexture@@YAXPAUdMatrix@1@@Z 0045f240 f   PVRTexLib:ETCCodec.obj
 0001:0005e380       ?calcBBBred@pvrtexture@@YAIPAEHH@Z 0045f380 f   PVRTexLib:ETCCodec.obj
 0001:0005e400       ?calcCCCred@pvrtexture@@YAIPAEHH@Z 0045f400 f   PVRTexLib:ETCCodec.obj
 0001:0005e480       ?calcLowestPossibleRedOHperceptual@pvrtexture@@YAIPAEHHI@Z 0045f480 f   PVRTexLib:ETCCodec.obj
 0001:0005e520       ?calcLowestPossibleRedOH@pvrtexture@@YAIPAEHHI@Z 0045f520 f   PVRTexLib:ETCCodec.obj
 0001:0005e5c0       ?calcErrorPlanarOnlyRedPerceptual@pvrtexture@@YAIPAEHHHIIII@Z 0045f5c0 f   PVRTexLib:ETCCodec.obj
 0001:0005e6f0       ?calcErrorPlanarOnlyRed@pvrtexture@@YAIPAEHHHIIII@Z 0045f6f0 f   PVRTexLib:ETCCodec.obj
 0001:0005e820       ?calcLowestPossibleGreenOHperceptual@pvrtexture@@YAIPAEHHI@Z 0045f820 f   PVRTexLib:ETCCodec.obj
 0001:0005e8b0       ?calcLowestPossibleGreenOH@pvrtexture@@YAIPAEHHI@Z 0045f8b0 f   PVRTexLib:ETCCodec.obj
 0001:0005e940       ?calcBBBgreen@pvrtexture@@YAIPAEHH@Z 0045f940 f   PVRTexLib:ETCCodec.obj
 0001:0005e9c0       ?calcCCCgreen@pvrtexture@@YAIPAEHH@Z 0045f9c0 f   PVRTexLib:ETCCodec.obj
 0001:0005ea40       ?calcErrorPlanarOnlyGreenPerceptual@pvrtexture@@YAIPAEHHHIIII@Z 0045fa40 f   PVRTexLib:ETCCodec.obj
 0001:0005eb60       ?calcErrorPlanarOnlyGreen@pvrtexture@@YAIPAEHHHIIII@Z 0045fb60 f   PVRTexLib:ETCCodec.obj
 0001:0005ec80       ?calcBBBbluePerceptual@pvrtexture@@YAIPAEHH@Z 0045fc80 f   PVRTexLib:ETCCodec.obj
 0001:0005ed00       ?calcBBBblue@pvrtexture@@YAIPAEHH@Z 0045fd00 f   PVRTexLib:ETCCodec.obj
 0001:0005ed80       ?calcCCCbluePerceptual@pvrtexture@@YAIPAEHH@Z 0045fd80 f   PVRTexLib:ETCCodec.obj
 0001:0005ee00       ?calcCCCblue@pvrtexture@@YAIPAEHH@Z 0045fe00 f   PVRTexLib:ETCCodec.obj
 0001:0005ee80       ?calcLowestPossibleBlueOHperceptual@pvrtexture@@YAIPAEHHI@Z 0045fe80 f   PVRTexLib:ETCCodec.obj
 0001:0005ef20       ?calcLowestPossibleBlueOH@pvrtexture@@YAIPAEHHI@Z 0045ff20 f   PVRTexLib:ETCCodec.obj
 0001:0005efc0       ?calcErrorPlanarOnlyBluePerceptual@pvrtexture@@YAIPAEHHHIIII@Z 0045ffc0 f   PVRTexLib:ETCCodec.obj
 0001:0005f0f0       ?calcErrorPlanarOnlyBlue@pvrtexture@@YAIPAEHHHIIII@Z 004600f0 f   PVRTexLib:ETCCodec.obj
 0001:0005f220       ?compressBlockPlanar57@pvrtexture@@YAXPAEHHHAAI1@Z 00460220 f   PVRTexLib:ETCCodec.obj
 0001:00060080       ?stuff57bits@pvrtexture@@YAXIIAAI0@Z 00461080 f   PVRTexLib:ETCCodec.obj
 0001:000601e0       ?stuff58bits@pvrtexture@@YAXIIAAI0@Z 004611e0 f   PVRTexLib:ETCCodec.obj
 0001:000602a0       ?stuff58bitsDiffFalse@pvrtexture@@YAXIIAAI0@Z 004612a0 f   PVRTexLib:ETCCodec.obj
 0001:00060350       ?stuff59bits@pvrtexture@@YAXIIAAI0@Z 00461350 f   PVRTexLib:ETCCodec.obj
 0001:000603f0       ?unstuff57bits@pvrtexture@@YAXIIAAI0@Z 004613f0 f   PVRTexLib:ETCCodec.obj
 0001:000604c0       ?unstuff58bits@pvrtexture@@YAXIIAAI0@Z 004614c0 f   PVRTexLib:ETCCodec.obj
 0001:00060500       ?unstuff59bits@pvrtexture@@YAXIIAAI0@Z 00461500 f   PVRTexLib:ETCCodec.obj
 0001:00060540       ?decompressBlockPlanar57errorPerComponent@pvrtexture@@YAXIIPAEHHH0AAI11@Z 00461540 f   PVRTexLib:ETCCodec.obj
 0001:00060a70       ?decompressBlockPlanar57@pvrtexture@@YAXIIPAEHHH@Z 00461a70 f   PVRTexLib:ETCCodec.obj
 0001:00060c80       ?compressBlockDiffFlipCombined@pvrtexture@@YAXPAEHHHAAI1@Z 00461c80 f   PVRTexLib:ETCCodec.obj
 0001:000612f0       ?computeColorLBGHalfIntensityFast@pvrtexture@@YAXPAEHHHQAY02E@Z 004622f0 f   PVRTexLib:ETCCodec.obj
 0001:00061a60       ?computeColorLBGNotIntensityFast@pvrtexture@@YAXPAEHHHQAY02E@Z 00462a60 f   PVRTexLib:ETCCodec.obj
 0001:000621b0       ?computeColorLBGNotIntensity@pvrtexture@@YAXPAEHHHQAY02E@Z 004631b0 f   PVRTexLib:ETCCodec.obj
 0001:00062900       ?computeColorLBG@pvrtexture@@YAXPAEHHHQAY02E@Z 00463900 f   PVRTexLib:ETCCodec.obj
 0001:00063160       ?computeColorLBGfast@pvrtexture@@YAXPAEHHHQAY02E@Z 00464160 f   PVRTexLib:ETCCodec.obj
 0001:00063ac0       ?compressColor@pvrtexture@@YAXHHHQAY02E0@Z 00464ac0 f   PVRTexLib:ETCCodec.obj
 0001:00063c70       ?decompressColor@pvrtexture@@YAXHHHQAY02E0@Z 00464c70 f   PVRTexLib:ETCCodec.obj
 0001:00063d30       ?swapColors@pvrtexture@@YAXQAY02E@Z 00464d30 f   PVRTexLib:ETCCodec.obj
 0001:00063d60       ?calculatePaintColors59T@pvrtexture@@YAXEEQAY02E0@Z 00464d60 f   PVRTexLib:ETCCodec.obj
 0001:00063ea0       ?calculateError59Tperceptual1000@pvrtexture@@YAIPAEHHHQAY02EAAEAAI@Z 00464ea0 f   PVRTexLib:ETCCodec.obj
 0001:000640c0       ?calculateError59T@pvrtexture@@YANPAEHHHQAY02EAAEAAI@Z 004650c0 f   PVRTexLib:ETCCodec.obj
 0001:000642c0       ?calculateError59TnoSwapPerceptual1000@pvrtexture@@YAIPAEHHHQAY02EAAEAAI@Z 004652c0 f   PVRTexLib:ETCCodec.obj
 0001:00064470       ?calculateError59TnoSwap@pvrtexture@@YANPAEHHHQAY02EAAEAAI@Z 00465470 f   PVRTexLib:ETCCodec.obj
 0001:00064610       ?packBlock59T@pvrtexture@@YAXQAY02EEIAAI1@Z 00465610 f   PVRTexLib:ETCCodec.obj
 0001:000646b0       ?copyColors@pvrtexture@@YAXQAY02E0@Z 004656b0 f   PVRTexLib:ETCCodec.obj
 0001:000646f0       ?compressBlockTHUMB59TFastestOnlyColorPerceptual1000@pvrtexture@@YAIPAEHHHQAH@Z 004656f0 f   PVRTexLib:ETCCodec.obj
 0001:000647a0       ?compressBlockTHUMB59TFastestOnlyColor@pvrtexture@@YANPAEHHHQAH@Z 004657a0 f   PVRTexLib:ETCCodec.obj
 0001:00064850       ?compressBlockTHUMB59TFastestPerceptual1000@pvrtexture@@YANPAEHHHAAI1@Z 00465850 f   PVRTexLib:ETCCodec.obj
 0001:00064900       ?compressBlockTHUMB59TFastest@pvrtexture@@YANPAEHHHAAI1@Z 00465900 f   PVRTexLib:ETCCodec.obj
 0001:000649a0       ?compressBlockTHUMB59TFast@pvrtexture@@YANPAEHHHAAI1@Z 004659a0 f   PVRTexLib:ETCCodec.obj
 0001:00064b30       ?calculatePaintColors58H@pvrtexture@@YAXEEQAY02E0@Z 00465b30 f   PVRTexLib:ETCCodec.obj
 0001:00064d20       ?calculateErrorAndCompress58Hperceptual1000@pvrtexture@@YAIPAEHHHQAY02EAAEAAI@Z 00465d20 f   PVRTexLib:ETCCodec.obj
 0001:00064ed0       ?calculateErrorAndCompress58HAlpha@pvrtexture@@YANPAE0HHHQAY02EAAEAAI@Z 00465ed0 f   PVRTexLib:ETCCodec.obj
 0001:00065150       ?calculateErrorAndCompress58H@pvrtexture@@YANPAEHHHQAY02EAAEAAI@Z 00466150 f   PVRTexLib:ETCCodec.obj
 0001:000652f0       ?sortColorsRGB444@pvrtexture@@YAXQAY02E@Z 004662f0 f   PVRTexLib:ETCCodec.obj
 0001:00065380       ?compressBlockTHUMB58HFastestPerceptual1000@pvrtexture@@YAIPAEHHHAAI1@Z 00466380 f   PVRTexLib:ETCCodec.obj
 0001:000654e0       ?compressBlockTHUMB58HFastest@pvrtexture@@YANPAEHHHAAI1@Z 004664e0 f   PVRTexLib:ETCCodec.obj
 0001:00065640       ?compressBlockTHUMB58HAlpha@pvrtexture@@YANPAE0HHHAAI1@Z 00466640 f   PVRTexLib:ETCCodec.obj
 0001:000657b0       ?compressBlockTHUMB58HFast@pvrtexture@@YANPAEHHHAAI1@Z 004667b0 f   PVRTexLib:ETCCodec.obj
 0001:00065a00       ?compressBlockDiffFlipCombinedPerceptual@pvrtexture@@YAXPAEHHHAAI1@Z 00466a00 f   PVRTexLib:ETCCodec.obj
 0001:00066070       ?decompressBlockDiffFlip@pvrtexture@@YAXIIPAEHHH@Z 00467070 f   PVRTexLib:ETCCodec.obj
 0001:00066a50       ?decompressBlockTHUMB59T@pvrtexture@@YAXIIPAEHHH@Z 00467a50 f   PVRTexLib:ETCCodec.obj
 0001:00066bc0       ?decompressBlockTHUMB58HAlpha@pvrtexture@@YAXIIPAE0HHH@Z 00467bc0 f   PVRTexLib:ETCCodec.obj
 0001:00066d90       ?decompressBlockTHUMB58H@pvrtexture@@YAXIIPAEHHH@Z 00467d90 f   PVRTexLib:ETCCodec.obj
 0001:00066f10       ?decompressBlockETC2@pvrtexture@@YAXIIPAEHHH@Z 00467f10 f   PVRTexLib:ETCCodec.obj
 0001:00067080       ?calcBlockErrorRGB@pvrtexture@@YANPAE0HHH@Z 00468080 f   PVRTexLib:ETCCodec.obj
 0001:00067460       ?calcBlockPerceptualErrorRGB@pvrtexture@@YANPAE0HHH@Z 00468460 f   PVRTexLib:ETCCodec.obj
 0001:00067880       ?compressBlockDiffFlipFast@pvrtexture@@YANPAE0HHHAAI1@Z 00468880 f   PVRTexLib:ETCCodec.obj
 0001:00067950       ?compressBlockDiffFlipFastPerceptual@pvrtexture@@YAXPAE0HHHAAI1@Z 00468950 f   PVRTexLib:ETCCodec.obj
 0001:00067a20       ?compressBlockDifferentialWithAlpha@pvrtexture@@YAH_NPAE1HHHAAI2@Z 00468a20 f   PVRTexLib:ETCCodec.obj
 0001:00068520       ?decompressBlockDifferentialWithAlpha@pvrtexture@@YAXIIPAE0HHH@Z 00469520 f   PVRTexLib:ETCCodec.obj
 0001:00068b10       ?calcBlockErrorRGBA@pvrtexture@@YANPAE00HHH@Z 00469b10 f   PVRTexLib:ETCCodec.obj
 0001:00068c00       ?calculateError59TAlpha@pvrtexture@@YANPAE0HHHQAY02EAAEAAI@Z 00469c00 f   PVRTexLib:ETCCodec.obj
 0001:00068e60       ?compressBlockTHUMB59TAlpha@pvrtexture@@YANPAE0HHHAAI1@Z 00469e60 f   PVRTexLib:ETCCodec.obj
 0001:00068f10       ?decompressBlockTHUMB59TAlpha@pvrtexture@@YAXIIPAE0HHH@Z 00469f10 f   PVRTexLib:ETCCodec.obj
 0001:000690c0       ?stuff59bitsDiffFalse@pvrtexture@@YAXIIAAI0@Z 0046a0c0 f   PVRTexLib:ETCCodec.obj
 0001:00069160       ?hasAlpha@pvrtexture@@YA_NPAEHHH@Z 0046a160 f   PVRTexLib:ETCCodec.obj
 0001:000691b0       ?decompressBlockETC21BitAlpha@pvrtexture@@YAXIIPAE0HHH@Z 0046a1b0 f   PVRTexLib:ETCCodec.obj
 0001:00069460       ?compressBlockETC2Fast@pvrtexture@@YAXPAE00HHHHAAI1W4EPVRTPixelFormat@@@Z 0046a460 f   PVRTexLib:ETCCodec.obj
 0001:00069960       ?compressBlockETC2FastPerceptual@pvrtexture@@YAXPAE0HHHAAI1@Z 0046a960 f   PVRTexLib:ETCCodec.obj
 0001:00069c60       ?getbit@pvrtexture@@YAEEHH@Z 0046ac60 f   PVRTexLib:ETCCodec.obj
 0001:00069c90       ?clamp@pvrtexture@@YAHH@Z  0046ac90 f   PVRTexLib:ETCCodec.obj
 0001:00069cb0       ?get16bits11signed@pvrtexture@@YAHHHHH@Z 0046acb0 f   PVRTexLib:ETCCodec.obj
 0001:00069d70       ?get16bits11bits@pvrtexture@@YAHHHHH_N@Z 0046ad70 f   PVRTexLib:ETCCodec.obj
 0001:00069e30       ?setupAlphaTable@pvrtexture@@YAXQAY07H@Z 0046ae30 f   PVRTexLib:ETCCodec.obj
 0001:00069f10       ?setupValtableAlpha@pvrtexture@@YAPAH_N@Z 0046af10 f   PVRTexLib:ETCCodec.obj
 0001:00069f90       ?clearUpValtableAlpha@pvrtexture@@YAXPAH@Z 0046af90 f   PVRTexLib:ETCCodec.obj
 0001:00069fa0       ?decompressBlockAlpha16bit@pvrtexture@@YAXPAEPAGHHH_N@Z 0046afa0 f   PVRTexLib:ETCCodec.obj
 0001:0006a090       ?decompressBlockAlpha@pvrtexture@@YAXPAE0HHHQAY07H@Z 0046b090 f   PVRTexLib:ETCCodec.obj
 0001:0006a170       ?compressBlockAlphaFast@pvrtexture@@YAXPAEHHH0QAY07H@Z 0046b170 f   PVRTexLib:ETCCodec.obj
 0001:0006a590       ?getPremulIndex@pvrtexture@@YAHHHHH@Z 0046b590 f   PVRTexLib:ETCCodec.obj
 0001:0006a5b0       ?calcError@pvrtexture@@YANPAGHHHHHHNPAH@Z 0046b5b0 f   PVRTexLib:ETCCodec.obj
 0001:0006a770       ?compressBlockAlpha16@pvrtexture@@YAXPAGHHHPAE_NPAH@Z 0046b770 f   PVRTexLib:ETCCodec.obj
 0001:0006a900       ?compressBlockAlphaSlow@pvrtexture@@YAXPAEHHH0QAY07H@Z 0046b900 f   PVRTexLib:ETCCodec.obj
 0001:0006ac50       ?precompute_3bittable_all_subblocksRG_withtest_perceptual1000@pvrtexture@@YAIPAE0PAI1111111I@Z 0046bc50 f i PVRTexLib:ETCCodec.obj
 0001:0006b0d0       ?precompute_3bittable_all_subblocksRG_withtest@pvrtexture@@YAHPAE0PAI1111111I@Z 0046c0d0 f i PVRTexLib:ETCCodec.obj
 0001:0006b4e0       ?precompute_3bittable_all_subblocksR_with_test_perceptual1000@pvrtexture@@YAIPAE0PAI111I@Z 0046c4e0 f i PVRTexLib:ETCCodec.obj
 0001:0006b800       ?precompute_3bittable_all_subblocksR_with_test@pvrtexture@@YAHPAE0PAI111I@Z 0046c800 f i PVRTexLib:ETCCodec.obj
 0001:0006bad0       ?tryalltables_3bittable_all_subblocks_using_precalc@pvrtexture@@YAXPAE0PAI111AAI222I@Z 0046cad0 f i PVRTexLib:ETCCodec.obj
 0001:0006fe20       ?tryalltables_3bittable_all_subblocks_using_precalc_perceptual1000@pvrtexture@@YAXPAE0PAI111AAI222I@Z 00470e20 f i PVRTexLib:ETCCodec.obj
 0001:00074730       ?compressBlockIndividualExhaustivePerceptual@pvrtexture@@YAIPAEHHHAAI1I@Z 00475730 f   PVRTexLib:ETCCodec.obj
 0001:00074f80       ?compressBlockIndividualExhaustive@pvrtexture@@YAIPAEHHHAAI1I@Z 00475f80 f   PVRTexLib:ETCCodec.obj
 0001:000757d0       ?compressBlockDifferentialExhaustivePerceptual@pvrtexture@@YAIPAEHHHAAI1I@Z 004767d0 f   PVRTexLib:ETCCodec.obj
 0001:00076760       ?compressBlockDifferentialExhaustive@pvrtexture@@YAIPAEHHHAAI1I@Z 00477760 f   PVRTexLib:ETCCodec.obj
 0001:000776e0       ?compressBlockPlanar57ExhaustivePerceptual@pvrtexture@@YAXPAEHHHAAI1IIII@Z 004786e0 f   PVRTexLib:ETCCodec.obj
 0001:00077d60       ?compressBlockPlanar57Exhaustive@pvrtexture@@YAXPAEHHHAAI1IIII@Z 00478d60 f   PVRTexLib:ETCCodec.obj
 0001:00078340       ?precalcError59T_col0_Rpercep1000@pvrtexture@@YAXPAEHPAI@Z 00479340 f   PVRTexLib:ETCCodec.obj
 0001:00078450       ?precalcError59T_col0_R@pvrtexture@@YAXPAEHPAI@Z 00479450 f   PVRTexLib:ETCCodec.obj
 0001:00078550       ?precalcError59T_col0_RGpercep1000@pvrtexture@@YAXPAEHPAI@Z 00479550 f   PVRTexLib:ETCCodec.obj
 0001:00078720       ?precalcError59T_col0_RG@pvrtexture@@YAXPAEHPAI@Z 00479720 f   PVRTexLib:ETCCodec.obj
 0001:000788e0       ?precalcError59T_col1_Rpercep1000@pvrtexture@@YAXPAEHPAI@Z 004798e0 f   PVRTexLib:ETCCodec.obj
 0001:00078930       ?precalcError59T_col1_R@pvrtexture@@YAXPAEHPAI@Z 00479930 f   PVRTexLib:ETCCodec.obj
 0001:00078970       ?precalcError59T_col1_RGpercep1000@pvrtexture@@YAXPAEHPAI@Z 00479970 f   PVRTexLib:ETCCodec.obj
 0001:00078a60       ?precalcError59T_col1_RG@pvrtexture@@YAXPAEHPAI@Z 00479a60 f   PVRTexLib:ETCCodec.obj
 0001:00078b20       ?precalcError59T_col0_RGBpercep1000@pvrtexture@@YAXPAEHPAI@Z 00479b20 f   PVRTexLib:ETCCodec.obj
 0001:00080420       ?precalcError59T_col0_RGB@pvrtexture@@YAXPAEHPAI@Z 00481420 f   PVRTexLib:ETCCodec.obj
 0001:00085830       ?precalcError59T_col1_RGBpercep1000@pvrtexture@@YAXPAEHPAI@Z 00486830 f   PVRTexLib:ETCCodec.obj
 0001:00085980       ?precalcError59T_col1_RGB@pvrtexture@@YAXPAEHPAI@Z 00486980 f   PVRTexLib:ETCCodec.obj
 0001:00085aa0       ?calculateError59TusingPrecalcRperceptual1000@pvrtexture@@YAIPAHPAI1I@Z 00486aa0 f   PVRTexLib:ETCCodec.obj
 0001:000865d0       ?calculateError59TusingPrecalcR@pvrtexture@@YAIPAHPAI1I@Z 004875d0 f   PVRTexLib:ETCCodec.obj
 0001:00087100       ?calculateError59TusingPrecalcRGperceptual1000@pvrtexture@@YAIPAHPAI1I@Z 00488100 f   PVRTexLib:ETCCodec.obj
 0001:00087c30       ?calculateError59TusingPrecalcRG@pvrtexture@@YAIPAHPAI1I@Z 00488c30 f   PVRTexLib:ETCCodec.obj
 0001:00088760       ?calculateError59TusingPrecalcRGBperceptual1000@pvrtexture@@YAIPAHPAI1I@Z 00489760 f   PVRTexLib:ETCCodec.obj
 0001:00089290       ?calculateError59TusingPrecalcRGB@pvrtexture@@YAIPAHPAI1I@Z 0048a290 f   PVRTexLib:ETCCodec.obj
 0001:00089dc0       ?compressBlockTHUMB59TExhaustivePerceptual@pvrtexture@@YAIPAEHHHAAI1I@Z 0048adc0 f   PVRTexLib:ETCCodec.obj
 0001:0008a320       ?compressBlockTHUMB59TExhaustive@pvrtexture@@YAIPAEHHHAAI1I@Z 0048b320 f   PVRTexLib:ETCCodec.obj
 0001:0008a890       ?precalcErrorR_58Hperceptual1000@pvrtexture@@YAXPAEHHHQAY02EHPAI@Z 0048b890 f   PVRTexLib:ETCCodec.obj
 0001:0008a9f0       ?precalcErrorR_58H@pvrtexture@@YAXPAEHHHQAY02EHPAI@Z 0048b9f0 f   PVRTexLib:ETCCodec.obj
 0001:0008ab50       ?precalcErrorRG_58Hperceptual1000@pvrtexture@@YAXPAEHHHQAY02EHPAI@Z 0048bb50 f   PVRTexLib:ETCCodec.obj
 0001:0008ad30       ?precalcErrorRG_58H@pvrtexture@@YAXPAEHHHQAY02EHPAI@Z 0048bd30 f   PVRTexLib:ETCCodec.obj
 0001:0008af00       ?precalcError58Hperceptual1000@pvrtexture@@YAXPAEQAY02EHPAI@Z 0048bf00 f   PVRTexLib:ETCCodec.obj
 0001:000904a0       ?precalcError58H@pvrtexture@@YAXPAEQAY02EHPAI@Z 004914a0 f   PVRTexLib:ETCCodec.obj
 0001:000941e0       ?calculateErrorFromPrecalcR58Hperceptual1000@pvrtexture@@YAIPAHPAII@Z 004951e0 f   PVRTexLib:ETCCodec.obj
 0001:000943a0       ?calculateErrorFromPrecalcR58H@pvrtexture@@YAIPAHPAII@Z 004953a0 f   PVRTexLib:ETCCodec.obj
 0001:00094560       ?calculateErrorFromPrecalcRG58Hperceptual1000@pvrtexture@@YAIPAHPAII@Z 00495560 f   PVRTexLib:ETCCodec.obj
 0001:00094720       ?calculateErrorFromPrecalcRG58H@pvrtexture@@YAIPAHPAII@Z 00495720 f   PVRTexLib:ETCCodec.obj
 0001:000948e0       ?calculateErrorFromPrecalc58Hperceptual1000@pvrtexture@@YAIPAHPAII@Z 004958e0 f   PVRTexLib:ETCCodec.obj
 0001:00095550       ?calculateErrorFromPrecalc58H@pvrtexture@@YAIPAHPAII@Z 00496550 f   PVRTexLib:ETCCodec.obj
 0001:000961c0       ?compressBlockTHUMB58HExhaustivePerceptual@pvrtexture@@YAIPAEHHHAAI1I@Z 004971c0 f   PVRTexLib:ETCCodec.obj
 0001:00096770       ?compressBlockTHUMB58HExhaustive@pvrtexture@@YAIPAEHHHAAI1I@Z 00497770 f   PVRTexLib:ETCCodec.obj
 0001:00096d90       ?compressBlockETC1Exhaustive@pvrtexture@@YAXPAE0HHHAAI1@Z 00497d90 f   PVRTexLib:ETCCodec.obj
 0001:00096e60       ?compressBlockETC1ExhaustivePerceptual@pvrtexture@@YAXPAE0HHHAAI1@Z 00497e60 f   PVRTexLib:ETCCodec.obj
 0001:00096f70       ?compressBlockETC2ExhaustivePerceptual@pvrtexture@@YAXPAE0HHHAAI1@Z 00497f70 f   PVRTexLib:ETCCodec.obj
 0001:00097350       ?compressBlockETC2Exhaustive@pvrtexture@@YAXPAE0HHHAAI1@Z 00498350 f   PVRTexLib:ETCCodec.obj
 0001:00097700       ?big_endian@pvrtexture@@YAII@Z 00498700 f   PVRTexLib:ETCCodec.obj
 0001:00097730       ?ConvertCToETCSigned@pvrtexture@@YAGF@Z 00498730 f i PVRTexLib:ETCCodec.obj
 0001:00097740       ?ConvertETCToCSigned@pvrtexture@@YAFG@Z 00498740 f i PVRTexLib:ETCCodec.obj
 0001:00097750       ?ETCCompress@pvrtexture@@YAIPBXPAXABI2HI_N@Z 00498750 f   PVRTexLib:ETCCodec.obj
 0001:00098870       ?ETCDecompress@pvrtexture@@YAIPBXPAXABI2I_N@Z 00499870 f   PVRTexLib:ETCCodec.obj
 0001:00098f40       ?PVRTCCompress@pvrtexture@@YAIPBXPAXABI2_N3II@Z 00499f40 f   PVRTexLib:PVRTCCodec.obj
 0001:000991d0       ?PVRTCDecompress@pvrtexture@@YAIPBXPAXABI2_N2@Z 0049a1d0 f   PVRTexLib:PVRTCCodec.obj
 0001:00099250       _pvrtc_compress            0049a250 f   PVRTexLib:pvrtc.obj
 0001:000992a0       _pvrtc_decompress          0049a2a0 f   PVRTexLib:pvrtc.obj
 0001:00099390       ?setNumberOfIterations@PVRTCCompressor@pvrtexture@@QAEXI@Z 0049a390 f i PVRTexLib:pvrtcMW.obj
 0001:000993a0       ??_GPVRTCMultiThreadedCompressor@pvrtexture@@QAEPAXI@Z 0049a3a0 f i PVRTexLib:pvrtcMW.obj
 0001:000993d0       ?pvrtcCompress4bppMW@pvrtexture@@YAHPAX0II_N1H@Z 0049a3d0 f   PVRTexLib:pvrtcMW.obj
 0001:000994c0       ?wrapBlockIndex@pvrtexture@@YAIIH@Z 0049a4c0 f   PVRTexLib:pvrtcMW.obj
 0001:000994e0       ??0?$Pixel@H@pvrtexture@@QAE@HHHH@Z 0049a4e0 f i PVRTexLib:pvrtcMW.obj
 0001:00099500       ?pvrtcCompress2bppMW@pvrtexture@@YAHPAX0II_N1H@Z 0049a500 f   PVRTexLib:pvrtcMW.obj
 0001:000995f0       ?analyzeEdgesInBlock@pvrtexture@@YAXPAU?$Pixel@E@1@PAM1@Z 0049a5f0 f   PVRTexLib:pvrtcMW.obj
 0001:00099850       ?pvrtcCompressMW@pvrtexture@@YAHPAX0II_N11H@Z 0049a850 f   PVRTexLib:pvrtcMW.obj
 0001:000998b0       ?storeColoursWithHEMode@pvrtexture@@YAIAAU?$Pixel@E@1@0_N@Z 0049a8b0 f i PVRTexLib:PVRTC2SectionCompress.obj
 0001:000999b0       ?countColours@pvrtexture@@YAHQAU?$Pixel@E@1@0@Z 0049a9b0 f   PVRTexLib:PVRTC2SectionCompress.obj
 0001:00099a50       ?hasBlockPThrough@pvrtexture@@YA_NQAU?$Pixel@E@1@@Z 0049aa50 f   PVRTexLib:PVRTC2SectionCompress.obj
 0001:00099a80       ??8?$Pixel@E@pvrtexture@@QAE_NABU01@@Z 0049aa80 f i PVRTexLib:PVRTC2SectionCompress.obj
 0001:00099ac0       ?PVRTC2SectionCompress@pvrtexture@@YAIPBXPAXABI2@Z 0049aac0 f   PVRTexLib:PVRTC2SectionCompress.obj
 0001:0009b410       ?setNumberOfIterations@PVRTCIICompressor@pvrtexture@@QAEXI@Z 0049c410 f i PVRTexLib:pvrtcIITH.obj
 0001:0009b420       ??_GPVRTCIIMultiThreadedCompressor@pvrtexture@@QAEPAXI@Z 0049c420 f i PVRTexLib:pvrtcIITH.obj
 0001:0009b450       ?pvrtc2Compress4bpp@pvrtexture@@YAHPAX0II_N1H@Z 0049c450 f   PVRTexLib:pvrtcIITH.obj
 0001:0009b540       ?wrapBlock2Index@pvrtexture@@YAIIH@Z 0049c540 f   PVRTexLib:pvrtcIITH.obj
 0001:0009b560       ?pvrtc2Compress2bpp@pvrtexture@@YAHPAX0II_N1H@Z 0049c560 f   PVRTexLib:pvrtcIITH.obj
 0001:0009b650       ?analyzeEdgesInBlock2@pvrtexture@@YAXPAU?$Pixel@E@1@PAM1@Z 0049c650 f   PVRTexLib:pvrtcIITH.obj
 0001:0009b8b0       ?pvrtc2Compress@pvrtexture@@YAHPAX0II_N11H@Z 0049c8b0 f   PVRTexLib:pvrtcIITH.obj
 0001:0009b910       _WriteU32LEAsChar          0049c910 f   PVRTexLib:wrapper.obj
 0001:0009b990       _MakeDimsCompatable        0049c990 f   PVRTexLib:wrapper.obj
 0001:0009bae0       _WriteCompressedDataAsText 0049cae0 f   PVRTexLib:wrapper.obj
 0001:0009bb70       _WriteCompressedData       0049cb70 f   PVRTexLib:wrapper.obj
 0001:0009c140       _PTPreprocess              0049d140 f   PVRTexLib:wrapper.obj
 0001:0009c160       _PVRTCInitProgressStruct   0049d160 f   PVRTexLib:wrapper.obj
 0001:0009c1c0       _PVRTCGetProgress          0049d1c0 f   PVRTexLib:wrapper.obj
 0001:0009c280       _PVRTCFinaliseProgressStruct 0049d280 f   PVRTexLib:wrapper.obj
 0001:0009c2b0       _PVRTCCompressTexture      0049d2b0 f   PVRTexLib:wrapper.obj
 0001:0009c990       _delete_bitmap             0049d990 f   PVRTexLib:bitmap.obj
 0001:0009c9d0       _bitmap_is_empty           0049d9d0 f   PVRTexLib:bitmap.obj
 0001:0009c9f0       _bitmap_get_error          0049d9f0 f   PVRTexLib:bitmap.obj
 0001:0009ca00       _bitmap_get_pixel          0049da00 f   PVRTexLib:bitmap.obj
 0001:0009ca50       _bitmap_get_pixel_fast     0049da50 f   PVRTexLib:bitmap.obj
 0001:0009ca70       _bitmap_get_pixel_rgba     0049da70 f   PVRTexLib:bitmap.obj
 0001:0009cb00       _bitmap_set_pixel          0049db00 f   PVRTexLib:bitmap.obj
 0001:0009cb50       _bitmap_set_pixel_rgba     0049db50 f   PVRTexLib:bitmap.obj
 0001:0009d370       _bitmap_transform_rect     0049e370 f   PVRTexLib:bitmap.obj
 0001:0009d3a0       _new_bitmap                0049e3a0 f   PVRTexLib:bitmap.obj
 0001:0009d450       _new_empty_bitmap          0049e450 f   PVRTexLib:bitmap.obj
 0001:0009d490       _bitmap_get_size           0049e490 f   PVRTexLib:bitmap.obj
 0001:0009d4e0       _bitmap_set_size           0049e4e0 f   PVRTexLib:bitmap.obj
 0001:0009d810       _bitmap_write_window_stdout 0049e810 f   PVRTexLib:bitmap.obj
 0001:0009d870       _bitmap_copy               0049e870 f   PVRTexLib:bitmap.obj
 0001:0009d8a0       _bitmap_copy_rect          0049e8a0 f   PVRTexLib:bitmap.obj
 0001:0009d8d0       _bitmap_copy_rect_to_rect  0049e8d0 f   PVRTexLib:bitmap.obj
 0001:0009de50       _bitmap_fill_solid_rect    0049ee50 f   PVRTexLib:bitmap.obj
 0001:0009df10       _bitmap_draw_line          0049ef10 f   PVRTexLib:bitmap.obj
 0001:0009e1f0       _bitmap_read_stdin         0049f1f0 f   PVRTexLib:bitmap.obj
 0001:0009e240       _bitmap_write_stdout       0049f240 f   PVRTexLib:bitmap.obj
 0001:0009e270       _bitmap_write_window       0049f270 f   PVRTexLib:bitmap.obj
 0001:0009e340       _bitmap_read               0049f340 f   PVRTexLib:bitmap.obj
 0001:0009e3e0       _bitmap_write              0049f3e0 f   PVRTexLib:bitmap.obj
 0001:0009ee80       _FillLocalPalette          0049fe80 f   PVRTexLib:decomp.obj
 0001:0009eef0       _resultFromLocalPalette    0049fef0 f   PVRTexLib:decomp.obj
 0001:0009f080       _Decompress                004a0080 f   PVRTexLib:decomp.obj
 0001:0009fa60       ?getNumberOfBlocksX@PVRTCCompressor@pvrtexture@@QBEIXZ 004a0a60 f i PVRTexLib:PVRTCMultiThreadedCompressor.obj
 0001:0009fa70       ?getNumberOfBlocksY@PVRTCCompressor@pvrtexture@@QBEIXZ 004a0a70 f i PVRTexLib:PVRTCMultiThreadedCompressor.obj
 0001:0009fa80       ?getNumberOfIterations@PVRTCCompressor@pvrtexture@@QBEIXZ 004a0a80 f i PVRTexLib:PVRTCMultiThreadedCompressor.obj
 0001:0009fa90       ?getModulationRecalculationInterval@PVRTCCompressor@pvrtexture@@QBEIXZ 004a0a90 f i PVRTexLib:PVRTCMultiThreadedCompressor.obj
 0001:0009faa0       ??1PVRTCMultiThreadedCompressor@pvrtexture@@QAE@XZ 004a0aa0 f   PVRTexLib:PVRTCMultiThreadedCompressor.obj
 0001:0009fab0       ?preprocess@PVRTCMultiThreadedCompressor@pvrtexture@@QAE_N_N@Z 004a0ab0 f   PVRTexLib:PVRTCMultiThreadedCompressor.obj
 0001:0009fac0       ?getNumberOfIterations@PVRTCMultiThreadedCompressor@pvrtexture@@QBEIXZ 004a0ac0 f   PVRTexLib:PVRTCMultiThreadedCompressor.obj
 0001:0009fad0       ?getModulationRecalculationInterval@PVRTCMultiThreadedCompressor@pvrtexture@@QBEIXZ 004a0ad0 f   PVRTexLib:PVRTCMultiThreadedCompressor.obj
 0001:0009fae0       ?optimizeColours@PVRTCMultiThreadedCompressor@pvrtexture@@QAEXABUPVRTCCompressorBlock@12@@Z 004a0ae0 f   PVRTexLib:PVRTCMultiThreadedCompressor.obj
 0001:0009fb10       ?calculateModulations@PVRTCMultiThreadedCompressor@pvrtexture@@QAEXABUPVRTCCompressorBlock@12@@Z 004a0b10 f   PVRTexLib:PVRTCMultiThreadedCompressor.obj
 0001:0009fb40       ?interpolateColoursAB@PVRTCMultiThreadedCompressor@pvrtexture@@QAEXXZ 004a0b40 f   PVRTexLib:PVRTCMultiThreadedCompressor.obj
 0001:0009fb50       ?calculateNumberOfThreads@PVRTCMultiThreadedCompressor@pvrtexture@@QAEXXZ 004a0b50 f   PVRTexLib:PVRTCMultiThreadedCompressor.obj
 0001:0009fb90       ?calculateModulations_win32@pvrtexture@@YGKPAX@Z 004a0b90 f   PVRTexLib:PVRTCMultiThreadedCompressor.obj
 0001:0009fbb0       ?optimizeColours_win32@pvrtexture@@YGKPAX@Z 004a0bb0 f   PVRTexLib:PVRTCMultiThreadedCompressor.obj
 0001:0009fd50       ??0PVRTCMultiThreadedCompressor@pvrtexture@@QAE@PAVPVRTCCompressor@1@I@Z 004a0d50 f   PVRTexLib:PVRTCMultiThreadedCompressor.obj
 0001:0009fd70       ?compress@PVRTCMultiThreadedCompressor@pvrtexture@@QAE_NXZ 004a0d70 f   PVRTexLib:PVRTCMultiThreadedCompressor.obj
 0001:0009fea0       ?setModulationData@PVRTCBlockData@pvrtexture@@QAEXI@Z 004a0ea0 f i PVRTexLib:PVRTC4bppCompressor.obj
 0001:0009feb0       ?setModulationMode@PVRTCBlockData@pvrtexture@@QAEXE@Z 004a0eb0 f i PVRTexLib:PVRTC4bppCompressor.obj
 0001:0009fed0       ?getSourceColour@PVRTCCompressor@pvrtexture@@IAEPAU?$Pixel@E@2@II@Z 004a0ed0 f i PVRTexLib:PVRTC4bppCompressor.obj
 0001:0009ff00       ?getColourA@PVRTCCompressor@pvrtexture@@IBE?AU?$Pixel@E@2@II@Z 004a0f00 f i PVRTexLib:PVRTC4bppCompressor.obj
 0001:0009ff20       ?getColourB@PVRTCCompressor@pvrtexture@@IBE?AU?$Pixel@E@2@II@Z 004a0f20 f i PVRTexLib:PVRTC4bppCompressor.obj
 0001:0009ff40       ?getInterpolatedColourA@PVRTCCompressor@pvrtexture@@IAEPAU?$Pixel@E@2@II@Z 004a0f40 f i PVRTexLib:PVRTC4bppCompressor.obj
 0001:0009ff70       ?getInterpolatedColourB@PVRTCCompressor@pvrtexture@@IAEPAU?$Pixel@E@2@II@Z 004a0f70 f i PVRTexLib:PVRTC4bppCompressor.obj
 0001:0009ffa0       ?getPVRTCCompressorData@PVRTC4bppCompressor@pvrtexture@@IAEPAUPVRTCCompressorData@12@II@Z 004a0fa0 f i PVRTexLib:PVRTC4bppCompressor.obj
 0001:0009ffc0       ??0PVRTC4bppCompressor@pvrtexture@@QAE@PBU?$Pixel@E@1@II@Z 004a0fc0 f   PVRTexLib:PVRTC4bppCompressor.obj
 0001:000a00a0       ??1PVRTC4bppCompressor@pvrtexture@@UAE@XZ 004a10a0 f   PVRTexLib:PVRTC4bppCompressor.obj
 0001:000a0110       ?getCompressedData@PVRTC4bppCompressor@pvrtexture@@UAE_NPAUPVRTCBlockData@2@_N@Z 004a1110 f   PVRTexLib:PVRTC4bppCompressor.obj
 0001:000a0260       ?calculateModulations@PVRTC4bppCompressor@pvrtexture@@IAEXXZ 004a1260 f   PVRTexLib:PVRTC4bppCompressor.obj
 0001:000a0280       ?optimizeColoursAB@PVRTC4bppCompressor@pvrtexture@@IAEXXZ 004a1280 f   PVRTexLib:PVRTC4bppCompressor.obj
 0001:000a02a0       ??H?$Pixel@M@pvrtexture@@QAE?AU01@ABU01@@Z 004a12a0 f i PVRTexLib:PVRTC4bppCompressor.obj
 0001:000a02d0       ??G?$Pixel@M@pvrtexture@@QAE?AU01@ABU01@@Z 004a12d0 f i PVRTexLib:PVRTC4bppCompressor.obj
 0001:000a0300       ??X?$Pixel@M@pvrtexture@@QAEAAU01@M@Z 004a1300 f i PVRTexLib:PVRTC4bppCompressor.obj
 0001:000a0330       ??0?$Pixel@H@pvrtexture@@QAE@XZ 004a1330 f i PVRTexLib:PVRTC4bppCompressor.obj
 0001:000a0340       ??X?$Pixel@H@pvrtexture@@QAEAAU01@H@Z 004a1340 f i PVRTexLib:PVRTC4bppCompressor.obj
 0001:000a0370       ??$?0E@?$Pixel@H@pvrtexture@@QAE@ABU?$Pixel@E@1@@Z 004a1370 f i PVRTexLib:PVRTC4bppCompressor.obj
 0001:000a03a0       ??$?4E@?$Pixel@H@pvrtexture@@QAEAAU01@ABU?$Pixel@E@1@@Z 004a13a0 f i PVRTexLib:PVRTC4bppCompressor.obj
 0001:000a03d0       ??_GPVRTC4bppCompressor@pvrtexture@@UAEPAXI@Z 004a13d0 f i PVRTexLib:PVRTC4bppCompressor.obj
 0001:000a03d0       ??_EPVRTC4bppCompressor@pvrtexture@@UAEPAXI@Z 004a13d0 f i PVRTexLib:PVRTC4bppCompressor.obj
 0001:000a0400       ?preprocess@PVRTC4bppCompressor@pvrtexture@@UAE_N_N@Z 004a1400 f   PVRTexLib:PVRTC4bppCompressor.obj
 0001:000a0430       ?compress@PVRTC4bppCompressor@pvrtexture@@UAE_NXZ 004a1430 f   PVRTexLib:PVRTC4bppCompressor.obj
 0001:000a0490       ?calculateModulations_Standard@PVRTC4bppCompressor@pvrtexture@@IAEXII@Z 004a1490 f   PVRTexLib:PVRTC4bppCompressor.obj
 0001:000a06c0       ?calculateModulations_Punchthrough@PVRTC4bppCompressor@pvrtexture@@IAEXII@Z 004a16c0 f   PVRTexLib:PVRTC4bppCompressor.obj
 0001:000a08f0       ?decompressPVRTCBlock@PVRTC4bppCompressor@pvrtexture@@IAEXIIPAU?$Pixel@E@2@W4ePVRTCMode@12@@Z 004a18f0 f   PVRTexLib:PVRTC4bppCompressor.obj
 0001:000a0af0       ?optimizeColoursAB@PVRTC4bppCompressor@pvrtexture@@MAEXIIII@Z 004a1af0 f   PVRTexLib:PVRTC4bppCompressor.obj
 0001:000a1940       ?getInterpolatedColour@PVRTC4bppCompressor@pvrtexture@@IBEXPAU?$Pixel@E@2@II0@Z 004a2940 f   PVRTexLib:PVRTC4bppCompressor.obj
 0001:000a1ad0       ??G?$Pixel@H@pvrtexture@@QAE?AU01@ABU01@@Z 004a2ad0 f i PVRTexLib:PVRTC4bppCompressor.obj
 0001:000a1b00       ?calculateModulations@PVRTC4bppCompressor@pvrtexture@@MAEXIIII@Z 004a2b00 f   PVRTexLib:PVRTC4bppCompressor.obj
 0001:000a1c10       ?interpolateColours4x4_uint8@pvrtexture@@YAXU?$Pixel@E@1@000PAU21@@Z 004a2c10 f   PVRTexLib:PVRTC4bppCompressor.obj
 0001:000a1e60       ?interpolateColoursAB@PVRTC4bppCompressor@pvrtexture@@MAEXXZ 004a2e60 f   PVRTexLib:PVRTC4bppCompressor.obj
 0001:000a1e90       ?getPVRTCCompressorData@PVRTC2bppCompressor@pvrtexture@@AAEPAUPVRTCCompressorData@12@II@Z 004a2e90 f i PVRTexLib:PVRTC2bppCompressor.obj
 0001:000a1eb0       ??0PVRTC2bppCompressor@pvrtexture@@QAE@PBU?$Pixel@E@1@II@Z 004a2eb0 f   PVRTexLib:PVRTC2bppCompressor.obj
 0001:000a1f80       ??1PVRTC2bppCompressor@pvrtexture@@UAE@XZ 004a2f80 f   PVRTexLib:PVRTC2bppCompressor.obj
 0001:000a1fe0       ?getCompressedData@PVRTC2bppCompressor@pvrtexture@@UAE_NPAUPVRTCBlockData@2@_N@Z 004a2fe0 f   PVRTexLib:PVRTC2bppCompressor.obj
 0001:000a2210       ?calculateModulations@PVRTC2bppCompressor@pvrtexture@@AAEXXZ 004a3210 f   PVRTexLib:PVRTC2bppCompressor.obj
 0001:000a2230       ?calculate1BPPModulation@PVRTC2bppCompressor@pvrtexture@@AAEXII@Z 004a3230 f   PVRTexLib:PVRTC2bppCompressor.obj
 0001:000a23a0       ?getModulationValues@PVRTC2bppCompressor@pvrtexture@@AAEXIIW4ePVRTCMode@12@PAE@Z 004a33a0 f   PVRTexLib:PVRTC2bppCompressor.obj
 0001:000a2630       ?decompressPVRTCBlock@PVRTC2bppCompressor@pvrtexture@@AAEXIIPAU?$Pixel@E@2@W4ePVRTCMode@12@@Z 004a3630 f   PVRTexLib:PVRTC2bppCompressor.obj
 0001:000a2a80       ?optimizeColoursAB@PVRTC2bppCompressor@pvrtexture@@AAEXXZ 004a3a80 f   PVRTexLib:PVRTC2bppCompressor.obj
 0001:000a2aa0       ??_GPVRTC2bppCompressor@pvrtexture@@UAEPAXI@Z 004a3aa0 f i PVRTexLib:PVRTC2bppCompressor.obj
 0001:000a2aa0       ??_EPVRTC2bppCompressor@pvrtexture@@UAEPAXI@Z 004a3aa0 f i PVRTexLib:PVRTC2bppCompressor.obj
 0001:000a2ad0       ?compress@PVRTC2bppCompressor@pvrtexture@@UAE_NXZ 004a3ad0 f   PVRTexLib:PVRTC2bppCompressor.obj
 0001:000a2b30       ?calculate2BPPInterpolatedModulation@PVRTC2bppCompressor@pvrtexture@@AAEXII@Z 004a3b30 f   PVRTexLib:PVRTC2bppCompressor.obj
 0001:000a2d20       ?optimizeColoursAB@PVRTC2bppCompressor@pvrtexture@@EAEXIIII@Z 004a3d20 f   PVRTexLib:PVRTC2bppCompressor.obj
 0001:000a3ca0       ?calculateModulations@PVRTC2bppCompressor@pvrtexture@@EAEXIIII@Z 004a4ca0 f   PVRTexLib:PVRTC2bppCompressor.obj
 0001:000a3e80       ?interpolateColours8x4_uint8@pvrtexture@@YAXU?$Pixel@E@1@000PAU21@@Z 004a4e80 f   PVRTexLib:PVRTC2bppCompressor.obj
 0001:000a40e0       ?preprocess@PVRTC2bppCompressor@pvrtexture@@UAE_N_N@Z 004a50e0 f   PVRTexLib:PVRTC2bppCompressor.obj
 0001:000a4120       ?interpolateColoursAB@PVRTC2bppCompressor@pvrtexture@@EAEXXZ 004a5120 f   PVRTexLib:PVRTC2bppCompressor.obj
 0001:000a4150       ?getNumberOfBlocksX@PVRTCIICompressor@pvrtexture@@QBEIXZ 004a5150 f i PVRTexLib:PVRTCIIMultiThreadedCompressor.obj
 0001:000a4160       ?getNumberOfBlocksY@PVRTCIICompressor@pvrtexture@@QBEIXZ 004a5160 f i PVRTexLib:PVRTCIIMultiThreadedCompressor.obj
 0001:000a4170       ?getNumberOfIterations@PVRTCIICompressor@pvrtexture@@QBEIXZ 004a5170 f i PVRTexLib:PVRTCIIMultiThreadedCompressor.obj
 0001:000a4180       ?getModulationRecalculationInterval@PVRTCIICompressor@pvrtexture@@QBEIXZ 004a5180 f i PVRTexLib:PVRTCIIMultiThreadedCompressor.obj
 0001:000a4190       ??0PVRTCIIMultiThreadedCompressor@pvrtexture@@QAE@PAVPVRTCIICompressor@1@I@Z 004a5190 f   PVRTexLib:PVRTCIIMultiThreadedCompressor.obj
 0001:000a41b0       ??1PVRTCIIMultiThreadedCompressor@pvrtexture@@QAE@XZ 004a51b0 f   PVRTexLib:PVRTCIIMultiThreadedCompressor.obj
 0001:000a41c0       ?preprocess@PVRTCIIMultiThreadedCompressor@pvrtexture@@QAE_N_N@Z 004a51c0 f   PVRTexLib:PVRTCIIMultiThreadedCompressor.obj
 0001:000a41d0       ?getNumberOfIterations@PVRTCIIMultiThreadedCompressor@pvrtexture@@QBEIXZ 004a51d0 f   PVRTexLib:PVRTCIIMultiThreadedCompressor.obj
 0001:000a41e0       ?getModulationRecalculationInterval@PVRTCIIMultiThreadedCompressor@pvrtexture@@QBEIXZ 004a51e0 f   PVRTexLib:PVRTCIIMultiThreadedCompressor.obj
 0001:000a41f0       ?optimizeColours@PVRTCIIMultiThreadedCompressor@pvrtexture@@QAEXABUPVRTCIICompressorBlock@12@@Z 004a51f0 f   PVRTexLib:PVRTCIIMultiThreadedCompressor.obj
 0001:000a4220       ?calculateModulations@PVRTCIIMultiThreadedCompressor@pvrtexture@@QAEXABUPVRTCIICompressorBlock@12@@Z 004a5220 f   PVRTexLib:PVRTCIIMultiThreadedCompressor.obj
 0001:000a4250       ?interpolateColoursAB@PVRTCIIMultiThreadedCompressor@pvrtexture@@QAEXXZ 004a5250 f   PVRTexLib:PVRTCIIMultiThreadedCompressor.obj
 0001:000a4260       ?calculateNumberOfThreads@PVRTCIIMultiThreadedCompressor@pvrtexture@@QAEXXZ 004a5260 f   PVRTexLib:PVRTCIIMultiThreadedCompressor.obj
 0001:000a42a0       ?calculateModulations2_win32@pvrtexture@@YGKPAX@Z 004a52a0 f   PVRTexLib:PVRTCIIMultiThreadedCompressor.obj
 0001:000a42c0       ?optimizeColours2_win32@pvrtexture@@YGKPAX@Z 004a52c0 f   PVRTexLib:PVRTCIIMultiThreadedCompressor.obj
 0001:000a4460       ?compress@PVRTCIIMultiThreadedCompressor@pvrtexture@@QAE_NXZ 004a5460 f   PVRTexLib:PVRTCIIMultiThreadedCompressor.obj
 0001:000a4590       ?setModulationData@PVRTCIIBlockData@pvrtexture@@QAEXI@Z 004a5590 f i PVRTexLib:PVRTCII4bppCompressor.obj
 0001:000a45a0       ?setModulationMode@PVRTCIIBlockData@pvrtexture@@QAEXE@Z 004a55a0 f i PVRTexLib:PVRTCII4bppCompressor.obj
 0001:000a45c0       ?setHardEdge@PVRTCIIBlockData@pvrtexture@@QAEX_N@Z 004a55c0 f i PVRTexLib:PVRTCII4bppCompressor.obj
 0001:000a45e0       ?getSourceColour@PVRTCIICompressor@pvrtexture@@IAEPAU?$Pixel@E@2@II@Z 004a55e0 f i PVRTexLib:PVRTCII4bppCompressor.obj
 0001:000a4610       ?getColourA@PVRTCIICompressor@pvrtexture@@IBE?AU?$Pixel@E@2@II@Z 004a5610 f i PVRTexLib:PVRTCII4bppCompressor.obj
 0001:000a4630       ?getColourB@PVRTCIICompressor@pvrtexture@@IBE?AU?$Pixel@E@2@II@Z 004a5630 f i PVRTexLib:PVRTCII4bppCompressor.obj
 0001:000a4650       ?getInterpolatedColourA@PVRTCIICompressor@pvrtexture@@IAEPAU?$Pixel@E@2@II@Z 004a5650 f i PVRTexLib:PVRTCII4bppCompressor.obj
 0001:000a4680       ?getInterpolatedColourB@PVRTCIICompressor@pvrtexture@@IAEPAU?$Pixel@E@2@II@Z 004a5680 f i PVRTexLib:PVRTCII4bppCompressor.obj
 0001:000a46b0       ?getPVRTCIICompressorData@PVRTCII4bppCompressor@pvrtexture@@IAEPAUPVRTCIICompressorData@12@II@Z 004a56b0 f i PVRTexLib:PVRTCII4bppCompressor.obj
 0001:000a46d0       ??0PVRTCII4bppCompressor@pvrtexture@@QAE@PBU?$Pixel@E@1@II@Z 004a56d0 f   PVRTexLib:PVRTCII4bppCompressor.obj
 0001:000a47b0       ??1PVRTCII4bppCompressor@pvrtexture@@UAE@XZ 004a57b0 f   PVRTexLib:PVRTCII4bppCompressor.obj
 0001:000a4820       ?getCompressedData@PVRTCII4bppCompressor@pvrtexture@@UAE_NPAUPVRTCIIBlockData@2@@Z 004a5820 f   PVRTexLib:PVRTCII4bppCompressor.obj
 0001:000a4970       ?calculateModulations@PVRTCII4bppCompressor@pvrtexture@@IAEXXZ 004a5970 f   PVRTexLib:PVRTCII4bppCompressor.obj
 0001:000a4990       ?optimizeColoursAB@PVRTCII4bppCompressor@pvrtexture@@IAEXXZ 004a5990 f   PVRTexLib:PVRTCII4bppCompressor.obj
 0001:000a49b0       ??_GPVRTCII4bppCompressor@pvrtexture@@UAEPAXI@Z 004a59b0 f i PVRTexLib:PVRTCII4bppCompressor.obj
 0001:000a49b0       ??_EPVRTCII4bppCompressor@pvrtexture@@UAEPAXI@Z 004a59b0 f i PVRTexLib:PVRTCII4bppCompressor.obj
 0001:000a49e0       ?preprocess@PVRTCII4bppCompressor@pvrtexture@@UAE_N_N@Z 004a59e0 f   PVRTexLib:PVRTCII4bppCompressor.obj
 0001:000a4a10       ?compress@PVRTCII4bppCompressor@pvrtexture@@UAE_NXZ 004a5a10 f   PVRTexLib:PVRTCII4bppCompressor.obj
 0001:000a4a70       ?calculateModulations_Standard@PVRTCII4bppCompressor@pvrtexture@@IAEXII@Z 004a5a70 f   PVRTexLib:PVRTCII4bppCompressor.obj
 0001:000a4ca0       ?calculateModulations_Punchthrough@PVRTCII4bppCompressor@pvrtexture@@IAEXII@Z 004a5ca0 f   PVRTexLib:PVRTCII4bppCompressor.obj
 0001:000a4ed0       ?decompressPVRTCBlock@PVRTCII4bppCompressor@pvrtexture@@IAEXIIPAU?$Pixel@E@2@W4ePVRTCIIMode@12@@Z 004a5ed0 f   PVRTexLib:PVRTCII4bppCompressor.obj
 0001:000a50d0       ?optimizeColoursAB@PVRTCII4bppCompressor@pvrtexture@@MAEXIIII@Z 004a60d0 f   PVRTexLib:PVRTCII4bppCompressor.obj
 0001:000a5f20       ?getInterpolatedColour@PVRTCII4bppCompressor@pvrtexture@@IBEXPAU?$Pixel@E@2@II0@Z 004a6f20 f   PVRTexLib:PVRTCII4bppCompressor.obj
 0001:000a60b0       ?calculateModulations@PVRTCII4bppCompressor@pvrtexture@@MAEXIIII@Z 004a70b0 f   PVRTexLib:PVRTCII4bppCompressor.obj
 0001:000a61c0       ?interpolateColours24x4_uint8@pvrtexture@@YAXU?$Pixel@E@1@000PAU21@@Z 004a71c0 f   PVRTexLib:PVRTCII4bppCompressor.obj
 0001:000a6410       ?interpolateColoursAB@PVRTCII4bppCompressor@pvrtexture@@MAEXXZ 004a7410 f   PVRTexLib:PVRTCII4bppCompressor.obj
 0001:000a6440       ?getPVRTCIICompressorData@PVRTCII2bppCompressor@pvrtexture@@AAEPAUPVRTCIICompressorData@12@II@Z 004a7440 f i PVRTexLib:PVRTCII2bppCompressor.obj
 0001:000a6460       ??0PVRTCII2bppCompressor@pvrtexture@@QAE@PBU?$Pixel@E@1@II@Z 004a7460 f   PVRTexLib:PVRTCII2bppCompressor.obj
 0001:000a6530       ??1PVRTCII2bppCompressor@pvrtexture@@UAE@XZ 004a7530 f   PVRTexLib:PVRTCII2bppCompressor.obj
 0001:000a6590       ?getCompressedData@PVRTCII2bppCompressor@pvrtexture@@UAE_NPAUPVRTCIIBlockData@2@@Z 004a7590 f   PVRTexLib:PVRTCII2bppCompressor.obj
 0001:000a67d0       ?calculateModulations@PVRTCII2bppCompressor@pvrtexture@@AAEXXZ 004a77d0 f   PVRTexLib:PVRTCII2bppCompressor.obj
 0001:000a67f0       ?calculate1BPPModulation@PVRTCII2bppCompressor@pvrtexture@@AAEXII@Z 004a77f0 f   PVRTexLib:PVRTCII2bppCompressor.obj
 0001:000a6960       ?getModulationValues@PVRTCII2bppCompressor@pvrtexture@@AAEXIIW4ePVRTCIIMode@12@PAE@Z 004a7960 f   PVRTexLib:PVRTCII2bppCompressor.obj
 0001:000a6bf0       ?decompressPVRTCBlock@PVRTCII2bppCompressor@pvrtexture@@AAEXIIPAU?$Pixel@E@2@W4ePVRTCIIMode@12@@Z 004a7bf0 f   PVRTexLib:PVRTCII2bppCompressor.obj
 0001:000a7040       ?optimizeColoursAB@PVRTCII2bppCompressor@pvrtexture@@AAEXXZ 004a8040 f   PVRTexLib:PVRTCII2bppCompressor.obj
 0001:000a7060       ??_GPVRTCII2bppCompressor@pvrtexture@@UAEPAXI@Z 004a8060 f i PVRTexLib:PVRTCII2bppCompressor.obj
 0001:000a7060       ??_EPVRTCII2bppCompressor@pvrtexture@@UAEPAXI@Z 004a8060 f i PVRTexLib:PVRTCII2bppCompressor.obj
 0001:000a7090       ?compress@PVRTCII2bppCompressor@pvrtexture@@UAE_NXZ 004a8090 f   PVRTexLib:PVRTCII2bppCompressor.obj
 0001:000a70f0       ?calculate2BPPInterpolatedModulation@PVRTCII2bppCompressor@pvrtexture@@AAEXII@Z 004a80f0 f   PVRTexLib:PVRTCII2bppCompressor.obj
 0001:000a72e0       ?optimizeColoursAB@PVRTCII2bppCompressor@pvrtexture@@EAEXIIII@Z 004a82e0 f   PVRTexLib:PVRTCII2bppCompressor.obj
 0001:000a8260       ?calculateModulations@PVRTCII2bppCompressor@pvrtexture@@EAEXIIII@Z 004a9260 f   PVRTexLib:PVRTCII2bppCompressor.obj
 0001:000a8440       ?interpolateColours28x4_uint8@pvrtexture@@YAXU?$Pixel@E@1@000PAU21@@Z 004a9440 f   PVRTexLib:PVRTCII2bppCompressor.obj
 0001:000a86a0       ?preprocess@PVRTCII2bppCompressor@pvrtexture@@UAE_N_N@Z 004a96a0 f   PVRTexLib:PVRTCII2bppCompressor.obj
 0001:000a86e0       ?interpolateColoursAB@PVRTCII2bppCompressor@pvrtexture@@EAEXXZ 004a96e0 f   PVRTexLib:PVRTCII2bppCompressor.obj
 0001:000a8710       _SQColDist                 004a9710 f   PVRTexLib:tools.obj
 0001:000a8760       _CLowTo8                   004a9760 f   PVRTexLib:tools.obj
 0001:000a8790       _C8ToLow                   004a9790 f   PVRTexLib:tools.obj
 0001:000a87c0       _printf_flush              004a97c0 f   PVRTexLib:tools.obj
 0001:000a87f0       _fprintf_flush             004a97f0 f   PVRTexLib:tools.obj
 0001:000a8840       _NewImage                  004a9840 f   PVRTexLib:tools.obj
 0001:000a88f0       _NewFImage                 004a98f0 f   PVRTexLib:tools.obj
 0001:000a8960       _CopyFImageStruct          004a9960 f   PVRTexLib:tools.obj
 0001:000a89f0       _CopyImageStruct           004a99f0 f   PVRTexLib:tools.obj
 0001:000a8a40       _MeasureError              004a9a40 f   PVRTexLib:tools.obj
 0001:000a8b10       _ComputeImageDiff          004a9b10 f   PVRTexLib:tools.obj
 0001:000a8bf0       _ComputeImageDiff2         004a9bf0 f   PVRTexLib:tools.obj
 0001:000a8cd0       _ComputeImageSum2          004a9cd0 f   PVRTexLib:tools.obj
 0001:000a8db0       _ToFloatForm               004a9db0 f   PVRTexLib:tools.obj
 0001:000a8e80       _TransToIntForm            004a9e80 f   PVRTexLib:tools.obj
 0001:000a8f30       _CopyTransToRGB            004a9f30 f   PVRTexLib:tools.obj
 0001:000a8fb0       _ClampImage                004a9fb0 f   PVRTexLib:tools.obj
 0001:000ab3c0       _ApplyImageScaleTransform  004ac3c0 f   PVRTexLib:tools.obj
 0001:000ab4f0       _ValIsPOW2                 004ac4f0 f   PVRTexLib:morton.obj
 0001:000ab520       _TwiddleUV                 004ac520 f   PVRTexLib:morton.obj
 0001:000ab590       _WriteFloat                004ac590 f   PVRTexLib:nonendian.obj
 0001:000ab5f0       _ReadU32                   004ac5f0 f   PVRTexLib:nonendian.obj
 0001:000ab650       _WriteU32                  004ac650 f   PVRTexLib:nonendian.obj
 0001:000ab6a0       _AMTCNewMethod             004ac6a0 f   PVRTexLib:amtc.obj
 0001:000ab7a0       _string_dup                004ac7a0 f   PVRTexLib:util.obj
 0001:000ab7e0       _string_dup_strip          004ac7e0 f   PVRTexLib:util.obj
 0001:000ab860       _string_strip_spaces       004ac860 f   PVRTexLib:util.obj
 0001:000ab8c0       _strcmp_nocase             004ac8c0 f   PVRTexLib:util.obj
 0001:000ab910       _alloc_printf              004ac910 f   PVRTexLib:util.obj
 0001:000ab960       _util_alloc_2d             004ac960 f   PVRTexLib:util.obj
 0001:000aba30       _util_free_2d              004aca30 f   PVRTexLib:util.obj
 0001:000aba70       _util_alloc_3d             004aca70 f   PVRTexLib:util.obj
 0001:000abbd0       _util_free_3d              004acbd0 f   PVRTexLib:util.obj
 0001:000abc40       _util_reverse_bit_order    004acc40 f   PVRTexLib:util.obj
 0001:000abd50       _util_number_is_power_2    004acd50 f   PVRTexLib:util.obj
 0001:000abd80       _util_num_bits             004acd80 f   PVRTexLib:util.obj
 0001:000abdd0       _util_larger_power_2       004acdd0 f   PVRTexLib:util.obj
 0001:000abe10       _util_system_is_little_endian 004ace10 f   PVRTexLib:util.obj
 0001:000abe20       _util_endian_swap_32       004ace20 f   PVRTexLib:util.obj
 0001:000abe50       _util_endian_swap_16       004ace50 f   PVRTexLib:util.obj
 0001:000abe70       _util_string_check_chars   004ace70 f   PVRTexLib:util.obj
 0001:000abeb0       _su_round                  004aceb0 f   PVRTexLib:util.obj
 0001:000abf90       _zio_file_close            004acf90 f   PVRTexLib:zio.obj
 0001:000abfb0       _zio_have_z_files          004acfb0 f   PVRTexLib:zio.obj
 0001:000abfc0       _zio_file_write            004acfc0 f   PVRTexLib:zio.obj
 0001:000ac0c0       _zio_file_read             004ad0c0 f   PVRTexLib:zio.obj
 0001:000ac1f0       _zio_file_seek             004ad1f0 f   PVRTexLib:zio.obj
 0001:000ac220       _zio_file_tell             004ad220 f   PVRTexLib:zio.obj
 0001:000ac240       _zio_file_eof              004ad240 f   PVRTexLib:zio.obj
 0001:000ac260       _zio_file_gets             004ad260 f   PVRTexLib:zio.obj
 0001:000ac290       _zio_printf                004ad290 f   PVRTexLib:zio.obj
 0001:000ac2c0       _zio_file_open             004ad2c0 f   PVRTexLib:zio.obj
 0001:000ac310       _zio_file_open_stdin       004ad310 f   PVRTexLib:zio.obj
 0001:000ac360       _zio_file_open_stdout      004ad360 f   PVRTexLib:zio.obj
 0001:000ac3b0       _endian_init               004ad3b0 f   PVRTexLib:su_endian.obj
 0001:000ac3d0       _endian_convert_u64_le     004ad3d0 f   PVRTexLib:su_endian.obj
 0001:000ac4b0       _endian_convert_u32_le     004ad4b0 f   PVRTexLib:su_endian.obj
 0001:000ac4f0       _endian_convert_u24_le     004ad4f0 f   PVRTexLib:su_endian.obj
 0001:000ac530       _endian_convert_u16_le     004ad530 f   PVRTexLib:su_endian.obj
 0001:000ac550       _endian_convert_u64_be     004ad550 f   PVRTexLib:su_endian.obj
 0001:000ac5f0       _endian_convert_u32_be     004ad5f0 f   PVRTexLib:su_endian.obj
 0001:000ac630       _endian_convert_u24_be     004ad630 f   PVRTexLib:su_endian.obj
 0001:000ac670       _endian_convert_u16_be     004ad670 f   PVRTexLib:su_endian.obj
 0001:000ac690       ??1PVRTCCompressor@pvrtexture@@UAE@XZ 004ad690 f   PVRTexLib:PVRTCCompressor.obj
 0001:000ac6f0       ?calculateImageBlockErrorMeanSquared@PVRTCCompressor@pvrtexture@@IBEXPBU?$Pixel@E@2@0AAI@Z 004ad6f0 f   PVRTexLib:PVRTCCompressor.obj
 0001:000ac7d0       ?interpolateColours@PVRTCCompressor@pvrtexture@@IBEXU?$Pixel@E@2@000IIAAU32@@Z 004ad7d0 f   PVRTexLib:PVRTCCompressor.obj
 0001:000ac8f0       ?getTwiddleOffset@PVRTCCompressor@pvrtexture@@IAEIIIII@Z 004ad8f0 f   PVRTexLib:PVRTCCompressor.obj
 0001:000ac990       ?clamp@PVRTCCompressor@pvrtexture@@IBEMMMM@Z 004ad990 f   PVRTexLib:PVRTCCompressor.obj
 0001:000ac9c0       ?wrapIndex@PVRTCCompressor@pvrtexture@@IBEIIH@Z 004ad9c0 f   PVRTexLib:PVRTCCompressor.obj
 0001:000ac9e0       ?squareColourDistance@PVRTCCompressor@pvrtexture@@IBEHABU?$Pixel@E@2@0@Z 004ad9e0 f   PVRTexLib:PVRTCCompressor.obj
 0001:000aca30       ?weightedColourDistance@PVRTCCompressor@pvrtexture@@IBEHABU?$Pixel@E@2@0@Z 004ada30 f   PVRTexLib:PVRTCCompressor.obj
 0001:000aca80       ?colourLuminance@PVRTCCompressor@pvrtexture@@IBEHABU?$Pixel@E@2@@Z 004ada80 f   PVRTexLib:PVRTCCompressor.obj
 0001:000acac0       ??Y?$Pixel@I@pvrtexture@@QAEAAU01@ABU01@@Z 004adac0 f i PVRTexLib:PVRTCCompressor.obj
 0001:000acaf0       ??$?0E@?$Pixel@I@pvrtexture@@QAE@ABU?$Pixel@E@1@@Z 004adaf0 f i PVRTexLib:PVRTCCompressor.obj
 0001:000acb20       ??0PVRTCCompressor@pvrtexture@@QAE@PBU?$Pixel@E@1@IIEE@Z 004adb20 f   PVRTexLib:PVRTCCompressor.obj
 0001:000acc30       ??_EPVRTCCompressor@pvrtexture@@UAEPAXI@Z 004adc30 f i PVRTexLib:PVRTCCompressor.obj
 0001:000acc30       ??_GPVRTCCompressor@pvrtexture@@UAEPAXI@Z 004adc30 f i PVRTexLib:PVRTCCompressor.obj
 0001:000acc60       ?selectColoursAB_MaxDistance@PVRTCCompressor@pvrtexture@@IBEXPBU?$Pixel@E@2@IAAU32@1@Z 004adc60 f   PVRTexLib:PVRTCCompressor.obj
 0001:000acdc0       ?selectColoursAB_Statistical@PVRTCCompressor@pvrtexture@@IBEXPBU?$Pixel@E@2@IAAU32@1@Z 004addc0 f   PVRTexLib:PVRTCCompressor.obj
 0001:000ad370       ?interpolateColoursAB@PVRTCCompressor@pvrtexture@@IAEXP6AXU?$Pixel@E@2@000PAU32@@Z11@Z 004ae370 f   PVRTexLib:PVRTCCompressor.obj
 0001:000ad600       ?clamp@PVRTCCompressor@pvrtexture@@IBE?AU?$Pixel@M@2@U32@00@Z 004ae600 f   PVRTexLib:PVRTCCompressor.obj
 0001:000ad6c0       ??D?$Pixel@I@pvrtexture@@QAE?AU01@I@Z 004ae6c0 f i PVRTexLib:PVRTCCompressor.obj
 0001:000ad700       ?calculateColoursABForBlock@PVRTCCompressor@pvrtexture@@IAEXIIAAU?$Pixel@E@2@0_N@Z 004ae700 f   PVRTexLib:PVRTCCompressor.obj
 0001:000ad8b0       ?gaussianFilterImage3x3@PVRTCCompressor@pvrtexture@@IBEXPBU?$Pixel@E@2@PAU32@II_N@Z 004ae8b0 f   PVRTexLib:PVRTCCompressor.obj
 0001:000adb60       ?gaussianFilterImage5x5@PVRTCCompressor@pvrtexture@@IBEXPBU?$Pixel@E@2@PAU32@II_N@Z 004aeb60 f   PVRTexLib:PVRTCCompressor.obj
 0001:000ae4c0       ?calculateColoursAB@PVRTCCompressor@pvrtexture@@IAEX_N@Z 004af4c0 f   PVRTexLib:PVRTCCompressor.obj
 0001:000ae530       ?setColourA@PVRTCBlockData@pvrtexture@@QAEXABU?$Pixel@E@2@@Z 004af530 f   PVRTexLib:PVRTCBlockData.obj
 0001:000ae5d0       ?setColourB@PVRTCBlockData@pvrtexture@@QAEXABU?$Pixel@E@2@@Z 004af5d0 f   PVRTexLib:PVRTCBlockData.obj
 0001:000ae670       ?storeModulationValue4BPP@PVRTCBlockData@pvrtexture@@QAEXIII@Z 004af670 f   PVRTexLib:PVRTCBlockData.obj
 0001:000ae6a0       ?getColourA@PVRTCBlockData@pvrtexture@@QBE?AU?$Pixel@E@2@XZ 004af6a0 f   PVRTexLib:PVRTCBlockData.obj
 0001:000ae740       ?getColourB@PVRTCBlockData@pvrtexture@@QBE?AU?$Pixel@E@2@XZ 004af740 f   PVRTexLib:PVRTCBlockData.obj
 0001:000ae7d0       ??1PVRTCIICompressor@pvrtexture@@UAE@XZ 004af7d0 f   PVRTexLib:PVRTCIICompressor.obj
 0001:000ae840       ?calculateImageBlockErrorMeanSquared@PVRTCIICompressor@pvrtexture@@IBEXPBU?$Pixel@E@2@0AAI@Z 004af840 f   PVRTexLib:PVRTCIICompressor.obj
 0001:000ae920       ?interpolateColours@PVRTCIICompressor@pvrtexture@@IBEXU?$Pixel@E@2@000IIAAU32@@Z 004af920 f   PVRTexLib:PVRTCIICompressor.obj
 0001:000aea40       ?clamp@PVRTCIICompressor@pvrtexture@@IBEMMMM@Z 004afa40 f   PVRTexLib:PVRTCIICompressor.obj
 0001:000aea70       ?wrapIndex@PVRTCIICompressor@pvrtexture@@IBEIIH@Z 004afa70 f   PVRTexLib:PVRTCIICompressor.obj
 0001:000aea90       ?squareColourDistance@PVRTCIICompressor@pvrtexture@@IBEHABU?$Pixel@E@2@0@Z 004afa90 f   PVRTexLib:PVRTCIICompressor.obj
 0001:000aeae0       ?weightedColourDistance@PVRTCIICompressor@pvrtexture@@IBEHABU?$Pixel@E@2@0@Z 004afae0 f   PVRTexLib:PVRTCIICompressor.obj
 0001:000aeb30       ?colourLuminance@PVRTCIICompressor@pvrtexture@@IBEHABU?$Pixel@E@2@@Z 004afb30 f   PVRTexLib:PVRTCIICompressor.obj
 0001:000aeb70       ??0PVRTCIICompressor@pvrtexture@@QAE@PBU?$Pixel@E@1@IIEE@Z 004afb70 f   PVRTexLib:PVRTCIICompressor.obj
 0001:000aec90       ??_GPVRTCIICompressor@pvrtexture@@UAEPAXI@Z 004afc90 f i PVRTexLib:PVRTCIICompressor.obj
 0001:000aec90       ??_EPVRTCIICompressor@pvrtexture@@UAEPAXI@Z 004afc90 f i PVRTexLib:PVRTCIICompressor.obj
 0001:000aecc0       ?selectColoursAB_MaxDistance@PVRTCIICompressor@pvrtexture@@IBEXPBU?$Pixel@E@2@IAAU32@1@Z 004afcc0 f   PVRTexLib:PVRTCIICompressor.obj
 0001:000aee20       ?selectColoursAB_Statistical@PVRTCIICompressor@pvrtexture@@IBEXPBU?$Pixel@E@2@IAAU32@1@Z 004afe20 f   PVRTexLib:PVRTCIICompressor.obj
 0001:000af3d0       ?interpolateColoursAB@PVRTCIICompressor@pvrtexture@@IAEXP6AXU?$Pixel@E@2@000PAU32@@Z11@Z 004b03d0 f   PVRTexLib:PVRTCIICompressor.obj
 0001:000af660       ?clamp@PVRTCIICompressor@pvrtexture@@IBE?AU?$Pixel@M@2@U32@00@Z 004b0660 f   PVRTexLib:PVRTCIICompressor.obj
 0001:000af720       ?calculateColoursABForBlock@PVRTCIICompressor@pvrtexture@@IAEXIIAAU?$Pixel@E@2@0_N@Z 004b0720 f   PVRTexLib:PVRTCIICompressor.obj
 0001:000af8d0       ?gaussianFilterImage3x3@PVRTCIICompressor@pvrtexture@@IBEXPBU?$Pixel@E@2@PAU32@II_N@Z 004b08d0 f   PVRTexLib:PVRTCIICompressor.obj
 0001:000afb80       ?gaussianFilterImage5x5@PVRTCIICompressor@pvrtexture@@IBEXPBU?$Pixel@E@2@PAU32@II_N@Z 004b0b80 f   PVRTexLib:PVRTCIICompressor.obj
 0001:000b04e0       ?calculateColoursAB@PVRTCIICompressor@pvrtexture@@IAEX_N@Z 004b14e0 f   PVRTexLib:PVRTCIICompressor.obj
 0001:000b0810       ?setColours@PVRTCIIBlockData@pvrtexture@@QAEXABU?$Pixel@E@2@0@Z 004b1810 f   PVRTexLib:PVRTCIIBlockData.obj
 0001:000b0930       ?storeModulationValue4BPP@PVRTCIIBlockData@pvrtexture@@QAEXIII@Z 004b1930 f   PVRTexLib:PVRTCIIBlockData.obj
 0001:000b0960       ?getColourA@PVRTCIIBlockData@pvrtexture@@QBE?AU?$Pixel@E@2@XZ 004b1960 f   PVRTexLib:PVRTCIIBlockData.obj
 0001:000b0a10       ?getColourB@PVRTCIIBlockData@pvrtexture@@QBE?AU?$Pixel@E@2@XZ 004b1a10 f   PVRTexLib:PVRTCIIBlockData.obj
 0001:000b49d0       _MapToRepresentableColours 004b59d0 f   PVRTexLib:amtc_localised.obj
 0001:000b7af0       _partitionModVals          004b8af0 f   PVRTexLib:amtc_localised.obj
 0001:000b7c70       _computeModVals            004b8c70 f   PVRTexLib:amtc_localised.obj
 0001:000b9fc0       _SearchForImageRepresentatives 004bafc0 f   PVRTexLib:amtc_localised.obj
 0001:000ba600       _InitOrientedBBox          004bb600 f   PVRTexLib:colourtools.obj
 0001:000ba640       _OrientedBBoxIsEmpty       004bb640 f   PVRTexLib:colourtools.obj
 0001:000ba660       _InitOrientedBBoxToSingleColour 004bb660 f   PVRTexLib:colourtools.obj
 0001:000ba6d0       _AddIColourToOrientedBBox  004bb6d0 f   PVRTexLib:colourtools.obj
 0001:000ba890       _AddFColourToOrientedBBox  004bb890 f   PVRTexLib:colourtools.obj
 0001:000baa30       _OffsetOrientedBBox        004bba30 f   PVRTexLib:colourtools.obj
 0001:000bab80       _SizeOfOrientedBBox        004bbb80 f   PVRTexLib:colourtools.obj
 0001:000babd0       _EstimateDistFromMainAxisForOBBox 004bbbd0 f   PVRTexLib:colourtools.obj
 0001:000bac10       _ClampToOrientedBBox       004bbc10 f   PVRTexLib:colourtools.obj
 0001:000badb0       _ConvertIntPixelToFloat    004bbdb0 f   PVRTexLib:colourtools.obj
 0001:000badf0       _MixPixelF                 004bbdf0 f   PVRTexLib:colourtools.obj
 0001:000baf60       _FindPrincipalEigenvect    004bbf60 f   PVRTexLib:eigenvec.obj
 0001:000bb8d0       _UpdateCovarSumF           004bc8d0 f i PVRTexLib:eigenvec.obj
 0001:000bb9a0       _UpdateCovarSumI           004bc9a0 f   PVRTexLib:eigenvec.obj
 0001:000bba20       _CovarSumToPrincipalVector 004bca20 f   PVRTexLib:eigenvec.obj
 0001:000bc8a0       _ComputeSortedEigenVecs    004bd8a0 f   PVRTexLib:eigenvec.obj
 0001:000bcb70       _InitLargeCovarSum         004bdb70 f   PVRTexLib:eigenvec.obj
 0001:000bcb90       _UpdateLargeCovarSumF      004bdb90 f   PVRTexLib:eigenvec.obj
 0001:000bcc40       _UpdateLargeCovarSumI      004bdc40 f   PVRTexLib:eigenvec.obj
 0001:000bccf0       _LargeCovarSumToSortedEigenVecs 004bdcf0 f   PVRTexLib:eigenvec.obj
 0001:000bd170       _DBGPrintEigenValsAndVecs  004be170 f   PVRTexLib:eigenvec.obj
 0001:000bd250       _DBGPrintSQMat             004be250 f   PVRTexLib:eigenvec.obj
 0001:000bd2a0       _CovarSumToSortedEigenVecs 004be2a0 f   PVRTexLib:eigenvec.obj
 0001:000bd880       _GenerateUpscaleWeightsFor3x3Reps 004be880 f   PVRTexLib:amtcsvdfit.obj
 0001:000bda00       _ReleasePackedFittingParams 004bea00 f   PVRTexLib:amtcsvdfit.obj
 0001:000bda90       _Fit3x3RepPairsToWeights   004bea90 f   PVRTexLib:amtcsvdfit.obj
 0001:000be370       _FitOnlyCentralRepPairsToWeights 004bf370 f   PVRTexLib:amtcsvdfit.obj
 0001:000bea10       _InitialisePackedFittingParams 004bfa10 f   PVRTexLib:amtcsvdfit.obj
 0001:000bedc0       _GetSingleColourBestMatchReps 004bfdc0 f   PVRTexLib:singtabmatch.obj
 0001:000bef30       _LaunchThread              004bff30 f   PVRTexLib:threadsupport.obj
 0001:000bef60       _WaitForThreads            004bff60 f   PVRTexLib:threadsupport.obj
 0001:000befa0       _SafeConditionalMTEXInit   004bffa0 f   PVRTexLib:threadsupport.obj
 0001:000beff0       _DetermineNumberOfCores    004bfff0 f   PVRTexLib:threadsupport.obj
 0001:000bf550       _CreateColourSwappingRecommendations 004c0550 f   PVRTexLib:colouralignment.obj
 0001:000c0850       _PickRepsByProjectingPixelsOntoAxis 004c1850 f   PVRTexLib:initialreps.obj
 0001:000c1380       _PickRepsByFilteringMultipleWindows 004c2380 f   PVRTexLib:initialreps.obj
 0001:000c1dd0       _GeneratePaletteEntries    004c2dd0 f   PVRTexLib:initialreps.obj
 0001:000c2820       _SingValDecomp             004c3820 f   PVRTexLib:svd.obj
 0001:000c4350       _SingValDecompFixedWidth_8 004c5350 f   PVRTexLib:svd.obj
 0001:000c5f20       _SingValDecompFixedWidth_4 004c6f20 f   PVRTexLib:svd.obj
 0001:000c7940       _SingValDecompFixedWidth_18 004c8940 f   PVRTexLib:svd.obj
 0001:000c96f0       _SolveUsingSingValDecomp   004ca6f0 f   PVRTexLib:svd.obj
 0001:000c9910       _SolveUsingSingValDecompFixedWidth_8 004ca910 f   PVRTexLib:svd.obj
 0001:000c9ac0       _SolveUsingSingValDecompFixedWidth_4 004caac0 f   PVRTexLib:svd.obj
 0001:000c9cd0       _SolveUsingSingValDecompFixedWidth_18 004cacd0 f   PVRTexLib:svd.obj
 0001:000c9eb0       _SVDSelfTest               004caeb0 f   PVRTexLib:svd.obj
 0001:000ca1b0       _CholeskyDecomp_18         004cb1b0 f   PVRTexLib:svd.obj
 0001:000ca2b0       _SolveUsingCholeskyDecomp_18x4 004cb2b0 f   PVRTexLib:svd.obj
 0001:000cbc80       _floorf                    004ccc80 f i color.obj
 0001:000cbcc0       _linear_to_sRGB            004cccc0 f   color.obj
 0001:000cbd70       _powf                      004ccd70 f i color.obj
 0001:000cbda0       _sRGB_to_linear            004ccda0 f   color.obj
 0001:000cbe50       ??$_Allocate@D@std@@YAPADIPAD@Z 004cce50 f i dxt.obj
 0001:000cbe80       ??$addressof@D@std@@YAPADAAD@Z 004cce80 f i dxt.obj
 0001:000cbe90       ??$construct@PADAAPAD@?$_Wrap_alloc@V?$allocator@D@std@@@std@@QAEXPAPADAAPAD@Z 004cce90 f i dxt.obj
 0001:000cbeb0       ??$construct@PADAAPAD@?$allocator@D@std@@QAEXPAPADAAPAD@Z 004cceb0 f i dxt.obj
 0001:000cbed0       ??$construct@PADAAPAD@?$allocator_traits@V?$allocator@D@std@@@std@@SAXAAV?$allocator@D@1@PAPADAAPAD@Z 004cced0 f i dxt.obj
 0001:000cbef0       ??$destroy@PAD@?$_Wrap_alloc@V?$allocator@D@std@@@std@@QAEXPAPAD@Z 004ccef0 f i dxt.obj
 0001:000cbf00       ??$destroy@PAD@?$allocator@D@std@@QAEXPAPAD@Z 004ccf00 f i dxt.obj
 0001:000cbf10       ??$destroy@PAD@?$allocator_traits@V?$allocator@D@std@@@std@@SAXAAV?$allocator@D@1@PAPAD@Z 004ccf10 f i dxt.obj
 0001:000cbf20       ??$forward@AAPAD@std@@YAAAPADAAPAD@Z 004ccf20 f i dxt.obj
 0001:000cbf30       ??0?$_String_alloc@$0A@U?$_String_base_types@DV?$allocator@D@std@@@std@@@std@@QAE@ABV?$allocator@D@1@@Z 004ccf30 f i dxt.obj
 0001:000cbf50       ??0?$_String_val@U?$_Simple_types@D@std@@@std@@QAE@XZ 004ccf50 f i dxt.obj
 0001:000cbf70       ??0?$_Wrap_alloc@V?$allocator@D@std@@@std@@QAE@XZ 004ccf70 f i dxt.obj
 0001:000cbf80       ??0?$allocator@D@std@@QAE@XZ 004ccf80 f i dxt.obj
 0001:000cbf90       ??0?$basic_string@DU?$char_traits@D@std@@V?$allocator@D@2@@std@@QAE@PBD@Z 004ccf90 f i dxt.obj
 0001:000cbff0       ??0_Generic_error_category@std@@QAE@XZ 004ccff0 f i dxt.obj
 0001:000cc000       ??0_Iostream_error_category@std@@QAE@XZ 004cd000 f i dxt.obj
 0001:000cc010       ??0_System_error_category@std@@QAE@XZ 004cd010 f i dxt.obj
 0001:000cc020       ??0error_category@std@@QAE@XZ 004cd020 f i dxt.obj
 0001:000cc030       ??0error_condition@std@@QAE@HABVerror_category@1@@Z 004cd030 f i dxt.obj
 0001:000cc050       ??0id@locale@std@@QAE@I@Z  004cd050 f i dxt.obj
 0001:000cc060       ??1?$basic_string@DU?$char_traits@D@std@@V?$allocator@D@2@@std@@QAE@XZ 004cd060 f i dxt.obj
 0001:000cc090       ??1_Generic_error_category@std@@UAE@XZ 004cd090 f i dxt.obj
 0001:000cc0a0       ??1_Iostream_error_category@std@@UAE@XZ 004cd0a0 f i dxt.obj
 0001:000cc0b0       ??1_System_error_category@std@@UAE@XZ 004cd0b0 f i dxt.obj
 0001:000cc0c0       ??1error_category@std@@UAE@XZ 004cd0c0 f i dxt.obj
 0001:000cc0d0       ??2@YAPAXIPAX@Z            004cd0d0 f i dxt.obj
 0001:000cc0e0       ??3@YAXPAX0@Z              004cd0e0 f i dxt.obj
 0001:000cc0f0       ??8error_category@std@@QBE_NABV01@@Z 004cd0f0 f i dxt.obj
 0001:000cc100       ??8error_condition@std@@QBE_NABV01@@Z 004cd100 f i dxt.obj
 0001:000cc120       ??_G_Generic_error_category@std@@UAEPAXI@Z 004cd120 f i dxt.obj
 0001:000cc120       ??_E_Generic_error_category@std@@UAEPAXI@Z 004cd120 f i dxt.obj
 0001:000cc150       ??_G_Iostream_error_category@std@@UAEPAXI@Z 004cd150 f i dxt.obj
 0001:000cc150       ??_E_Iostream_error_category@std@@UAEPAXI@Z 004cd150 f i dxt.obj
 0001:000cc180       ??_E_System_error_category@std@@UAEPAXI@Z 004cd180 f i dxt.obj
 0001:000cc180       ??_G_System_error_category@std@@UAEPAXI@Z 004cd180 f i dxt.obj
 0001:000cc1b0       ??_Eerror_category@std@@UAEPAXI@Z 004cd1b0 f i dxt.obj
 0001:000cc1b0       ??_Gerror_category@std@@UAEPAXI@Z 004cd1b0 f i dxt.obj
 0001:000cc1e0       ?_Copy@?$basic_string@DU?$char_traits@D@std@@V?$allocator@D@2@@std@@QAEXII@Z 004cd1e0 f i dxt.obj
 0001:000cc330       ?_Eos@?$basic_string@DU?$char_traits@D@std@@V?$allocator@D@2@@std@@QAEXI@Z 004cd330 f i dxt.obj
 0001:000cc360       ?_Getal@?$_String_alloc@$0A@U?$_String_base_types@DV?$allocator@D@std@@@std@@@std@@QBE?AU?$_Wrap_alloc@V?$allocator@D@std@@@2@XZ 004cd360 f i dxt.obj
 0001:000cc370       ?_Grow@?$basic_string@DU?$char_traits@D@std@@V?$allocator@D@2@@std@@QAE_NI_N@Z 004cd370 f i dxt.obj
 0001:000cc430       ?_Inside@?$basic_string@DU?$char_traits@D@std@@V?$allocator@D@2@@std@@QAE_NPBD@Z 004cd430 f i dxt.obj
 0001:000cc470       ?_Myptr@?$_String_val@U?$_Simple_types@D@std@@@std@@QAEPADXZ 004cd470 f i dxt.obj
 0001:000cc480       ?_Myptr@?$_String_val@U?$_Simple_types@D@std@@@std@@QBEPBDXZ 004cd480 f i dxt.obj
 0001:000cc490       ?_Tidy@?$basic_string@DU?$char_traits@D@std@@V?$allocator@D@2@@std@@QAEX_NI@Z 004cd490 f i dxt.obj
 0001:000cc4e0       ?_Xlen@?$basic_string@DU?$char_traits@D@std@@V?$allocator@D@2@@std@@QBEXXZ 004cd4e0 f i dxt.obj
 0001:000cc4f0       ?_Xran@?$basic_string@DU?$char_traits@D@std@@V?$allocator@D@2@@std@@QBEXXZ 004cd4f0 f i dxt.obj
 0001:000cc500       ?allocate@?$_Wrap_alloc@V?$allocator@D@std@@@std@@QAEPADI@Z 004cd500 f i dxt.obj
 0001:000cc530       ?allocate@?$allocator@D@std@@QAEPADI@Z 004cd530 f i dxt.obj
 0001:000cc560       ?assign@?$basic_string@DU?$char_traits@D@std@@V?$allocator@D@2@@std@@QAEAAV12@ABV12@II@Z 004cd560 f i dxt.obj
 0001:000cc690       ?assign@?$basic_string@DU?$char_traits@D@std@@V?$allocator@D@2@@std@@QAEAAV12@PBD@Z 004cd690 f i dxt.obj
 0001:000cc6d0       ?assign@?$basic_string@DU?$char_traits@D@std@@V?$allocator@D@2@@std@@QAEAAV12@PBDI@Z 004cd6d0 f i dxt.obj
 0001:000cc7d0       ?assign@?$char_traits@D@std@@SAXAADABD@Z 004cd7d0 f i dxt.obj
 0001:000cc7e0       ?category@error_code@std@@QBEABVerror_category@2@XZ 004cd7e0 f i dxt.obj
 0001:000cc7f0       ?category@error_condition@std@@QBEABVerror_category@2@XZ 004cd7f0 f i dxt.obj
 0001:000cc840       ?compress_BC4@@YAXPAEPBEHH@Z 004cd840 f   dxt.obj
 0001:000cc8d0       ?compress_BC5@@YAXPAEPBEHH@Z 004cd8d0 f   dxt.obj
 0001:000cc960       ?compress_DXT1@@YAXPAEPBEHHHHH@Z 004cd960 f   dxt.obj
 0001:000cc9f0       ?compress_DXT3@@YAXPAEPBEHHHH@Z 004cd9f0 f   dxt.obj
 0001:000cca80       ?compress_DXT5@@YAXPAEPBEHHHH@Z 004cda80 f   dxt.obj
 0001:000ccb10       ?compress_YCoCg@@YAXPAEPBEHH@Z 004cdb10 f   dxt.obj
 0001:000ccf40       ?copy@?$char_traits@D@std@@SAPADPADPBDI@Z 004cdf40 f i dxt.obj
 0001:000ccf60       ?deallocate@?$_Wrap_alloc@V?$allocator@D@std@@@std@@QAEXPADI@Z 004cdf60 f i dxt.obj
 0001:000ccf80       ?deallocate@?$allocator@D@std@@QAEXPADI@Z 004cdf80 f i dxt.obj
 0001:000cd470       ?default_error_condition@_System_error_category@std@@UBE?AVerror_condition@2@H@Z 004ce470 f i dxt.obj
 0001:000cd4b0       ?default_error_condition@error_category@std@@UBE?AVerror_condition@2@H@Z 004ce4b0 f i dxt.obj
 0001:000cd930       ?dxt_decompress@@YAHPAE0HIIIHH@Z 004ce930 f   dxt.obj
 0001:000ce130       ?equivalent@error_category@std@@UBE_NABVerror_code@2@H@Z 004cf130 f i dxt.obj
 0001:000ce150       ?equivalent@error_category@std@@UBE_NHABVerror_condition@2@@Z 004cf150 f i dxt.obj
 0001:000ce190       ?erase@?$basic_string@DU?$char_traits@D@std@@V?$allocator@D@2@@std@@QAEAAV12@I@Z 004cf190 f i dxt.obj
 0001:000ce1d0       ?erase@?$basic_string@DU?$char_traits@D@std@@V?$allocator@D@2@@std@@QAEAAV12@II@Z 004cf1d0 f i dxt.obj
 0001:000ce3f0       ?extract_block@@YAXPBEHHHHPAE@Z 004cf3f0 f   dxt.obj
 0001:000ce550       ?generic_category@std@@YAABVerror_category@1@XZ 004cf550 f i dxt.obj
 0001:000ceb60       ?length@?$char_traits@D@std@@SAIPBD@Z 004cfb60 f i dxt.obj
 0001:000cf1f0       ?max_size@?$_Wrap_alloc@V?$allocator@D@std@@@std@@QBEIXZ 004d01f0 f i dxt.obj
 0001:000cf200       ?max_size@?$allocator@D@std@@QBEIXZ 004d0200 f i dxt.obj
 0001:000cf210       ?max_size@?$allocator_traits@V?$allocator@D@std@@@std@@SAIABV?$allocator@D@2@@Z 004d0210 f i dxt.obj
 0001:000cf220       ?max_size@?$basic_string@DU?$char_traits@D@std@@V?$allocator@D@2@@std@@QBEIXZ 004d0220 f i dxt.obj
 0001:000cf230       ?message@_Generic_error_category@std@@UBE?AV?$basic_string@DU?$char_traits@D@std@@V?$allocator@D@2@@2@H@Z 004d0230 f i dxt.obj
 0001:000cf2a0       ?message@_Iostream_error_category@std@@UBE?AV?$basic_string@DU?$char_traits@D@std@@V?$allocator@D@2@@2@H@Z 004d02a0 f i dxt.obj
 0001:000cf2f0       ?message@_System_error_category@std@@UBE?AV?$basic_string@DU?$char_traits@D@std@@V?$allocator@D@2@@2@H@Z 004d02f0 f i dxt.obj
 0001:000cf360       ?move@?$char_traits@D@std@@SAPADPADPBDI@Z 004d0360 f i dxt.obj
 0001:000cf3a0       ?name@_Generic_error_category@std@@UBEPBDXZ 004d03a0 f i dxt.obj
 0001:000cf3b0       ?name@_Iostream_error_category@std@@UBEPBDXZ 004d03b0 f i dxt.obj
 0001:000cf3c0       ?name@_System_error_category@std@@UBEPBDXZ 004d03c0 f i dxt.obj
 0001:000d0230       ?size@?$basic_string@DU?$char_traits@D@std@@V?$allocator@D@2@@std@@QBEIXZ 004d1230 f i dxt.obj
 0001:000d0240       ?system_category@std@@YAABVerror_category@1@XZ 004d1240 f i dxt.obj
 0001:000d02a0       ?value@error_code@std@@QBEHXZ 004d12a0 f i dxt.obj
 0001:000d02b0       ?value@error_condition@std@@QBEHXZ 004d12b0 f i dxt.obj
 0001:000d02c0       _fabsf                     004d12c0 f i dxt.obj
 0001:000d02f0       _hypot                     004d12f0 f i dxt.obj
 0001:000d0320       _sqrtf                     004d1320 f i dxt.obj
 0001:000d0350       ?calculatePaintColors58H@@YAXEEQAY02E0@Z 004d1350 f   etcdecwrap.obj
 0001:000d04b0       ?calculatePaintColors59T@@YAXEEQAY02E0@Z 004d14b0 f   etcdecwrap.obj
 0001:000d05a0       ?clamp@@YAHH@Z             004d15a0 f   etcdecwrap.obj
 0001:000d05c0       ?decompressBlockAlpha16bit@@YAXPAE0HHHH@Z 004d15c0 f   etcdecwrap.obj
 0001:000d05f0       ?decompressBlockAlpha@@YAXPAE0HHHH@Z 004d15f0 f   etcdecwrap.obj
 0001:000d0620       ?decompressBlockDiffFlipC@@YAXIIPAEHHHHH@Z 004d1620 f   etcdecwrap.obj
 0001:000d0fb0       ?decompressBlockDifferentialWithAlpha@@YAXIIPAE0HHHH@Z 004d1fb0 f   etcdecwrap.obj
 0001:000d0fe0       ?decompressBlockDifferentialWithAlphaC@@YAXIIPAE0HHHHH@Z 004d1fe0 f   etcdecwrap.obj
 0001:000d1640       ?decompressBlockETC21BitAlpha@@YAXIIPAE0HHHH@Z 004d2640 f   etcdecwrap.obj
 0001:000d1670       ?decompressBlockETC2@@YAXIIPAEHHHH@Z 004d2670 f   etcdecwrap.obj
 0001:000d16a0       ?decompressBlockPlanar57@@YAXIIPAEHHHH@Z 004d26a0 f   etcdecwrap.obj
 0001:000d16d0       ?decompressBlockPlanar57c@@YAXIIPAEHHHHH@Z 004d26d0 f   etcdecwrap.obj
 0001:000d18e0       ?decompressBlockTHUMB58H@@YAXIIPAEHHHH@Z 004d28e0 f   etcdecwrap.obj
 0001:000d1910       ?decompressBlockTHUMB58HAlpha@@YAXIIPAE0HHHH@Z 004d2910 f   etcdecwrap.obj
 0001:000d1940       ?decompressBlockTHUMB58HAlphaC@@YAXIIPAE0HHHHH@Z 004d2940 f   etcdecwrap.obj
 0001:000d1b40       ?decompressBlockTHUMB58Hc@@YAXIIPAEHHHHH@Z 004d2b40 f   etcdecwrap.obj
 0001:000d1cf0       ?decompressBlockTHUMB59T@@YAXIIPAEHHHH@Z 004d2cf0 f   etcdecwrap.obj
 0001:000d1d20       ?decompressBlockTHUMB59TAlpha@@YAXIIPAE0HHHH@Z 004d2d20 f   etcdecwrap.obj
 0001:000d1d50       ?decompressBlockTHUMB59TAlphaC@@YAXIIPAE0HHHHH@Z 004d2d50 f   etcdecwrap.obj
 0001:000d1f40       ?decompressBlockTHUMB59Tc@@YAXIIPAEHHHHH@Z 004d2f40 f   etcdecwrap.obj
 0001:000d20d0       ?decompressColor@@YAXHHHQAY02E0@Z 004d30d0 f   etcdecwrap.obj
 0001:000d21a0       ?etcpack_decompressBlockAlpha16bitC@@YAXPAE0HHHHH@Z 004d31a0 f   etcdecwrap.obj
 0001:000d2370       ?etcpack_decompressBlockAlphaC@@YAXPAE0HHHHH@Z 004d3370 f   etcdecwrap.obj
 0001:000d24f0       ?etcpack_decompressBlockDiffFlip@@YAXIIPAEHHHH@Z 004d34f0 f   etcdecwrap.obj
 0001:000d2520       ?etcpack_decompressBlockETC21BitAlphaC@@YAXIIPAE0HHHHH@Z 004d3520 f   etcdecwrap.obj
 0001:000d2890       ?etcpack_decompressBlockETC2c@@YAXIIPAEHHHHH@Z 004d3890 f   etcdecwrap.obj
 0001:000d2a00       ?etcpack_read_big_endian_2byte_word@@YAXPAGPAU_iobuf@@@Z 004d3a00 f   etcdecwrap.obj
 0001:000d2a50       ?etcpack_read_big_endian_4byte_word@@YAXPAIPAU_iobuf@@@Z 004d3a50 f   etcdecwrap.obj
 0001:000d2ac0       ?get16bits11bits@@YAGHHHH@Z 004d3ac0 f   etcdecwrap.obj
 0001:000d2b60       ?get16bits11signed@@YAFHHHH@Z 004d3b60 f   etcdecwrap.obj
 0001:000d2c20       ?getbit@@YAEEHH@Z          004d3c20 f   etcdecwrap.obj
 0001:000d2c50       ?setupAlphaTable@@YAXXZ    004d3c50 f   etcdecwrap.obj
 0001:000d2d50       ?unstuff57bits@@YAXIIAAI0@Z 004d3d50 f   etcdecwrap.obj
 0001:000d2e20       ?unstuff58bits@@YAXIIAAI0@Z 004d3e20 f   etcdecwrap.obj
 0001:000d2e60       ?unstuff59bits@@YAXIIAAI0@Z 004d3e60 f   etcdecwrap.obj
 0001:000d2e90       ?fReadPGM@@YAHPADAAH1AAPAEH@Z 004d3e90 f   etcimagewrap.obj
 0001:000d3230       ?fReadPPM@@YA_NPADAAH1AAPAEH@Z 004d4230 f   etcimagewrap.obj
 0001:000d3760       ?fWritePGM@@YA_NPADHHPAE_NH@Z 004d4760 f   etcimagewrap.obj
 0001:000d3810       ?fWritePPM@@YA_NPADHHPAEH_N@Z 004d4810 f   etcimagewrap.obj
 0001:000d38f0       ?fWriteTGAfromRGBandA@@YA_NPADHHPAE1_N@Z 004d48f0 f   etcimagewrap.obj
 0001:000d3b40       ?removeComments@@YAXPAU_iobuf@@@Z 004d4b40 f   etcimagewrap.obj
 0001:000d3bb0       ?removeSpaces@@YAXPAU_iobuf@@@Z 004d4bb0 f   etcimagewrap.obj
 0001:000d3bf0       ?calcBBBblue@@YAIPAEHH@Z   004d4bf0 f   etcpackwrap.obj
 0001:000d3c80       ?calcBBBbluePerceptual@@YAIPAEHH@Z 004d4c80 f   etcpackwrap.obj
 0001:000d3d10       ?calcBBBgreen@@YAIPAEHH@Z  004d4d10 f   etcpackwrap.obj
 0001:000d3d90       ?calcBBBred@@YAIPAEHH@Z    004d4d90 f   etcpackwrap.obj
 0001:000d3e20       ?calcBlockErrorRGBA@@YANPAE00HHHH@Z 004d4e20 f   etcpackwrap.obj
 0001:000d3f30       ?calcCCCblue@@YAIPAEHH@Z   004d4f30 f   etcpackwrap.obj
 0001:000d3fc0       ?calcCCCbluePerceptual@@YAIPAEHH@Z 004d4fc0 f   etcpackwrap.obj
 0001:000d4050       ?calcCCCgreen@@YAIPAEHH@Z  004d5050 f   etcpackwrap.obj
 0001:000d40d0       ?calcCCCred@@YAIPAEHH@Z    004d50d0 f   etcpackwrap.obj
 0001:000d4160       ?calcError@@YANPAEHHHHHHHN@Z 004d5160 f   etcpackwrap.obj
 0001:000d4320       ?calcErrorPlanarOnlyBlue@@YAIPAEHHHIIII@Z 004d5320 f   etcpackwrap.obj
 0001:000d4460       ?calcErrorPlanarOnlyBluePerceptual@@YAIPAEHHHIIII@Z 004d5460 f   etcpackwrap.obj
 0001:000d45a0       ?calcErrorPlanarOnlyGreen@@YAIPAEHHHIIII@Z 004d55a0 f   etcpackwrap.obj
 0001:000d46e0       ?calcErrorPlanarOnlyGreenPerceptual@@YAIPAEHHHIIII@Z 004d56e0 f   etcpackwrap.obj
 0001:000d4820       ?calcErrorPlanarOnlyRed@@YAIPAEHHHIIII@Z 004d5820 f   etcpackwrap.obj
 0001:000d4960       ?calcErrorPlanarOnlyRedPerceptual@@YAIPAEHHHIIII@Z 004d5960 f   etcpackwrap.obj
 0001:000d4aa0       ?calcLowestPossibleBlueOH@@YAIPAEHHI@Z 004d5aa0 f   etcpackwrap.obj
 0001:000d4b40       ?calcLowestPossibleBlueOHperceptual@@YAIPAEHHI@Z 004d5b40 f   etcpackwrap.obj
 0001:000d4be0       ?calcLowestPossibleGreenOH@@YAIPAEHHI@Z 004d5be0 f   etcpackwrap.obj
 0001:000d4c80       ?calcLowestPossibleGreenOHperceptual@@YAIPAEHHI@Z 004d5c80 f   etcpackwrap.obj
 0001:000d4d20       ?calcLowestPossibleRedOH@@YAIPAEHHI@Z 004d5d20 f   etcpackwrap.obj
 0001:000d4dc0       ?calcLowestPossibleRedOHperceptual@@YAIPAEHHI@Z 004d5dc0 f   etcpackwrap.obj
 0001:000d4e60       ?calculateError59T@@YANPAEHHHQAY02EAAEAAI@Z 004d5e60 f   etcpackwrap.obj
 0001:000d5100       ?calculateError59TAlpha@@YANPAE0HHHQAY02EAAEAAI@Z 004d6100 f   etcpackwrap.obj
 0001:000d53b0       ?calculateError59TnoSwap@@YANPAEHHHQAY02EAAEAAI@Z 004d63b0 f   etcpackwrap.obj
 0001:000d55d0       ?calculateError59TnoSwapPerceptual1000@@YAIPAEHHHQAY02EAAEAAI@Z 004d65d0 f   etcpackwrap.obj
 0001:000d57c0       ?calculateError59TusingPrecalcR@@YAIPAEPAHPAI2I@Z 004d67c0 f   etcpackwrap.obj
 0001:000d6280       ?calculateError59TusingPrecalcRG@@YAIPAEPAHPAI2I@Z 004d7280 f   etcpackwrap.obj
 0001:000d6d40       ?calculateError59TusingPrecalcRGB@@YAIPAEPAHPAI2I@Z 004d7d40 f   etcpackwrap.obj
 0001:000d77f0       ?calculateError59TusingPrecalcRGBperceptual1000@@YAIPAEPAHPAI2I@Z 004d87f0 f   etcpackwrap.obj
 0001:000d82a0       ?calculateError59TusingPrecalcRGperceptual1000@@YAIPAEPAHPAI2I@Z 004d92a0 f   etcpackwrap.obj
 0001:000d8d60       ?calculateError59TusingPrecalcRperceptual1000@@YAIPAEPAHPAI2I@Z 004d9d60 f   etcpackwrap.obj
 0001:000d9820       ?calculateErrorAndCompress58H@@YANPAEHHHQAY02EAAEAAI@Z 004da820 f   etcpackwrap.obj
 0001:000d9a20       ?calculateErrorAndCompress58HAlpha@@YANPAE0HHHQAY02EAAEAAI@Z 004daa20 f   etcpackwrap.obj
 0001:000d9cf0       ?calculateErrorAndCompress58Hperceptual1000@@YAIPAEHHHQAY02EAAEAAI@Z 004dacf0 f   etcpackwrap.obj
 0001:000d9ec0       ?calculateErrorFromPrecalc58H@@YAIPAHPAII@Z 004daec0 f   etcpackwrap.obj
 0001:000dab20       ?calculateErrorFromPrecalc58Hperceptual1000@@YAIPAHPAII@Z 004dbb20 f   etcpackwrap.obj
 0001:000db780       ?calculateErrorFromPrecalcR58H@@YAIPAHPAII@Z 004dc780 f   etcpackwrap.obj
 0001:000db940       ?calculateErrorFromPrecalcR58Hperceptual1000@@YAIPAHPAII@Z 004dc940 f   etcpackwrap.obj
 0001:000dbb00       ?calculateErrorFromPrecalcRG58H@@YAIPAHPAII@Z 004dcb00 f   etcpackwrap.obj
 0001:000dbcc0       ?calculateErrorFromPrecalcRG58Hperceptual1000@@YAIPAHPAII@Z 004dccc0 f   etcpackwrap.obj
 0001:000dbe80       ?calculatePSNR@@YANPAE0HH@Z 004dce80 f   etcpackwrap.obj
 0001:000dbeb0       ?calculatePSNRTwoFiles@@YANPAD0@Z 004dceb0 f   etcpackwrap.obj
 0001:000dbfc0       ?calculatePSNRfile@@YANPADPAE1@Z 004dcfc0 f   etcpackwrap.obj
 0001:000dc4d0       ?calculateWeightedPSNR@@YANPAE0HHNNN@Z 004dd4d0 f   etcpackwrap.obj
 0001:000dc640       ?compressBlockDiffFlipAverage@@YAXPAEHHHHAAI1@Z 004dd640 f   etcpackwrap.obj
 0001:000dcee0       ?compressBlockDiffFlipAveragePerceptual@@YANPAEHHHHAAI1@Z 004ddee0 f   etcpackwrap.obj
 0001:000dd7a0       ?compressBlockDifferentialExhaustive@@YAIPAEHHHHAAI1I@Z 004de7a0 f   etcpackwrap.obj
 0001:000de710       ?compressBlockDifferentialExhaustivePerceptual@@YAIPAEHHHHAAI1I@Z 004df710 f   etcpackwrap.obj
 0001:000df640       ?compressBlockDifferentialWithAlpha@@YAH_NPAE11HHHHAAI2@Z 004e0640 f   etcpackwrap.obj
 0001:000dfda0       ?compressBlockIndividualExhaustive@@YAIPAEHHHHAAI1I@Z 004e0da0 f   etcpackwrap.obj
 0001:000e0610       ?compressBlockIndividualExhaustivePerceptual@@YAIPAEHHHHAAI1I@Z 004e1610 f   etcpackwrap.obj
 0001:000e0e80       ?compressBlockOnlyDiffFlipAverage@@YAHPAEHHHHAAI1PAH2AAH@Z 004e1e80 f   etcpackwrap.obj
 0001:000e1590       ?compressBlockOnlyDiffFlipAveragePerceptual1000@@YAIPAEHHHHAAI1@Z 004e2590 f   etcpackwrap.obj
 0001:000e1b50       ?compressBlockOnlyIndividualAverage@@YAHPAEHHHHAAI1PAH2AAH11112222@Z 004e2b50 f   etcpackwrap.obj
 0001:000e20d0       ?compressBlockOnlyIndividualAveragePerceptual1000@@YAIPAEHHHHAAI1PAH2AAH11112222@Z 004e30d0 f   etcpackwrap.obj
 0001:000e2650       ?compressBlockPlanar57@@YAXPAEHHHHAAI1@Z 004e3650 f   etcpackwrap.obj
 0001:000e2e80       ?compressBlockPlanar57Exhaustive@@YAXPAEHHHHAAI1IIII@Z 004e3e80 f   etcpackwrap.obj
 0001:000e3b30       ?compressBlockPlanar57ExhaustivePerceptual@@YAXPAEHHHHAAI1IIII@Z 004e4b30 f   etcpackwrap.obj
 0001:000e4840       ?compressBlockTHUMB58HAlpha@@YANPAE0HHHHAAI1@Z 004e5840 f   etcpackwrap.obj
 0001:000e49e0       ?compressBlockTHUMB58HExhaustive@@YAIPAEHHHHAAI1I@Z 004e59e0 f   etcpackwrap.obj
 0001:000e4f60       ?compressBlockTHUMB58HExhaustivePerceptual@@YAIPAEHHHHAAI1I@Z 004e5f60 f   etcpackwrap.obj
 0001:000e54e0       ?compressBlockTHUMB58HFast@@YANPAEHHHHAAI1@Z 004e64e0 f   etcpackwrap.obj
 0001:000e5750       ?compressBlockTHUMB58HFastest@@YANPAEHHHHAAI1@Z 004e6750 f   etcpackwrap.obj
 0001:000e58e0       ?compressBlockTHUMB58HFastestPerceptual1000@@YAIPAEHHHHAAI1@Z 004e68e0 f   etcpackwrap.obj
 0001:000e5a70       ?compressBlockTHUMB59TAlpha@@YANPAE0HHHHAAI1@Z 004e6a70 f   etcpackwrap.obj
 0001:000e5b20       ?compressBlockTHUMB59TExhaustive@@YAIPAEHHHHAAI1I@Z 004e6b20 f   etcpackwrap.obj
 0001:000e60f0       ?compressBlockTHUMB59TExhaustivePerceptual@@YAIPAEHHHHAAI1I@Z 004e70f0 f   etcpackwrap.obj
 0001:000e66c0       ?compressBlockTHUMB59TFast@@YANPAEHHHHAAI1@Z 004e76c0 f   etcpackwrap.obj
 0001:000e6850       ?compressBlockTHUMB59TFastest@@YANPAEHHHHAAI1@Z 004e7850 f   etcpackwrap.obj
 0001:000e6900       ?compressBlockTHUMB59TFastestOnlyColor@@YANPAEHHHHQAH@Z 004e7900 f   etcpackwrap.obj
 0001:000e69b0       ?compressBlockTHUMB59TFastestOnlyColorPerceptual1000@@YAIPAEHHHHQAH@Z 004e79b0 f   etcpackwrap.obj
 0001:000e6a60       ?compressBlockTHUMB59TFastestPerceptual1000@@YANPAEHHHHAAI1@Z 004e7a60 f   etcpackwrap.obj
 0001:000e6b20       ?compressBlockWithTable2x4percep1000@@YAIPAEHHHH0HPAI1@Z 004e7b20 f   etcpackwrap.obj
 0001:000e6d20       ?compressBlockWithTable4x2percep1000@@YAIPAEHHHH0HPAI1@Z 004e7d20 f   etcpackwrap.obj
 0001:000e6f30       ?compressColor@@YAXHHHQAY02E0@Z 004e7f30 f   etcpackwrap.obj
 0001:000e70d0       ?compressFile@@YAXPAD0@Z   004e80d0 f   etcpackwrap.obj
 0001:000e73e0       ?compressImageFile@@YAXPAE0HHPADHH@Z 004e83e0 f   etcpackwrap.obj
 0001:000e7d60       ?computeColorLBG@@YAXPAEHHHQAY02E@Z 004e8d60 f   etcpackwrap.obj
 0001:000e8670       ?computeColorLBGHalfIntensityFast@@YAXPAEHHHQAY02E@Z 004e9670 f   etcpackwrap.obj
 0001:000e9090       ?computeColorLBGNotIntensity@@YAXPAEHHHQAY02E@Z 004ea090 f   etcpackwrap.obj
 0001:000e9ad0       ?computeColorLBGNotIntensityFast@@YAXPAEHHHQAY02E@Z 004eaad0 f   etcpackwrap.obj
 0001:000ea510       ?computeColorLBGfast@@YAXPAEHHHQAY02E@Z 004eb510 f   etcpackwrap.obj
 0001:000eadd0       ?copyColors@@YAXQAY02E0@Z  004ebdd0 f   etcpackwrap.obj
 0001:000eae10       ?decompressBlockPlanar57errorPerComponent@@YAXIIPAEHHHH0AAI11@Z 004ebe10 f   etcpackwrap.obj
 0001:000eb310       ?etcpack_calcBlockErrorRGB@@YANPAE0HHHH@Z 004ec310 f   etcpackwrap.obj
 0001:000eb410       ?etcpack_calcBlockPerceptualErrorRGB@@YANPAE0HHHH@Z 004ec410 f   etcpackwrap.obj
 0001:000eb530       ?etcpack_calculateError59Tperceptual1000@@YAIPAEHHHQAY02EAAEAAI@Z 004ec530 f   etcpackwrap.obj
 0001:000eb790       ?etcpack_compressBlockAlpha16@@YAXPAEHHHH0@Z 004ec790 f   etcpackwrap.obj
 0001:000eb980       ?etcpack_compressBlockAlphaFast@@YAXPAEHHHH0@Z 004ec980 f   etcpackwrap.obj
 0001:000ebdb0       ?etcpack_compressBlockAlphaSlow@@YAXPAEHHHH0@Z 004ecdb0 f   etcpackwrap.obj
 0001:000ec100       ?etcpack_compressBlockDiffFlipCombined@@YAXPAEHHHHAAI1@Z 004ed100 f   etcpackwrap.obj
 0001:000ec710       ?etcpack_compressBlockDiffFlipCombinedPerceptual@@YAXPAEHHHHAAI1@Z 004ed710 f   etcpackwrap.obj
 0001:000ecd20       ?etcpack_compressBlockDiffFlipFast@@YANPAE0HHHHAAI1@Z 004edd20 f   etcpackwrap.obj
 0001:000ece10       ?etcpack_compressBlockDiffFlipFastPerceptual@@YAXPAE0HHHHAAI1@Z 004ede10 f   etcpackwrap.obj
 0001:000ecef0       ?etcpack_compressBlockETC1Exhaustive@@YAXPAE0HHHHAAI1@Z 004edef0 f   etcpackwrap.obj
 0001:000ecfc0       ?etcpack_compressBlockETC1ExhaustivePerceptual@@YAXPAE0HHHHAAI1@Z 004edfc0 f   etcpackwrap.obj
 0001:000ed0d0       ?etcpack_compressBlockETC2Exhaustive@@YAXPAE0HHHHAAI1@Z 004ee0d0 f   etcpackwrap.obj
 0001:000ed430       ?etcpack_compressBlockETC2ExhaustivePerceptual@@YAXPAE0HHHHAAI1@Z 004ee430 f   etcpackwrap.obj
 0001:000ed7e0       ?etcpack_compressBlockETC2Fast@@YAXPAE00HHHHAAI1@Z 004ee7e0 f   etcpackwrap.obj
 0001:000edb40       ?etcpack_compressBlockETC2FastPerceptual@@YAXPAE0HHHHAAI1@Z 004eeb40 f   etcpackwrap.obj
 0001:000edec0       ?etcpack_compressBlockETC2RGBA1@@YAXPAE00HHHHAAI1@Z 004eeec0 f   etcpackwrap.obj
 0001:000ee440       ?etcpack_compressBlockWithTable2x4@@YAHPAEHHHH0HPAI1@Z 004ef440 f   etcpackwrap.obj
 0001:000ee630       ?etcpack_compressBlockWithTable2x4percep@@YAMPAEHHHH0HPAI1@Z 004ef630 f   etcpackwrap.obj
 0001:000ee860       ?etcpack_compressBlockWithTable4x2@@YAHPAEHHHH0HPAI1@Z 004ef860 f   etcpackwrap.obj
 0001:000eea50       ?etcpack_compressBlockWithTable4x2percep@@YAMPAEHHHH0HPAI1@Z 004efa50 f   etcpackwrap.obj
 0001:000eec80       ?etcpack_computeAverageColor2x4noQuantFloat@@YAXPAEHHHHPAM@Z 004efc80 f   etcpackwrap.obj
 0001:000eed60       ?etcpack_computeAverageColor4x2noQuantFloat@@YAXPAEHHHHPAM@Z 004efd60 f   etcpackwrap.obj
 0001:000eee40       ?etcpack_quantize444ColorCombined@@YAXPAMPAHPAE@Z 004efe40 f   etcpackwrap.obj
 0001:000ef230       ?etcpack_quantize444ColorCombinedPerceptual@@YAXPAMPAHPAE@Z 004f0230 f   etcpackwrap.obj
 0001:000ef690       ?etcpack_quantize555ColorCombined@@YAXPAMPAHPAE@Z 004f0690 f   etcpackwrap.obj
 0001:000efa90       ?etcpack_quantize555ColorCombinedPerceptual@@YAXPAMPAHPAE@Z 004f0a90 f   etcpackwrap.obj
 0001:000eff10       ?etcpack_readArguments@@YAXHQAPADPAD1@Z 004f0f10 f   etcpackwrap.obj
 0001:000f08e0       ?etcpack_readCompressParams@@YA_NXZ 004f18e0 f   etcpackwrap.obj
 0001:000f09f0       ?etcpack_readSrcFile@@YA_NPADAAPAEAAH222@Z 004f19f0 f   etcpackwrap.obj
 0001:000f0cd0       ?etcpack_setupAlphaTableAndValtab@@YAXXZ 004f1cd0 f   etcpackwrap.obj
 0001:000f0d70       ?etcpack_tryalltables_3bittable2x4@@YAHPAEHHHH0AAI11@Z 004f1d70 f   etcpackwrap.obj
 0001:000f0fa0       ?etcpack_tryalltables_3bittable2x4percep@@YAHPAEHHHH0AAI11@Z 004f1fa0 f   etcpackwrap.obj
 0001:000f1220       ?etcpack_tryalltables_3bittable4x2@@YAHPAEHHHH0AAI11@Z 004f2220 f   etcpackwrap.obj
 0001:000f1460       ?etcpack_tryalltables_3bittable4x2percep@@YAHPAEHHHH0AAI11@Z 004f2460 f   etcpackwrap.obj
 0001:000f16e0       ?etcpack_write_big_endian_2byte_word@@YAXPAGPAU_iobuf@@@Z 004f26e0 f   etcpackwrap.obj
 0001:000f1720       ?etcpack_write_big_endian_4byte_word@@YAXPAIPAU_iobuf@@@Z 004f2720 f   etcpackwrap.obj
 0001:000f1790       ?expandToHeightDivByFour@@YA_NAAPAEHHAAH1H@Z 004f2790 f   etcpackwrap.obj
 0001:000f1920       ?expandToWidthDivByFour@@YA_NAAPAEHHAAH1H@Z 004f2920 f   etcpackwrap.obj
 0001:000f1b20       ?fileExist@@YA_NPAD@Z      004f2b20 f   etcpackwrap.obj
 0001:000f1b50       ?find_pos_of_extension@@YAHPAD@Z 004f2b50 f   etcpackwrap.obj
 0001:000f1b90       ?getPremulIndex@@YAHHHHH@Z 004f2b90 f   etcpackwrap.obj
 0001:000f1bb0       ?hasAlpha@@YA_NPAEHHH@Z    004f2bb0 f   etcpackwrap.obj
 0001:000f1c10       ?indexConversion@@YAHH@Z   004f2c10 f   etcpackwrap.obj
 0001:000f1d40       ?main_etcpack@@YAHHQAPAD@Z 004f2d40 f   etcpackwrap.obj
 0001:000f2050       ?multiplyMatrices@@YAPAUdMatrix@@PAU1@0@Z 004f3050 f   etcpackwrap.obj
 0001:000f2160       ?packBlock59T@@YAXQAY02EEIAAI1@Z 004f3160 f   etcpackwrap.obj
 0001:000f2200       ?precalcError58H@@YAXPAEQAY02EHPAI@Z 004f3200 f   etcpackwrap.obj
 0001:000f5960       ?precalcError58Hperceptual1000@@YAXPAEQAY02EHPAI@Z 004f6960 f   etcpackwrap.obj
 0001:000f9d30       ?precalcError59T_col0_R@@YAXPAEHPAI@Z 004fad30 f   etcpackwrap.obj
 0001:000f9e30       ?precalcError59T_col0_RG@@YAXPAEHPAI@Z 004fae30 f   etcpackwrap.obj
 0001:000f9fe0       ?precalcError59T_col0_RGB@@YAXPAEHPAI@Z 004fafe0 f   etcpackwrap.obj
 0001:000fe7e0       ?precalcError59T_col0_RGBpercep1000@@YAXPAEHPAI@Z 004ff7e0 f   etcpackwrap.obj
 0001:00104360       ?precalcError59T_col0_RGpercep1000@@YAXPAEHPAI@Z 00505360 f   etcpackwrap.obj
 0001:00104520       ?precalcError59T_col0_Rpercep1000@@YAXPAEHPAI@Z 00505520 f   etcpackwrap.obj
 0001:00104620       ?precalcError59T_col1_R@@YAXPAEHPAI@Z 00505620 f   etcpackwrap.obj
 0001:00104660       ?precalcError59T_col1_RG@@YAXPAEHPAI@Z 00505660 f   etcpackwrap.obj
 0001:001046d0       ?precalcError59T_col1_RGB@@YAXPAEHPAI@Z 005056d0 f   etcpackwrap.obj
 0001:00104770       ?precalcError59T_col1_RGBpercep1000@@YAXPAEHPAI@Z 00505770 f   etcpackwrap.obj
 0001:00104820       ?precalcError59T_col1_RGpercep1000@@YAXPAEHPAI@Z 00505820 f   etcpackwrap.obj
 0001:001048a0       ?precalcError59T_col1_Rpercep1000@@YAXPAEHPAI@Z 005058a0 f   etcpackwrap.obj
 0001:001048f0       ?precalcErrorRG_58H@@YAXPAEHHHQAY02EHPAI@Z 005058f0 f   etcpackwrap.obj
 0001:00104af0       ?precalcErrorRG_58Hperceptual1000@@YAXPAEHHHQAY02EHPAI@Z 00505af0 f   etcpackwrap.obj
 0001:00104cc0       ?precalcErrorR_58H@@YAXPAEHHHQAY02EHPAI@Z 00505cc0 f   etcpackwrap.obj
 0001:00104e40       ?precalcErrorR_58Hperceptual1000@@YAXPAEHHHQAY02EHPAI@Z 00505e40 f   etcpackwrap.obj
 0001:00104f90       ?precompute_3bittable_all_subblocksRG_withtest@@YAHPAE0PAI1111111I@Z 00505f90 f i etcpackwrap.obj
 0001:00105360       ?precompute_3bittable_all_subblocksRG_withtest_perceptual1000@@YAIPAE0PAI1111111I@Z 00506360 f i etcpackwrap.obj
 0001:001057a0       ?precompute_3bittable_all_subblocksR_with_test@@YAHPAE0PAI111I@Z 005067a0 f i etcpackwrap.obj
 0001:00105a70       ?precompute_3bittable_all_subblocksR_with_test_perceptual1000@@YAIPAE0PAI111I@Z 00506a70 f i etcpackwrap.obj
 0001:00105dc0       ?readAlpha@@YAXAAPAEAAH111@Z 00506dc0 f   etcpackwrap.obj
 0001:00105f80       ?readSrcFileNoExpand@@YA_NPADAAPAEAAH2@Z 00506f80 f   etcpackwrap.obj
 0001:001060f0       ?sortColorsRGB444@@YAXQAY02E@Z 005070f0 f   etcpackwrap.obj
 0001:00106180       ?stuff57bits@@YAXIIAAI0@Z  00507180 f   etcpackwrap.obj
 0001:001062d0       ?stuff58bits@@YAXIIAAI0@Z  005072d0 f   etcpackwrap.obj
 0001:00106380       ?stuff58bitsDiffFalse@@YAXIIAAI0@Z 00507380 f   etcpackwrap.obj
 0001:00106430       ?stuff59bits@@YAXIIAAI0@Z  00507430 f   etcpackwrap.obj
 0001:001064d0       ?stuff59bitsDiffFalse@@YAXIIAAI0@Z 005074d0 f   etcpackwrap.obj
 0001:00106570       ?swapColors@@YAXQAY02E@Z   00507570 f   etcpackwrap.obj
 0001:001065a0       ?transposeMatrix@@YAXPAUdMatrix@@@Z 005075a0 f   etcpackwrap.obj
 0001:00106720       ?tryalltables_3bittable2x4percep1000@@YAIPAEHHHH0AAI11@Z 00507720 f   etcpackwrap.obj
 0001:00106960       ?tryalltables_3bittable4x2percep1000@@YAIPAEHHHH0AAI11@Z 00507960 f   etcpackwrap.obj
 0001:00106bb0       ?tryalltables_3bittable_all_subblocks_using_precalc@@YAXPAE0PAI111AAI222I@Z 00507bb0 f i etcpackwrap.obj
 0001:0010a380       ?tryalltables_3bittable_all_subblocks_using_precalc_perceptual1000@@YAXPAE0PAI111AAI222I@Z 0050b380 f i etcpackwrap.obj
 0001:0010dd50       ?uncompressFile@@YAXPADAAPAE1AAH2@Z 0050ed50 f   etcpackwrap.obj
 0001:0010e950       ?writeOutputFile@@YAXPADPAE1HH@Z 0050f950 f   etcpackwrap.obj
 0001:0010ec20       ??$clamp@H@rg_etc1@@YAHHHH@Z 0050fc20 f i rg_etc1.obj
 0001:0010ec40       ??$indirect_radix_sort@IG@rg_etc1@@YAPAIIPAI0PBGII_N@Z 0050fc40 f i rg_etc1.obj
 0001:0010f170       ??$maximum@H@rg_etc1@@YAHHH@Z 00510170 f i rg_etc1.obj
 0001:0010f180       ??$maximum@H@rg_etc1@@YAHHHH@Z 00510180 f i rg_etc1.obj
 0001:0010f1a0       ??$minimum@H@rg_etc1@@YAHHH@Z 005101a0 f i rg_etc1.obj
 0001:0010f1b0       ??$minimum@H@rg_etc1@@YAHHHH@Z 005101b0 f i rg_etc1.obj
 0001:0010f1d0       ??$minimum@I@rg_etc1@@YAIII@Z 005101d0 f i rg_etc1.obj
 0001:0010f1e0       ??$square@H@rg_etc1@@YAHH@Z 005101e0 f i rg_etc1.obj
 0001:0010f1f0       ??0color_quad_u8@rg_etc1@@QAE@ABU01@@Z 005101f0 f i rg_etc1.obj
 0001:0010f200       ??0color_quad_u8@rg_etc1@@QAE@HHHH@Z 00510200 f i rg_etc1.obj
 0001:0010f220       ??0color_quad_u8@rg_etc1@@QAE@W4eNoClamp@1@HHHH@Z 00510220 f i rg_etc1.obj
 0001:0010f240       ??0color_quad_u8@rg_etc1@@QAE@XZ 00510240 f i rg_etc1.obj
 0001:0010f250       ??0etc1_optimizer@rg_etc1@@QAE@XZ 00510250 f i rg_etc1.obj
 0001:0010f2e0       ??0etc1_solution_coordinates@rg_etc1@@QAE@IIII_N@Z 005102e0 f i rg_etc1.obj
 0001:0010f340       ??0etc1_solution_coordinates@rg_etc1@@QAE@XZ 00510340 f i rg_etc1.obj
 0001:0010f360       ??0params@etc1_optimizer@rg_etc1@@QAE@ABUetc1_pack_params@2@@Z 00510360 f i rg_etc1.obj
 0001:0010f3b0       ??0potential_solution@etc1_optimizer@rg_etc1@@QAE@XZ 005103b0 f i rg_etc1.obj
 0001:0010f3e0       ??0results@etc1_optimizer@rg_etc1@@QAE@XZ 005103e0 f i rg_etc1.obj
 0001:0010f3f0       ??0vec3F@rg_etc1@@QAE@M@Z  005103f0 f i rg_etc1.obj
 0001:0010f410       ??0vec3F@rg_etc1@@QAE@MMM@Z 00510410 f i rg_etc1.obj
 0001:0010f440       ??0vec3F@rg_etc1@@QAE@XZ   00510440 f i rg_etc1.obj
 0001:0010f450       ??4color_quad_u8@rg_etc1@@QAEAAU01@ABU01@@Z 00510450 f i rg_etc1.obj
 0001:0010f460       ??4etc1_solution_coordinates@rg_etc1@@QAEAAU01@ABU01@@Z 00510460 f i rg_etc1.obj
 0001:0010f480       ??4potential_solution@etc1_optimizer@rg_etc1@@QAEAAU012@ABU012@@Z 00510480 f i rg_etc1.obj
 0001:0010f4f0       ??4results@etc1_optimizer@rg_etc1@@QAEAAU012@ABU012@@Z 005104f0 f i rg_etc1.obj
 0001:0010f550       ??Acolor_quad_u8@rg_etc1@@QAEAAEI@Z 00510550 f i rg_etc1.obj
 0001:0010f580       ??Avec3F@rg_etc1@@QBEMI@Z  00510580 f i rg_etc1.obj
 0001:0010f5b0       ??Xvec3F@rg_etc1@@QAEAAU01@M@Z 005105b0 f i rg_etc1.obj
 0001:0010f5f0       ??Yvec3F@rg_etc1@@QAEAAU01@ABU01@@Z 005105f0 f i rg_etc1.obj
 0001:0010f630       ??_H@YGXPAXIHP6EPAX0@Z@Z   00510630 f i rg_etc1.obj
 0001:0010f660       ?clamp@color_quad_u8@rg_etc1@@SAHH@Z 00510660 f i rg_etc1.obj
 0001:0010f680       ?clear@color_quad_u8@rg_etc1@@QAEXXZ 00510680 f i rg_etc1.obj
 0001:0010f690       ?clear@etc1_optimizer@rg_etc1@@QAEXXZ 00510690 f i rg_etc1.obj
 0001:0010f6b0       ?clear@etc1_solution_coordinates@rg_etc1@@QAEXXZ 005106b0 f i rg_etc1.obj
 0001:0010f6d0       ?clear_optimizer_params@params@etc1_optimizer@rg_etc1@@QAEXXZ 005106d0 f i rg_etc1.obj
 0001:0010f700       ?compute@etc1_optimizer@rg_etc1@@QAE_NXZ 00510700 f   rg_etc1.obj
 0001:00110170       ?evaluate_solution@etc1_optimizer@rg_etc1@@AAE_NABUetc1_solution_coordinates@2@AAUpotential_solution@12@PAU412@@Z 00511170 f   rg_etc1.obj
 0001:001104e0       ?evaluate_solution_fast@etc1_optimizer@rg_etc1@@AAE_NABUetc1_solution_coordinates@2@AAUpotential_solution@12@PAU412@@Z 005114e0 f   rg_etc1.obj
 0001:00110aa0       ?get_abs_subblock_colors@etc1_block@rg_etc1@@SAXPAUcolor_quad_u8@2@GI@Z 00511aa0 f   rg_etc1.obj
 0001:00110c70       ?get_base4_color@etc1_block@rg_etc1@@QBEGI@Z 00511c70 f i rg_etc1.obj
 0001:00110cc0       ?get_base5_color@etc1_block@rg_etc1@@QBEGXZ 00511cc0 f i rg_etc1.obj
 0001:00110ce0       ?get_block_colors@etc1_solution_coordinates@rg_etc1@@QAEXPAUcolor_quad_u8@2@@Z 00511ce0 f i rg_etc1.obj
 0001:00110ea0       ?get_byte_bits@etc1_block@rg_etc1@@QBEIII@Z 00511ea0 f i rg_etc1.obj
 0001:00110f40       ?get_delta3_color@etc1_block@rg_etc1@@QBEGXZ 00511f40 f i rg_etc1.obj
 0001:00110f60       ?get_diff_bit@etc1_block@rg_etc1@@QBE_NXZ 00511f60 f i rg_etc1.obj
 0001:00110f70       ?get_diff_subblock_colors@etc1_block@rg_etc1@@SAXPAUcolor_quad_u8@2@GI@Z 00511f70 f   rg_etc1.obj
 0001:00111150       ?get_diff_subblock_colors@etc1_block@rg_etc1@@SA_NPAUcolor_quad_u8@2@GGI@Z 00512150 f   rg_etc1.obj
 0001:00111310       ?get_flip_bit@etc1_block@rg_etc1@@QBE_NXZ 00512310 f i rg_etc1.obj
 0001:00111320       ?get_inten_table@etc1_block@rg_etc1@@QBEII@Z 00512320 f i rg_etc1.obj
 0001:00111370       ?get_scaled_color@etc1_solution_coordinates@rg_etc1@@QBE?AUcolor_quad_u8@2@XZ 00512370 f i rg_etc1.obj
 0001:00111410       ?get_selector@etc1_block@rg_etc1@@QBEIII@Z 00512410 f i rg_etc1.obj
 0001:00111480       ?init@etc1_optimizer@rg_etc1@@QAEXABUparams@12@AAUresults@12@@Z 00512480 f   rg_etc1.obj
 0001:00111740       ?pack_color4@etc1_block@rg_etc1@@SAGABUcolor_quad_u8@2@_NI@Z 00512740 f   rg_etc1.obj
 0001:00111770       ?pack_color4@etc1_block@rg_etc1@@SAGIII_NI@Z 00512770 f   rg_etc1.obj
 0001:00111800       ?pack_color5@etc1_block@rg_etc1@@SAGABUcolor_quad_u8@2@_NI@Z 00512800 f   rg_etc1.obj
 0001:00111830       ?pack_color5@etc1_block@rg_etc1@@SAGIII_NI@Z 00512830 f   rg_etc1.obj
 0001:001118c0       ?pack_delta3@etc1_block@rg_etc1@@SAGHHH@Z 005128c0 f   rg_etc1.obj
 0001:00111960       ?pack_etc1_block@rg_etc1@@YAIPAXPBIAAUetc1_pack_params@1@@Z 00512960 f   rg_etc1.obj
 0001:001123d0       ?pack_etc1_block_init@rg_etc1@@YAXXZ 005133d0 f   rg_etc1.obj
 0001:00112d90       ?set@color_quad_u8@rg_etc1@@QAEAAU12@HHHH@Z 00513d90 f i rg_etc1.obj
 0001:00112e00       ?set_noclamp_rgba@color_quad_u8@rg_etc1@@QAEAAU12@HHHH@Z 00513e00 f i rg_etc1.obj
 0001:00112ec0       ?set_rgb@color_quad_u8@rg_etc1@@QAEAAU12@ABU12@@Z 00513ec0 f i rg_etc1.obj
 0001:00112ee0       ?squared_distance_rgb@color_quad_u8@rg_etc1@@QBEIABU12@@Z 00513ee0 f i rg_etc1.obj
 0001:00112f20       ?unpack_color4@etc1_block@rg_etc1@@SA?AUcolor_quad_u8@2@G_NI@Z 00513f20 f   rg_etc1.obj
 0001:00112f80       ?unpack_color4@etc1_block@rg_etc1@@SAXAAI00G_N@Z 00513f80 f   rg_etc1.obj
 0001:00112ff0       ?unpack_color5@etc1_block@rg_etc1@@SA?AUcolor_quad_u8@2@G_NI@Z 00513ff0 f   rg_etc1.obj
 0001:00113060       ?unpack_color5@etc1_block@rg_etc1@@SAXAAI00G_N@Z 00514060 f   rg_etc1.obj
 0001:001130e0       ?unpack_color5@etc1_block@rg_etc1@@SA_NAAI00GG_NI@Z 005140e0 f   rg_etc1.obj
 0001:00113120       ?unpack_color5@etc1_block@rg_etc1@@SA_NAAUcolor_quad_u8@2@GG_NI@Z 00514120 f   rg_etc1.obj
 0001:00113210       ?unpack_delta3@etc1_block@rg_etc1@@SAXAAH00G@Z 00514210 f   rg_etc1.obj
 0001:00113270       ?unpack_etc1_block@rg_etc1@@YA_NPBXPAI_N@Z 00514270 f   rg_etc1.obj
 0001:00113e10       ?_omnilib_default_free@omnilib@@YAXPAXPADH@Z 00514e10 f   libinternal.obj
 0001:00113e20       ?_omnilib_default_malloc@omnilib@@YAPAXIPADH@Z 00514e20 f   libinternal.obj
 0001:00113e30       ?_omnilib_default_realloc@omnilib@@YAPAXPAXIPADH@Z 00514e30 f   libinternal.obj
 0001:00113e50       ?OmnilibSetMemFunc@omnilib@@YAXP6APAXIPADH@ZP6APAXPAXI0H@ZP6AX20H@Z@Z 00514e50 f   libinternal.obj
 0001:00113e70       ?OmnilibSetMessageFunc@omnilib@@YAXP6AXHPAD@ZP6AX0@Z@Z 00514e70 f   libinternal.obj
 0001:00113e90       ?__omnilib_free@omnilib@@YAXPAXPADH@Z 00514e90 f   libinternal.obj
 0001:00113eb0       ?__omnilib_malloc@omnilib@@YAPAXIPADH@Z 00514eb0 f   libinternal.obj
 0001:00113f00       ?__omnilib_realloc@omnilib@@YAPAXPAXIPADH@Z 00514f00 f   libinternal.obj
 0001:00113f20       ?_omnilib_bcreate@omnilib@@YAPAU_omnilib_membuf_t@1@H@Z 00514f20 f   libinternal.obj
 0001:00113fb0       ?_omnilib_bfree@omnilib@@YAXPAU_omnilib_membuf_t@1@PAPAE@Z 00514fb0 f   libinternal.obj
 0001:00114000       ?_omnilib_bgrow@omnilib@@YAXPAU_omnilib_membuf_t@1@H@Z 00515000 f   libinternal.obj
 0001:001140b0       ?_omnilib_bputlittlefloat@omnilib@@YAXPAU_omnilib_membuf_t@1@M@Z 005150b0 f   libinternal.obj
 0001:00114100       ?_omnilib_bputlittleint@omnilib@@YAXPAU_omnilib_membuf_t@1@H@Z 00515100 f   libinternal.obj
 0001:00114150       ?_omnilib_brelease@omnilib@@YAHPAU_omnilib_membuf_t@1@PAPAX@Z 00515150 f   libinternal.obj
 0001:00114180       ?_omnilib_bwrite@omnilib@@YAXPAU_omnilib_membuf_t@1@PAXH@Z 00515180 f   libinternal.obj
 0001:001141b0       ?_omnilib_createpath@omnilib@@YAXPAD@Z 005151b0 f   libinternal.obj
 0001:00114320       ?_omnilib_error@omnilib@@YAXPADZZ 00515320 f   libinternal.obj
 0001:00114380       ?_omnilib_print@omnilib@@YAXPADZZ 00515380 f   libinternal.obj
 0001:001143e0       ?_omnilib_safeopen@omnilib@@YAPAU_iobuf@@PADQAD@Z 005153e0 f   libinternal.obj
 0001:00114430       ?_omnilib_verbose@omnilib@@YAXPADZZ 00515430 f   libinternal.obj
 0001:00114490       ?_omnilib_warning@omnilib@@YAXPADZZ 00515490 f   libinternal.obj
 0001:001144f0       ?CalcMaxWidthHeight@omnilib@@YAXPAUMetaSprite_t@1@PAJ1PAM@Z 005154f0 f   libsprite.obj
 0001:00114580       ?CompareSpritePic@omnilib@@YAHPBX0@Z 00515580 f   libsprite.obj
 0001:001145a0       ?FindPicPos@omnilib@@YA_NPAUMergedPic_t@1@PAUMetaSpritePic_t@1@HPAH2_N@Z 005155a0 f   libsprite.obj
 0001:00114890       ?FlushMergedTex@omnilib@@YAXPAUMergedPic_t@1@@Z 00515890 f   libsprite.obj
 0001:001148d0       ?FreeMergedTex@omnilib@@YAXPAUMergedPic_t@1@@Z 005158d0 f   libsprite.obj
 0001:00114920       ?FreeSpriteFrame@omnilib@@YAXPAUMetaSpriteFrame_t@1@@Z 00515920 f   libsprite.obj
 0001:00114940       ?FreeSpritePic@omnilib@@YAXPAUMetaSpritePic_t@1@@Z 00515940 f   libsprite.obj
 0001:00114980       ?InitMergedTex@omnilib@@YAXPAUMergedPic_t@1@HHHPAUMetaSpriteColormap_t@1@HH_N@Z 00515980 f   libsprite.obj
 0001:00114b10       ?LittleFloat@omnilib@@YAMPAE@Z 00515b10 f   libsprite.obj
 0001:00114b40       ?LittleInt@omnilib@@YAHPAE@Z 00515b40 f   libsprite.obj
 0001:00114b70       ?NextPowerOfTwo@omnilib@@YAHH@Z 00515b70 f   libsprite.obj
 0001:00114bb0       ?ResizeMergedTex@omnilib@@YA_NPAUMergedPic_t@1@HH@Z 00515bb0 f   libsprite.obj
 0001:00114cc0       ?StoreMergeTex@omnilib@@YAXPAUMergedPic_t@1@PAUMetaSprite_t@1@_N2@Z 00515cc0 f   libsprite.obj
 0001:00114e90       ?WriteTGA@omnilib@@YAXPADPAEHHH1@Z 00515e90 f   libsprite.obj
 0001:00115130       ?floor@@YAMM@Z             00516130 f i libsprite.obj
 0001:00115170       ?olCreateSprite@omnilib@@YAPAUMetaSprite_t@1@XZ 00516170 f   libsprite.obj
 0001:001151a0       ?olFreeSprite@omnilib@@YAXPAUMetaSprite_t@1@@Z 005161a0 f   libsprite.obj
 0001:00115270       ?olLoadSprite@omnilib@@YAPAUMetaSprite_t@1@PAEH@Z 00516270 f   libsprite.obj
 0001:00115b30       ?olSpriteAddColormap@omnilib@@YAPAUMetaSpriteColormap_t@1@PAUMetaSprite_t@1@@Z 00516b30 f   libsprite.obj
 0001:00115bb0       ?olSpriteAddFrame@omnilib@@YAPAUMetaSpriteFrame_t@1@PAUMetaSprite_t@1@@Z 00516bb0 f   libsprite.obj
 0001:00115c40       ?olSpriteAddPic@omnilib@@YAPAUMetaSpritePic_t@1@PAUMetaSprite_t@1@@Z 00516c40 f   libsprite.obj
 0001:00115cd0       ?olSpriteConvertToPacked@omnilib@@YAPAUMetaSprite_t@1@PAU21@HHH_N1111W4SpritePackMode_t@1@@Z 00516cd0 f   libsprite.obj
 0001:00116200       ?olSpriteConvertToSingle@omnilib@@YAPAUMetaSprite_t@1@PAU21@@Z 00517200 f   libsprite.obj
 0001:00116450       ?olSpriteExport@omnilib@@YAXPAUMetaSprite_t@1@PAD1@Z 00517450 f   libsprite.obj
 0001:00116820       ?olSpriteFloodAlpha@omnilib@@YAXPAUMetaSprite_t@1@H@Z 00517820 f   libsprite.obj
 0001:00116860       ?olSpritePicFloodAlpha@omnilib@@YAXPAUMetaSpritePic_t@1@H@Z 00517860 f   libsprite.obj
 0001:00116e60       ?olSpritePicResize@omnilib@@YAXPAUMetaSpritePic_t@1@HHH@Z 00517e60 f   libsprite.obj
 0001:00116ee0       ?olSpriteSave@omnilib@@YAHPAUMetaSprite_t@1@PAPAE@Z 00517ee0 f   libsprite.obj
 0001:00117200       ??$_Destroy_range@U?$_Wrap_alloc@V?$allocator@PAUTexFormat_s@@@std@@@std@@@std@@YAXPAPAUTexFormat_s@@0AAU?$_Wrap_alloc@V?$allocator@PAUTexFormat_s@@@std@@@0@@Z 00518200 f i codec_dxt.obj
 0001:00117210       ??$_Destroy_range@U?$_Wrap_alloc@V?$allocator@PAUTexFormat_s@@@std@@@std@@@std@@YAXPAPAUTexFormat_s@@0AAU?$_Wrap_alloc@V?$allocator@PAUTexFormat_s@@@std@@@0@U_Scalar_ptr_iterator_tag@0@@Z 00518210 f i codec_dxt.obj
 0001:00117220       ??$_Destroy_range@U?$_Wrap_alloc@V?$allocator@PAUTexTool_s@@@std@@@std@@@std@@YAXPAPAUTexTool_s@@0AAU?$_Wrap_alloc@V?$allocator@PAUTexTool_s@@@std@@@0@@Z 00518220 f i codec_dxt.obj
 0001:00117230       ??$_Destroy_range@U?$_Wrap_alloc@V?$allocator@PAUTexTool_s@@@std@@@std@@@std@@YAXPAPAUTexTool_s@@0AAU?$_Wrap_alloc@V?$allocator@PAUTexTool_s@@@std@@@0@U_Scalar_ptr_iterator_tag@0@@Z 00518230 f i codec_dxt.obj
 0001:00117240       ??$_Destroy_range@U?$_Wrap_alloc@V?$allocator@UCompareOption@@@std@@@std@@@std@@YAXPAUCompareOption@@0AAU?$_Wrap_alloc@V?$allocator@UCompareOption@@@std@@@0@@Z 00518240 f i codec_dxt.obj
 0001:00117260       ??$_Destroy_range@U?$_Wrap_alloc@V?$allocator@UCompareOption@@@std@@@std@@@std@@YAXPAUCompareOption@@0AAU?$_Wrap_alloc@V?$allocator@UCompareOption@@@std@@@0@U_Nonscalar_ptr_iterator_tag@0@@Z 00518260 f i codec_dxt.obj
 0001:001172d0       ??$_Ptr_cat@PAUTexFormat_s@@PAU1@@std@@YA?AU_Scalar_ptr_iterator_tag@0@PAPAUTexFormat_s@@0@Z 005182d0 f i codec_dxt.obj
 0001:001172e0       ??$_Ptr_cat@PAUTexTool_s@@PAU1@@std@@YA?AU_Scalar_ptr_iterator_tag@0@PAPAUTexTool_s@@0@Z 005182e0 f i codec_dxt.obj
 0001:001172f0       ??$_Ptr_cat@UCompareOption@@U1@@std@@YA?AU_Nonscalar_ptr_iterator_tag@0@PAUCompareOption@@0@Z 005182f0 f i codec_dxt.obj
 0001:00117300       ??$destroy@UCompareOption@@@?$_Wrap_alloc@V?$allocator@UCompareOption@@@std@@@std@@QAEXPAUCompareOption@@@Z 00518300 f i codec_dxt.obj
 0001:00117350       ??$destroy@UCompareOption@@@?$allocator@UCompareOption@@@std@@QAEXPAUCompareOption@@@Z 00518350 f i codec_dxt.obj
 0001:001173a0       ??$destroy@UCompareOption@@@?$allocator_traits@V?$allocator@UCompareOption@@@std@@@std@@SAXAAV?$allocator@UCompareOption@@@1@PAUCompareOption@@@Z 005183a0 f i codec_dxt.obj
 0001:001173f0       ??0?$_Vector_alloc@$0A@U?$_Vec_base_types@PAUTexFormat_s@@V?$allocator@PAUTexFormat_s@@@std@@@std@@@std@@QAE@ABV?$allocator@PAUTexFormat_s@@@1@@Z 005183f0 f i codec_dxt.obj
 0001:00117410       ??0?$_Vector_alloc@$0A@U?$_Vec_base_types@PAUTexTool_s@@V?$allocator@PAUTexTool_s@@@std@@@std@@@std@@QAE@ABV?$allocator@PAUTexTool_s@@@1@@Z 00518410 f i codec_dxt.obj
 0001:00117430       ??0?$_Vector_alloc@$0A@U?$_Vec_base_types@UCompareOption@@V?$allocator@UCompareOption@@@std@@@std@@@std@@QAE@ABV?$allocator@UCompareOption@@@1@@Z 00518430 f i codec_dxt.obj
 0001:00117450       ??0?$_Vector_val@U?$_Simple_types@PAUTexFormat_s@@@std@@@std@@QAE@XZ 00518450 f i codec_dxt.obj
 0001:00117470       ??0?$_Vector_val@U?$_Simple_types@PAUTexTool_s@@@std@@@std@@QAE@XZ 00518470 f i codec_dxt.obj
 0001:00117490       ??0?$_Vector_val@U?$_Simple_types@UCompareOption@@@std@@@std@@QAE@XZ 00518490 f i codec_dxt.obj
 0001:001174b0       ??0?$_Wrap_alloc@V?$allocator@PAUTexFormat_s@@@std@@@std@@QAE@XZ 005184b0 f i codec_dxt.obj
 0001:001174c0       ??0?$_Wrap_alloc@V?$allocator@PAUTexTool_s@@@std@@@std@@QAE@XZ 005184c0 f i codec_dxt.obj
 0001:001174d0       ??0?$_Wrap_alloc@V?$allocator@UCompareOption@@@std@@@std@@QAE@XZ 005184d0 f i codec_dxt.obj
 0001:001174e0       ??0?$allocator@PAUTexFormat_s@@@std@@QAE@XZ 005184e0 f i codec_dxt.obj
 0001:001174f0       ??0?$allocator@PAUTexTool_s@@@std@@QAE@XZ 005184f0 f i codec_dxt.obj
 0001:00117500       ??0?$allocator@UCompareOption@@@std@@QAE@XZ 00518500 f i codec_dxt.obj
 0001:00117510       ??0?$vector@PAUTexFormat_s@@V?$allocator@PAUTexFormat_s@@@std@@@std@@QAE@XZ 00518510 f i codec_dxt.obj
 0001:00117530       ??0?$vector@PAUTexTool_s@@V?$allocator@PAUTexTool_s@@@std@@@std@@QAE@XZ 00518530 f i codec_dxt.obj
 0001:00117550       ??0?$vector@UCompareOption@@V?$allocator@UCompareOption@@@std@@@std@@QAE@XZ 00518550 f i codec_dxt.obj
 0001:00117570       ??1?$vector@PAUTexFormat_s@@V?$allocator@PAUTexFormat_s@@@std@@@std@@QAE@XZ 00518570 f i codec_dxt.obj
 0001:001175a0       ??1?$vector@PAUTexTool_s@@V?$allocator@PAUTexTool_s@@@std@@@std@@QAE@XZ 005185a0 f i codec_dxt.obj
 0001:001175d0       ??1?$vector@UCompareOption@@V?$allocator@UCompareOption@@@std@@@std@@QAE@XZ 005185d0 f i codec_dxt.obj
 0001:00117620       ??1CompareOption@@QAE@XZ   00518620 f i codec_dxt.obj
 0001:00117670       ??1TexCodec_s@@QAE@XZ      00518670 f i codec_dxt.obj
 0001:00117700       ??1TexFormat_s@@QAE@XZ     00518700 f i codec_dxt.obj
 0001:00117750       ??_GCompareOption@@QAEPAXI@Z 00518750 f i codec_dxt.obj
 0001:001177b0       ?CodecDXT_Accept@@YA_NPAUTexEncodeTask_s@@@Z 005187b0 f   codec_dxt.obj
 0001:001177c0       ?CodecDXT_Decode@@YAXPAUTexDecodeTask_s@@@Z 005187c0 f   codec_dxt.obj
 0001:00117890       ?CodecDXT_Encode@@YAXPAUTexEncodeTask_s@@@Z 00518890 f   codec_dxt.obj
 0001:00117930       ?CodecDXT_Init@@YAXXZ      00518930 f   codec_dxt.obj
 0001:00117990       ?CodecDXT_Load@@YAXXZ      00518990 f   codec_dxt.obj
 0001:001179b0       ?CodecDXT_Option@@YAXPBD000H@Z 005189b0 f   codec_dxt.obj
 0001:00117a00       ?Swizzle_AGBR@@YAXPAEHHHH_N11@Z 00518a00 f   codec_dxt.obj
 0001:00117ac0       ?Swizzle_Premult@@YAXPAEHHHH_N11@Z 00518ac0 f   codec_dxt.obj
 0001:00117c60       ?Swizzle_XGBR@@YAXPAEHHHH_N11@Z 00518c60 f   codec_dxt.obj
 0001:00117d00       ?Swizzle_YCoCg@@YAXPAEHHHH_N11@Z 00518d00 f   codec_dxt.obj
 0001:00117f50       ?Swizzle_YCoCgScaled@@YAXPAEHHHH_N11@Z 00518f50 f   codec_dxt.obj
 0001:001181b0       ?Swizzle_YCoCgScaled_Gamma2@@YAXPAEHHHH_N11@Z 005191b0 f   codec_dxt.obj
 0001:00118550       ?Swizzle_YCoCg_Gamma2@@YAXPAEHHHH_N11@Z 00519550 f   codec_dxt.obj
 0001:001188c0       ?_Destroy@?$vector@PAUTexFormat_s@@V?$allocator@PAUTexFormat_s@@@std@@@std@@IAEXPAPAUTexFormat_s@@0@Z 005198c0 f i codec_dxt.obj
 0001:001188d0       ?_Destroy@?$vector@PAUTexTool_s@@V?$allocator@PAUTexTool_s@@@std@@@std@@IAEXPAPAUTexTool_s@@0@Z 005198d0 f i codec_dxt.obj
 0001:001188e0       ?_Destroy@?$vector@UCompareOption@@V?$allocator@UCompareOption@@@std@@@std@@IAEXPAUCompareOption@@0@Z 005198e0 f i codec_dxt.obj
 0001:00118900       ?_Getal@?$_Vector_alloc@$0A@U?$_Vec_base_types@PAUTexFormat_s@@V?$allocator@PAUTexFormat_s@@@std@@@std@@@std@@QBE?AU?$_Wrap_alloc@V?$allocator@PAUTexFormat_s@@@std@@@2@XZ 00519900 f i codec_dxt.obj
 0001:00118910       ?_Getal@?$_Vector_alloc@$0A@U?$_Vec_base_types@PAUTexTool_s@@V?$allocator@PAUTexTool_s@@@std@@@std@@@std@@QBE?AU?$_Wrap_alloc@V?$allocator@PAUTexTool_s@@@std@@@2@XZ 00519910 f i codec_dxt.obj
 0001:00118920       ?_Getal@?$_Vector_alloc@$0A@U?$_Vec_base_types@UCompareOption@@V?$allocator@UCompareOption@@@std@@@std@@@std@@QBE?AU?$_Wrap_alloc@V?$allocator@UCompareOption@@@std@@@2@XZ 00519920 f i codec_dxt.obj
 0001:00118930       ?_Orphan_all@_Container_base0@std@@QAEXXZ 00519930 f i codec_dxt.obj
 0001:00118940       ?_Tidy@?$vector@PAUTexFormat_s@@V?$allocator@PAUTexFormat_s@@@std@@@std@@IAEXXZ 00519940 f i codec_dxt.obj
 0001:00118970       ?_Tidy@?$vector@PAUTexTool_s@@V?$allocator@PAUTexTool_s@@@std@@@std@@IAEXXZ 00519970 f i codec_dxt.obj
 0001:001189a0       ?_Tidy@?$vector@UCompareOption@@V?$allocator@UCompareOption@@@std@@@std@@IAEXXZ 005199a0 f i codec_dxt.obj
 0001:001189f0       ?deallocate@?$_Wrap_alloc@V?$allocator@PAUTexFormat_s@@@std@@@std@@QAEXPAPAUTexFormat_s@@I@Z 005199f0 f i codec_dxt.obj
 0001:00118a10       ?deallocate@?$_Wrap_alloc@V?$allocator@PAUTexTool_s@@@std@@@std@@QAEXPAPAUTexTool_s@@I@Z 00519a10 f i codec_dxt.obj
 0001:00118a30       ?deallocate@?$_Wrap_alloc@V?$allocator@UCompareOption@@@std@@@std@@QAEXPAUCompareOption@@I@Z 00519a30 f i codec_dxt.obj
 0001:00118a50       ?deallocate@?$allocator@PAUTexFormat_s@@@std@@QAEXPAPAUTexFormat_s@@I@Z 00519a50 f i codec_dxt.obj
 0001:00118a70       ?deallocate@?$allocator@PAUTexTool_s@@@std@@QAEXPAPAUTexTool_s@@I@Z 00519a70 f i codec_dxt.obj
 0001:00118a90       ?deallocate@?$allocator@UCompareOption@@@std@@QAEXPAUCompareOption@@I@Z 00519a90 f i codec_dxt.obj
 0001:00118ab0       ?sqrt@@YAMM@Z              00519ab0 f i codec_dxt.obj
 0001:00118ae0       ?CodecETC1_Accept@@YA_NPAUTexEncodeTask_s@@@Z 00519ae0 f   codec_etc1.obj
 0001:00118b00       ?CodecETC1_Decode@@YAXPAUTexDecodeTask_s@@@Z 00519b00 f   codec_etc1.obj
 0001:00118c30       ?CodecETC1_Encode@@YAXPAUTexEncodeTask_s@@@Z 00519c30 f   codec_etc1.obj
 0001:00118c60       ?CodecETC1_ExtractBlockRGBA@@YAXPBEHHHHHPAE@Z 00519c60 f   codec_etc1.obj
 0001:00118d90       ?CodecETC1_Init@@YAXXZ     00519d90 f   codec_etc1.obj
 0001:00118dd0       ?CodecETC1_Load@@YAXXZ     00519dd0 f   codec_etc1.obj
 0001:00118de0       ?CodecETC1_Option@@YAXPBD000H@Z 00519de0 f   codec_etc1.obj
 0001:00118e30       ?CodecETC2_Accept@@YA_NPAUTexEncodeTask_s@@@Z 00519e30 f   codec_etc2.obj
 0001:00118e40       ?CodecETC2_Decode@@YAXPAUTexDecodeTask_s@@@Z 00519e40 f   codec_etc2.obj
 0001:001192c0       ?CodecETC2_Encode@@YAXPAUTexEncodeTask_s@@@Z 0051a2c0 f   codec_etc2.obj
 0001:00119340       ?CodecETC2_Init@@YAXXZ     0051a340 f   codec_etc2.obj
 0001:00119370       ?CodecETC2_Load@@YAXXZ     0051a370 f   codec_etc2.obj
 0001:00119380       ?CodecETC2_Option@@YAXPBD000H@Z 0051a380 f   codec_etc2.obj
 0001:001193d0       ?readColorBlockETC@@YAXPAPAEAAI1@Z 0051a3d0 f   codec_etc2.obj
 0001:00119450       ??1MetaDataBlock@@QAE@XZ   0051a450 f i codec_pvrtc.obj
 0001:00119470       ??_EMetaDataBlock@@QAEPAXI@Z 0051a470 f i codec_pvrtc.obj
 0001:001194e0       ?CodecPVRTC_Accept@@YA_NPAUTexEncodeTask_s@@@Z 0051a4e0 f   codec_pvrtc.obj
 0001:00119520       ?CodecPVRTC_Decode@@YAXPAUTexDecodeTask_s@@@Z 0051a520 f   codec_pvrtc.obj
 0001:001195b0       ?CodecPVRTC_Encode@@YAXPAUTexEncodeTask_s@@@Z 0051a5b0 f   codec_pvrtc.obj
 0001:00119630       ?CodecPVRTC_Init@@YAXXZ    0051a630 f   codec_pvrtc.obj
 0001:00119650       ?CodecPVRTC_Load@@YAXXZ    0051a650 f   codec_pvrtc.obj
 0001:00119660       ?CodecPVRTC_Option@@YAXPBD000H@Z 0051a660 f   codec_pvrtc.obj
 0001:001196b0       ?CodecPVRTC2_Accept@@YA_NPAUTexEncodeTask_s@@@Z 0051a6b0 f   codec_pvrtc2.obj
 0001:001196c0       ?CodecPVRTC2_Decode@@YAXPAUTexDecodeTask_s@@@Z 0051a6c0 f   codec_pvrtc2.obj
 0001:00119750       ?CodecPVRTC2_Encode@@YAXPAUTexEncodeTask_s@@@Z 0051a750 f   codec_pvrtc2.obj
 0001:00119780       ?CodecPVRTC2_Init@@YAXXZ   0051a780 f   codec_pvrtc2.obj
 0001:001197a0       ?CodecPVRTC2_Load@@YAXXZ   0051a7a0 f   codec_pvrtc2.obj
 0001:001197b0       ?CodecPVRTC2_Option@@YAXPBD000H@Z 0051a7b0 f   codec_pvrtc2.obj
 0001:00119800       ?CodecBGRA_Accept@@YA_NPAUTexEncodeTask_s@@@Z 0051a800 f   codec_unc.obj
 0001:00119810       ?CodecBGRA_Decode@@YAXPAUTexDecodeTask_s@@@Z 0051a810 f   codec_unc.obj
 0001:00119840       ?CodecBGRA_Encode@@YAXPAUTexEncodeTask_s@@@Z 0051a840 f   codec_unc.obj
 0001:00119870       ?CodecBGRA_Init@@YAXXZ     0051a870 f   codec_unc.obj
 0001:00119890       ?CodecBGRA_Load@@YAXXZ     0051a890 f   codec_unc.obj
 0001:001198a0       ?CodecBGRA_Option@@YAXPBD000H@Z 0051a8a0 f   codec_unc.obj
 0001:001198f0       ?Swizzle_AlphaInRGB1@@YAXPAEHHHH_N11@Z 0051a8f0 f   codec_unc.obj
 0001:00119a50       ?Swizzle_AlphaInRGB3@@YAXPAEHHHH_N11@Z 0051aa50 f   codec_unc.obj
 0001:00119cb0       ?Swizzle_AlphaInRGB6@@YAXPAEHHHH_N11@Z 0051acb0 f   codec_unc.obj
 0001:00119ef0       ?DDS_Scan@@YA_NPAE@Z       0051aef0 f   file_dds.obj
 0001:00119f10       ?DDS_CreateHeader@@YAPAEPAULoadedImage_s@@PAUTexFormat_s@@PAI@Z 0051af10 f   file_dds.obj
 0001:0011a0b0       ?DDS_PrintHeader@@YAXPAE@Z 0051b0b0 f   file_dds.obj
 0001:0011a190       ?DDS_Read@@YA_NPAUTexDecodeTask_s@@@Z 0051b190 f   file_dds.obj
 0001:0011a350       ?DDS_WriteMipHeader@@YAIPAEIII@Z 0051b350 f   file_dds.obj
 0001:0011a360       ?KTX_Scan@@YA_NPAE@Z       0051b360 f   file_ktx.obj
 0001:0011a390       ?KTX_PrintHeader@@YAXPAE@Z 0051b390 f   file_ktx.obj
 0001:0011a4c0       ?KTX_CreateHeader@@YAPAEPAULoadedImage_s@@PAUTexFormat_s@@PAI@Z 0051b4c0 f   file_ktx.obj
 0001:0011a680       ?KTX_WriteMipHeader@@YAIPAEIII@Z 0051b680 f   file_ktx.obj
 0001:0011a6a0       ?KTX_Read@@YA_NPAUTexDecodeTask_s@@@Z 0051b6a0 f   file_ktx.obj
 0001:0011a6b0       ?KTX_ReadKeyPair@@YAPADPAPAEPAPADPAI@Z 0051b6b0 f   file_ktx.obj
 0001:0011a730       ?KTX_WriteKeyPair@@YAXPAD0PAPAEPAI@Z 0051b730 f   file_ktx.obj
 0001:0011a760       ?KTX_WriteKeyPair@@YAXPADPAEIPAPAEPAI@Z 0051b760 f   file_ktx.obj
 0001:0011a820       ??$_Allocate@UFS_File@@@std@@YAPAUFS_File@@IPAU1@@Z 0051b820 f i fs.obj
 0001:0011a860       ??$_Allocate@UFileCacheS@@@std@@YAPAUFileCacheS@@IPAU1@@Z 0051b860 f i fs.obj
 0001:0011a8a0       ??$_Destroy_range@U?$_Wrap_alloc@V?$allocator@UFS_File@@@std@@@std@@@std@@YAXPAUFS_File@@0AAU?$_Wrap_alloc@V?$allocator@UFS_File@@@std@@@0@@Z 0051b8a0 f i fs.obj
 0001:0011a8d0       ??$_Destroy_range@U?$_Wrap_alloc@V?$allocator@UFS_File@@@std@@@std@@@std@@YAXPAUFS_File@@0AAU?$_Wrap_alloc@V?$allocator@UFS_File@@@std@@@0@U_Nonscalar_ptr_iterator_tag@0@@Z 0051b8d0 f i fs.obj
 0001:0011a900       ??$_Destroy_range@U?$_Wrap_alloc@V?$allocator@UFileCacheS@@@std@@@std@@@std@@YAXPAUFileCacheS@@0AAU?$_Wrap_alloc@V?$allocator@UFileCacheS@@@std@@@0@@Z 0051b900 f i fs.obj
 0001:0011a910       ??$_Destroy_range@U?$_Wrap_alloc@V?$allocator@UFileCacheS@@@std@@@std@@@std@@YAXPAUFileCacheS@@0AAU?$_Wrap_alloc@V?$allocator@UFileCacheS@@@std@@@0@U_Nonscalar_ptr_iterator_tag@0@@Z 0051b910 f i fs.obj
 0001:0011a920       ??$_Ptr_cat@UFS_File@@U1@@std@@YA?AU_Nonscalar_ptr_iterator_tag@0@PAUFS_File@@0@Z 0051b920 f i fs.obj
 0001:0011a930       ??$_Ptr_cat@UFileCacheS@@U1@@std@@YA?AU_Nonscalar_ptr_iterator_tag@0@PAUFileCacheS@@0@Z 0051b930 f i fs.obj
 0001:0011a940       ??$_Rechecked@PAUFS_File@@PAU1@@std@@YAAAPAUFS_File@@AAPAU1@PAU1@@Z 0051b940 f i fs.obj
 0001:0011a950       ??$_Rechecked@PAUFileCacheS@@PAU1@@std@@YAAAPAUFileCacheS@@AAPAU1@PAU1@@Z 0051b950 f i fs.obj
 0001:0011a960       ??$_Umove@PAUFS_File@@@?$vector@UFS_File@@V?$allocator@UFS_File@@@std@@@std@@IAEPAUFS_File@@PAU2@00@Z 0051b960 f i fs.obj
 0001:0011a990       ??$_Umove@PAUFileCacheS@@@?$vector@UFileCacheS@@V?$allocator@UFileCacheS@@@std@@@std@@IAEPAUFileCacheS@@PAU2@00@Z 0051b990 f i fs.obj
 0001:0011a9c0       ??$_Unchecked@PAUFS_File@@@std@@YAPAUFS_File@@PAU1@@Z 0051b9c0 f i fs.obj
 0001:0011a9d0       ??$_Unchecked@PAUFileCacheS@@@std@@YAPAUFileCacheS@@PAU1@@Z 0051b9d0 f i fs.obj
 0001:0011a9e0       ??$_Uninit_move@PAUFS_File@@PAU1@U?$_Wrap_alloc@V?$allocator@UFS_File@@@std@@@std@@@std@@YAPAUFS_File@@PAU1@00AAU?$_Wrap_alloc@V?$allocator@UFS_File@@@std@@@0@@Z 0051b9e0 f i fs.obj
 0001:0011aa10       ??$_Uninit_move@PAUFS_File@@PAU1@V?$allocator@UFS_File@@@std@@U1@@std@@YAPAUFS_File@@PAU1@00AAU?$_Wrap_alloc@V?$allocator@UFS_File@@@std@@@0@0U_Nonscalar_ptr_iterator_tag@0@@Z 0051ba10 f i fs.obj
 0001:0011aac0       ??$_Uninit_move@PAUFileCacheS@@PAU1@U?$_Wrap_alloc@V?$allocator@UFileCacheS@@@std@@@std@@@std@@YAPAUFileCacheS@@PAU1@00AAU?$_Wrap_alloc@V?$allocator@UFileCacheS@@@std@@@0@@Z 0051bac0 f i fs.obj
 0001:0011aaf0       ??$_Uninit_move@PAUFileCacheS@@PAU1@V?$allocator@UFileCacheS@@@std@@U1@@std@@YAPAUFileCacheS@@PAU1@00AAU?$_Wrap_alloc@V?$allocator@UFileCacheS@@@std@@@0@0U_Nonscalar_ptr_iterator_tag@0@@Z 0051baf0 f i fs.obj
 0001:0011ab40       ??$_Uninitialized_move@PAUFS_File@@PAU1@U?$_Wrap_alloc@V?$allocator@UFS_File@@@std@@@std@@@std@@YAPAUFS_File@@PAU1@00AAU?$_Wrap_alloc@V?$allocator@UFS_File@@@std@@@0@@Z 0051bb40 f i fs.obj
 0001:0011ab60       ??$_Uninitialized_move@PAUFileCacheS@@PAU1@U?$_Wrap_alloc@V?$allocator@UFileCacheS@@@std@@@std@@@std@@YAPAUFileCacheS@@PAU1@00AAU?$_Wrap_alloc@V?$allocator@UFileCacheS@@@std@@@0@@Z 0051bb60 f i fs.obj
 0001:0011ab80       ??$_Val_type@PAUFS_File@@@std@@YAPAUFS_File@@PAU1@@Z 0051bb80 f i fs.obj
 0001:0011ab90       ??$_Val_type@PAUFileCacheS@@@std@@YAPAUFileCacheS@@PAU1@@Z 0051bb90 f i fs.obj
 0001:0011aba0       ??$addressof@$$CBUFS_File@@@std@@YAPBUFS_File@@ABU1@@Z 0051bba0 f i fs.obj
 0001:0011abb0       ??$addressof@$$CBUFileCacheS@@@std@@YAPBUFileCacheS@@ABU1@@Z 0051bbb0 f i fs.obj
 0001:0011abc0       ??$addressof@UCompareOption@@@std@@YAPAUCompareOption@@AAU1@@Z 0051bbc0 f i fs.obj
 0001:0011abd0       ??$addressof@UFileCacheS@@@std@@YAPAUFileCacheS@@AAU1@@Z 0051bbd0 f i fs.obj
 0001:0011abe0       ??$construct@UFS_File@@AAU1@@?$_Wrap_alloc@V?$allocator@UFS_File@@@std@@@std@@QAEXPAUFS_File@@AAU2@@Z 0051bbe0 f i fs.obj
 0001:0011ac30       ??$construct@UFS_File@@AAU1@@?$allocator@UFS_File@@@std@@QAEXPAUFS_File@@AAU2@@Z 0051bc30 f i fs.obj
 0001:0011ac80       ??$construct@UFS_File@@AAU1@@?$allocator_traits@V?$allocator@UFS_File@@@std@@@std@@SAXAAV?$allocator@UFS_File@@@1@PAUFS_File@@AAU3@@Z 0051bc80 f i fs.obj
 0001:0011acd0       ??$construct@UFS_File@@ABU1@@?$_Wrap_alloc@V?$allocator@UFS_File@@@std@@@std@@QAEXPAUFS_File@@ABU2@@Z 0051bcd0 f i fs.obj
 0001:0011ad20       ??$construct@UFS_File@@ABU1@@?$allocator_traits@V?$allocator@UFS_File@@@std@@@std@@SAXAAV?$allocator@UFS_File@@@1@PAUFS_File@@ABU3@@Z 0051bd20 f i fs.obj
 0001:0011ad70       ??$construct@UFS_File@@U1@@?$_Wrap_alloc@V?$allocator@UFS_File@@@std@@@std@@QAEXPAUFS_File@@$$QAU2@@Z 0051bd70 f i fs.obj
 0001:0011adc0       ??$construct@UFS_File@@U1@@?$allocator@UFS_File@@@std@@QAEXPAUFS_File@@$$QAU2@@Z 0051bdc0 f i fs.obj
 0001:0011ae10       ??$construct@UFS_File@@U1@@?$allocator_traits@V?$allocator@UFS_File@@@std@@@std@@SAXAAV?$allocator@UFS_File@@@1@PAUFS_File@@$$QAU3@@Z 0051be10 f i fs.obj
 0001:0011ae60       ??$construct@UFileCacheS@@AAU1@@?$_Wrap_alloc@V?$allocator@UFileCacheS@@@std@@@std@@QAEXPAUFileCacheS@@AAU2@@Z 0051be60 f i fs.obj
 0001:0011ae80       ??$construct@UFileCacheS@@AAU1@@?$allocator@UFileCacheS@@@std@@QAEXPAUFileCacheS@@AAU2@@Z 0051be80 f i fs.obj
 0001:0011aea0       ??$construct@UFileCacheS@@AAU1@@?$allocator_traits@V?$allocator@UFileCacheS@@@std@@@std@@SAXAAV?$allocator@UFileCacheS@@@1@PAUFileCacheS@@AAU3@@Z 0051bea0 f i fs.obj
 0001:0011aec0       ??$construct@UFileCacheS@@ABU1@@?$_Wrap_alloc@V?$allocator@UFileCacheS@@@std@@@std@@QAEXPAUFileCacheS@@ABU2@@Z 0051bec0 f i fs.obj
 0001:0011aee0       ??$construct@UFileCacheS@@ABU1@@?$allocator_traits@V?$allocator@UFileCacheS@@@std@@@std@@SAXAAV?$allocator@UFileCacheS@@@1@PAUFileCacheS@@ABU3@@Z 0051bee0 f i fs.obj
 0001:0011af00       ??$construct@UFileCacheS@@U1@@?$_Wrap_alloc@V?$allocator@UFileCacheS@@@std@@@std@@QAEXPAUFileCacheS@@$$QAU2@@Z 0051bf00 f i fs.obj
 0001:0011af20       ??$construct@UFileCacheS@@U1@@?$allocator@UFileCacheS@@@std@@QAEXPAUFileCacheS@@$$QAU2@@Z 0051bf20 f i fs.obj
 0001:0011af40       ??$construct@UFileCacheS@@U1@@?$allocator_traits@V?$allocator@UFileCacheS@@@std@@@std@@SAXAAV?$allocator@UFileCacheS@@@1@PAUFileCacheS@@$$QAU3@@Z 0051bf40 f i fs.obj
 0001:0011af60       ??$destroy@UFS_File@@@?$_Wrap_alloc@V?$allocator@UFS_File@@@std@@@std@@QAEXPAUFS_File@@@Z 0051bf60 f i fs.obj
 0001:0011af70       ??$destroy@UFS_File@@@?$allocator@UFS_File@@@std@@QAEXPAUFS_File@@@Z 0051bf70 f i fs.obj
 0001:0011af80       ??$destroy@UFS_File@@@?$allocator_traits@V?$allocator@UFS_File@@@std@@@std@@SAXAAV?$allocator@UFS_File@@@1@PAUFS_File@@@Z 0051bf80 f i fs.obj
 0001:0011af90       ??$destroy@UFileCacheS@@@?$_Wrap_alloc@V?$allocator@UFileCacheS@@@std@@@std@@QAEXPAUFileCacheS@@@Z 0051bf90 f i fs.obj
 0001:0011afa0       ??$destroy@UFileCacheS@@@?$allocator@UFileCacheS@@@std@@QAEXPAUFileCacheS@@@Z 0051bfa0 f i fs.obj
 0001:0011afb0       ??$destroy@UFileCacheS@@@?$allocator_traits@V?$allocator@UFileCacheS@@@std@@@std@@SAXAAV?$allocator@UFileCacheS@@@1@PAUFileCacheS@@@Z 0051bfb0 f i fs.obj
 0001:0011afc0       ??$forward@AAUFS_File@@@std@@YAAAUFS_File@@AAU1@@Z 0051bfc0 f i fs.obj
 0001:0011afd0       ??$forward@AAUFileCacheS@@@std@@YAAAUFileCacheS@@AAU1@@Z 0051bfd0 f i fs.obj
 0001:0011afe0       ??$forward@ABUFS_File@@@std@@YAABUFS_File@@ABU1@@Z 0051bfe0 f i fs.obj
 0001:0011aff0       ??$forward@ABUFileCacheS@@@std@@YAABUFileCacheS@@ABU1@@Z 0051bff0 f i fs.obj
 0001:0011b000       ??$forward@UFS_File@@@std@@YA$$QAUFS_File@@AAU1@@Z 0051c000 f i fs.obj
 0001:0011b010       ??$forward@UFileCacheS@@@std@@YA$$QAUFileCacheS@@AAU1@@Z 0051c010 f i fs.obj
 0001:0011b020       ??0?$_Vector_alloc@$0A@U?$_Vec_base_types@UFS_File@@V?$allocator@UFS_File@@@std@@@std@@@std@@QAE@ABV?$allocator@UFS_File@@@1@@Z 0051c020 f i fs.obj
 0001:0011b040       ??0?$_Vector_alloc@$0A@U?$_Vec_base_types@UFileCacheS@@V?$allocator@UFileCacheS@@@std@@@std@@@std@@QAE@ABV?$allocator@UFileCacheS@@@1@@Z 0051c040 f i fs.obj
 0001:0011b060       ??0?$_Vector_const_iterator@V?$_Vector_val@U?$_Simple_types@UCompareOption@@@std@@@std@@@std@@QAE@PAUCompareOption@@PBU_Container_base0@1@@Z 0051c060 f i fs.obj
 0001:0011b070       ??0?$_Vector_const_iterator@V?$_Vector_val@U?$_Simple_types@UFileCacheS@@@std@@@std@@@std@@QAE@PAUFileCacheS@@PBU_Container_base0@1@@Z 0051c070 f i fs.obj
 0001:0011b080       ??0?$_Vector_iterator@V?$_Vector_val@U?$_Simple_types@UCompareOption@@@std@@@std@@@std@@QAE@PAUCompareOption@@PBU_Container_base0@1@@Z 0051c080 f i fs.obj
 0001:0011b090       ??0?$_Vector_iterator@V?$_Vector_val@U?$_Simple_types@UFileCacheS@@@std@@@std@@@std@@QAE@PAUFileCacheS@@PBU_Container_base0@1@@Z 0051c090 f i fs.obj
 0001:0011b0a0       ??0?$_Vector_val@U?$_Simple_types@UFS_File@@@std@@@std@@QAE@XZ 0051c0a0 f i fs.obj
 0001:0011b0c0       ??0?$_Vector_val@U?$_Simple_types@UFileCacheS@@@std@@@std@@QAE@XZ 0051c0c0 f i fs.obj
 0001:0011b0e0       ??0?$_Wrap_alloc@V?$allocator@D@std@@@std@@QAE@ABV?$allocator@D@1@@Z 0051c0e0 f i fs.obj
 0001:0011b0f0       ??0?$_Wrap_alloc@V?$allocator@UFS_File@@@std@@@std@@QAE@XZ 0051c0f0 f i fs.obj
 0001:0011b100       ??0?$_Wrap_alloc@V?$allocator@UFileCacheS@@@std@@@std@@QAE@XZ 0051c100 f i fs.obj
 0001:0011b110       ??0?$allocator@D@std@@QAE@ABV01@@Z 0051c110 f i fs.obj
 0001:0011b120       ??0?$allocator@UFS_File@@@std@@QAE@XZ 0051c120 f i fs.obj
 0001:0011b130       ??0?$allocator@UFileCacheS@@@std@@QAE@XZ 0051c130 f i fs.obj
 0001:0011b140       ??0?$basic_string@DU?$char_traits@D@std@@V?$allocator@D@2@@std@@QAE@ABV01@@Z 0051c140 f i fs.obj
 0001:0011b170       ??0?$basic_string@DU?$char_traits@D@std@@V?$allocator@D@2@@std@@QAE@XZ 0051c170 f i fs.obj
 0001:0011b190       ??0?$vector@UFS_File@@V?$allocator@UFS_File@@@std@@@std@@QAE@XZ 0051c190 f i fs.obj
 0001:0011b1b0       ??0?$vector@UFileCacheS@@V?$allocator@UFileCacheS@@@std@@@std@@QAE@XZ 0051c1b0 f i fs.obj
 0001:0011b1d0       ??0FS_File@@QAE@ABU0@@Z    0051c1d0 f i fs.obj
 0001:0011b300       ??0FS_File@@QAE@XZ         0051c300 f i fs.obj
 0001:0011b380       ??1?$vector@UFS_File@@V?$allocator@UFS_File@@@std@@@std@@QAE@XZ 0051c380 f i fs.obj
 0001:0011b3d0       ??1?$vector@UFileCacheS@@V?$allocator@UFileCacheS@@@std@@@std@@QAE@XZ 0051c3d0 f i fs.obj
 0001:0011b400       ??1FS_File@@QAE@XZ         0051c400 f i fs.obj
 0001:0011b4e0       ??4?$basic_string@DU?$char_traits@D@std@@V?$allocator@D@2@@std@@QAEAAV01@PBD@Z 0051c4e0 f i fs.obj
 0001:0011b520       ??C?$_Vector_iterator@V?$_Vector_val@U?$_Simple_types@UCompareOption@@@std@@@std@@@std@@QBEPAUCompareOption@@XZ 0051c520 f i fs.obj
 0001:0011b530       ??C?$_Vector_iterator@V?$_Vector_val@U?$_Simple_types@UFileCacheS@@@std@@@std@@@std@@QBEPAUFileCacheS@@XZ 0051c530 f i fs.obj
 0001:0011b540       ??D?$_Vector_const_iterator@V?$_Vector_val@U?$_Simple_types@UCompareOption@@@std@@@std@@@std@@QBEABUCompareOption@@XZ 0051c540 f i fs.obj
 0001:0011b550       ??D?$_Vector_const_iterator@V?$_Vector_val@U?$_Simple_types@UFileCacheS@@@std@@@std@@@std@@QBEABUFileCacheS@@XZ 0051c550 f i fs.obj
 0001:0011b560       ??D?$_Vector_iterator@V?$_Vector_val@U?$_Simple_types@UCompareOption@@@std@@@std@@@std@@QBEAAUCompareOption@@XZ 0051c560 f i fs.obj
 0001:0011b570       ??D?$_Vector_iterator@V?$_Vector_val@U?$_Simple_types@UFileCacheS@@@std@@@std@@@std@@QBEAAUFileCacheS@@XZ 0051c570 f i fs.obj
 0001:0011b580       ??E?$_Vector_const_iterator@V?$_Vector_val@U?$_Simple_types@UCompareOption@@@std@@@std@@@std@@QAEAAV01@XZ 0051c580 f i fs.obj
 0001:0011b590       ??E?$_Vector_const_iterator@V?$_Vector_val@U?$_Simple_types@UFileCacheS@@@std@@@std@@@std@@QAEAAV01@XZ 0051c590 f i fs.obj
 0001:0011b5a0       ??E?$_Vector_iterator@V?$_Vector_val@U?$_Simple_types@UCompareOption@@@std@@@std@@@std@@QAE?AV01@H@Z 0051c5a0 f i fs.obj
 0001:0011b5c0       ??E?$_Vector_iterator@V?$_Vector_val@U?$_Simple_types@UCompareOption@@@std@@@std@@@std@@QAEAAV01@XZ 0051c5c0 f i fs.obj
 0001:0011b5d0       ??E?$_Vector_iterator@V?$_Vector_val@U?$_Simple_types@UFileCacheS@@@std@@@std@@@std@@QAE?AV01@H@Z 0051c5d0 f i fs.obj
 0001:0011b5f0       ??E?$_Vector_iterator@V?$_Vector_val@U?$_Simple_types@UFileCacheS@@@std@@@std@@@std@@QAEAAV01@XZ 0051c5f0 f i fs.obj
 0001:0011b600       ??M?$_Vector_const_iterator@V?$_Vector_val@U?$_Simple_types@UCompareOption@@@std@@@std@@@std@@QBE_NABV01@@Z 0051c600 f i fs.obj
 0001:0011b620       ??M?$_Vector_const_iterator@V?$_Vector_val@U?$_Simple_types@UFileCacheS@@@std@@@std@@@std@@QBE_NABV01@@Z 0051c620 f i fs.obj
 0001:0011b640       ??_GFS_File@@QAEPAXI@Z     0051c640 f i fs.obj
 0001:0011b670       ?AddArchive@@YA_NAAUFS_File@@_N@Z 0051c670 f   fs.obj
 0001:0011b850       ?AddFile@@YA_NAAUFS_File@@_NPAI@Z 0051c850 f   fs.obj
 0001:0011b890       ?AllowFile@@YA_NPAUFS_File@@@Z 0051c890 f   fs.obj
 0001:0011b8b0       ?FS_CRC32@@YAIPAD@Z        0051c8b0 f   fs.obj
 0001:0011b8d0       ?FS_CheckCache@@YA_NPBDPAI@Z 0051c8d0 f   fs.obj
 0001:0011ba80       ?FS_FileMatchList@@YA_NPADAAV?$vector@UCompareOption@@V?$allocator@UCompareOption@@@std@@@std@@@Z 0051ca80 f   fs.obj
 0001:0011bb10       ?FS_FileMatchList@@YA_NPAUFS_File@@AAV?$vector@UCompareOption@@V?$allocator@UCompareOption@@@std@@@std@@@Z 0051cb10 f   fs.obj
 0001:0011bb30       ?FS_FileMatchList@@YA_NPAUFS_File@@PAXAAV?$vector@UCompareOption@@V?$allocator@UCompareOption@@@std@@@std@@@Z 0051cb30 f   fs.obj
 0001:0011c170       ?FS_FindDir@@YA_NPAD@Z     0051d170 f   fs.obj
 0001:0011c1e0       ?FS_FindFile@@YA_NPAD@Z    0051d1e0 f   fs.obj
 0001:0011c230       ?FS_FreeFile@@YAXPAUFS_File@@@Z 0051d230 f   fs.obj
 0001:0011c250       ?FS_Init@@YAXXZ            0051d250 f   fs.obj
 0001:0011c260       ?FS_LoadCache@@YA_NPAD@Z   0051d260 f   fs.obj
 0001:0011c460       ?FS_LoadFile@@YAPAEPAUFS_File@@PAI@Z 0051d460 f   fs.obj
 0001:0011c6a0       ?FS_NewFile@@YAPAUFS_File@@PAD0@Z 0051d6a0 f   fs.obj
 0001:0011c6e0       ?FS_NewFile@@YAPAUFS_File@@PAD@Z 0051d6e0 f   fs.obj
 0001:0011c720       ?FS_PrintModules@@YAXXZ    0051d720 f   fs.obj
 0001:0011c730       ?FS_SaveCache@@YAXPAD@Z    0051d730 f   fs.obj
 0001:0011c7b0       ?FS_ScanPath@@YAXPADPBD0@Z 0051d7b0 f   fs.obj
 0001:0011ca30       ?FS_SetFile@@YAXPAUFS_File@@PAD1@Z 0051da30 f   fs.obj
 0001:0011cbf0       ?FS_SetFile@@YAXPAUFS_File@@PAD@Z 0051dbf0 f   fs.obj
 0001:0011cd70       ?FS_Shutdown@@YAXXZ        0051dd70 f   fs.obj
 0001:0011cd80       ?_Adopt@_Iterator_base0@std@@QAEXPBX@Z 0051dd80 f i fs.obj
 0001:0011cd90       ?_Compat@?$_Vector_const_iterator@V?$_Vector_val@U?$_Simple_types@UCompareOption@@@std@@@std@@@std@@QBEXABV12@@Z 0051dd90 f i fs.obj
 0001:0011cda0       ?_Compat@?$_Vector_const_iterator@V?$_Vector_val@U?$_Simple_types@UFileCacheS@@@std@@@std@@@std@@QBEXABV12@@Z 0051dda0 f i fs.obj
 0001:0011cdb0       ?_Destroy@?$vector@UFS_File@@V?$allocator@UFS_File@@@std@@@std@@IAEXPAUFS_File@@0@Z 0051ddb0 f i fs.obj
 0001:0011cde0       ?_Destroy@?$vector@UFileCacheS@@V?$allocator@UFileCacheS@@@std@@@std@@IAEXPAUFileCacheS@@0@Z 0051dde0 f i fs.obj
 0001:0011cdf0       ?_Getal@?$_Vector_alloc@$0A@U?$_Vec_base_types@UFS_File@@V?$allocator@UFS_File@@@std@@@std@@@std@@QBE?AU?$_Wrap_alloc@V?$allocator@UFS_File@@@std@@@2@XZ 0051ddf0 f i fs.obj
 0001:0011ce00       ?_Getal@?$_Vector_alloc@$0A@U?$_Vec_base_types@UFileCacheS@@V?$allocator@UFileCacheS@@@std@@@std@@@std@@QBE?AU?$_Wrap_alloc@V?$allocator@UFileCacheS@@@std@@@2@XZ 0051de00 f i fs.obj
 0001:0011ce10       ?_Grow_to@?$vector@UFS_File@@V?$allocator@UFS_File@@@std@@@std@@IBEII@Z 0051de10 f i fs.obj
 0001:0011ce60       ?_Grow_to@?$vector@UFileCacheS@@V?$allocator@UFileCacheS@@@std@@@std@@IBEII@Z 0051de60 f i fs.obj
 0001:0011ceb0       ?_Inside@?$vector@UFS_File@@V?$allocator@UFS_File@@@std@@@std@@IBE_NPBUFS_File@@@Z 0051deb0 f i fs.obj
 0001:0011ced0       ?_Inside@?$vector@UFileCacheS@@V?$allocator@UFileCacheS@@@std@@@std@@IBE_NPBUFileCacheS@@@Z 0051ded0 f i fs.obj
 0001:0011cef0       ?_Orphan_range@?$vector@UFS_File@@V?$allocator@UFS_File@@@std@@@std@@IBEXPAUFS_File@@0@Z 0051def0 f i fs.obj
 0001:0011cf00       ?_Orphan_range@?$vector@UFileCacheS@@V?$allocator@UFileCacheS@@@std@@@std@@IBEXPAUFileCacheS@@0@Z 0051df00 f i fs.obj
 0001:0011cf10       ?_Reallocate@?$vector@UFS_File@@V?$allocator@UFS_File@@@std@@@std@@IAEXI@Z 0051df10 f i fs.obj
 0001:0011d020       ?_Reallocate@?$vector@UFileCacheS@@V?$allocator@UFileCacheS@@@std@@@std@@IAEXI@Z 0051e020 f i fs.obj
 0001:0011d110       ?_Reserve@?$vector@UFS_File@@V?$allocator@UFS_File@@@std@@@std@@IAEXI@Z 0051e110 f i fs.obj
 0001:0011d180       ?_Reserve@?$vector@UFileCacheS@@V?$allocator@UFileCacheS@@@std@@@std@@IAEXI@Z 0051e180 f i fs.obj
 0001:0011d230       ?_Tidy@?$vector@UFS_File@@V?$allocator@UFS_File@@@std@@@std@@IAEXXZ 0051e230 f i fs.obj
 0001:0011d280       ?_Tidy@?$vector@UFileCacheS@@V?$allocator@UFileCacheS@@@std@@@std@@IAEXXZ 0051e280 f i fs.obj
 0001:0011d2b0       ?_Unused_capacity@?$vector@UFS_File@@V?$allocator@UFS_File@@@std@@@std@@QBEIXZ 0051e2b0 f i fs.obj
 0001:0011d2d0       ?_Unused_capacity@?$vector@UFileCacheS@@V?$allocator@UFileCacheS@@@std@@@std@@QBEIXZ 0051e2d0 f i fs.obj
 0001:0011d2f0       ?_Xlen@?$vector@UFS_File@@V?$allocator@UFS_File@@@std@@@std@@IBEXXZ 0051e2f0 f i fs.obj
 0001:0011d300       ?_Xlen@?$vector@UFileCacheS@@V?$allocator@UFileCacheS@@@std@@@std@@IBEXXZ 0051e300 f i fs.obj
 0001:0011d310       ?allocate@?$_Wrap_alloc@V?$allocator@UFS_File@@@std@@@std@@QAEPAUFS_File@@I@Z 0051e310 f i fs.obj
 0001:0011d350       ?allocate@?$_Wrap_alloc@V?$allocator@UFileCacheS@@@std@@@std@@QAEPAUFileCacheS@@I@Z 0051e350 f i fs.obj
 0001:0011d390       ?allocate@?$allocator@UFS_File@@@std@@QAEPAUFS_File@@I@Z 0051e390 f i fs.obj
 0001:0011d3d0       ?allocate@?$allocator@UFileCacheS@@@std@@QAEPAUFileCacheS@@I@Z 0051e3d0 f i fs.obj
 0001:0011d410       ?append@?$basic_string@DU?$char_traits@D@std@@V?$allocator@D@2@@std@@QAEAAV12@ABV12@II@Z 0051e410 f i fs.obj
 0001:0011d4d0       ?append@?$basic_string@DU?$char_traits@D@std@@V?$allocator@D@2@@std@@QAEAAV12@PBD@Z 0051e4d0 f i fs.obj
 0001:0011d510       ?append@?$basic_string@DU?$char_traits@D@std@@V?$allocator@D@2@@std@@QAEAAV12@PBDI@Z 0051e510 f i fs.obj
 0001:0011d600       ?begin@?$vector@UCompareOption@@V?$allocator@UCompareOption@@@std@@@std@@QAE?AV?$_Vector_iterator@V?$_Vector_val@U?$_Simple_types@UCompareOption@@@std@@@std@@@2@XZ 0051e600 f i fs.obj
 0001:0011d610       ?begin@?$vector@UFileCacheS@@V?$allocator@UFileCacheS@@@std@@@std@@QAE?AV?$_Vector_iterator@V?$_Vector_val@U?$_Simple_types@UFileCacheS@@@std@@@std@@@2@XZ 0051e610 f i fs.obj
 0001:0011d620       ?c_str@?$basic_string@DU?$char_traits@D@std@@V?$allocator@D@2@@std@@QBEPBDXZ 0051e620 f i fs.obj
 0001:0011d630       ?capacity@?$vector@UFS_File@@V?$allocator@UFS_File@@@std@@@std@@QBEIXZ 0051e630 f i fs.obj
 0001:0011d650       ?capacity@?$vector@UFileCacheS@@V?$allocator@UFileCacheS@@@std@@@std@@QBEIXZ 0051e650 f i fs.obj
 0001:0011d670       ?clear@?$vector@UFileCacheS@@V?$allocator@UFileCacheS@@@std@@@std@@QAEXXZ 0051e670 f i fs.obj
 0001:0011d680       ?construct@?$allocator@UFS_File@@@std@@QAEXPAUFS_File@@ABU3@@Z 0051e680 f i fs.obj
 0001:0011d6d0       ?construct@?$allocator@UFileCacheS@@@std@@QAEXPAUFileCacheS@@ABU3@@Z 0051e6d0 f i fs.obj
 0001:0011d6f0       ?deallocate@?$_Wrap_alloc@V?$allocator@UFS_File@@@std@@@std@@QAEXPAUFS_File@@I@Z 0051e6f0 f i fs.obj
 0001:0011d710       ?deallocate@?$_Wrap_alloc@V?$allocator@UFileCacheS@@@std@@@std@@QAEXPAUFileCacheS@@I@Z 0051e710 f i fs.obj
 0001:0011d730       ?deallocate@?$allocator@UFS_File@@@std@@QAEXPAUFS_File@@I@Z 0051e730 f i fs.obj
 0001:0011d750       ?deallocate@?$allocator@UFileCacheS@@@std@@QAEXPAUFileCacheS@@I@Z 0051e750 f i fs.obj
 0001:0011d770       ?empty@?$basic_string@DU?$char_traits@D@std@@V?$allocator@D@2@@std@@QBE_NXZ 0051e770 f i fs.obj
 0001:0011d780       ?end@?$vector@UCompareOption@@V?$allocator@UCompareOption@@@std@@@std@@QAE?AV?$_Vector_iterator@V?$_Vector_val@U?$_Simple_types@UCompareOption@@@std@@@std@@@2@XZ 0051e780 f i fs.obj
 0001:0011d790       ?end@?$vector@UFileCacheS@@V?$allocator@UFileCacheS@@@std@@@std@@QAE?AV?$_Vector_iterator@V?$_Vector_val@U?$_Simple_types@UFileCacheS@@@std@@@std@@@2@XZ 0051e790 f i fs.obj
 0001:0011d7a0       ?matchpattern@@YAHPBD0_N@Z 0051e7a0 f   fs.obj
 0001:0011d7d0       ?matchpattern_with_separator@@YAHPBD0H0_N@Z 0051e7d0 f   fs.obj
 0001:0011d8d0       ?max_size@?$_Wrap_alloc@V?$allocator@UFS_File@@@std@@@std@@QBEIXZ 0051e8d0 f i fs.obj
 0001:0011d8e0       ?max_size@?$_Wrap_alloc@V?$allocator@UFileCacheS@@@std@@@std@@QBEIXZ 0051e8e0 f i fs.obj
 0001:0011d8f0       ?max_size@?$allocator@UFS_File@@@std@@QBEIXZ 0051e8f0 f i fs.obj
 0001:0011d900       ?max_size@?$allocator@UFileCacheS@@@std@@QBEIXZ 0051e900 f i fs.obj
 0001:0011d910       ?max_size@?$allocator_traits@V?$allocator@UFS_File@@@std@@@std@@SAIABV?$allocator@UFS_File@@@2@@Z 0051e910 f i fs.obj
 0001:0011d920       ?max_size@?$allocator_traits@V?$allocator@UFileCacheS@@@std@@@std@@SAIABV?$allocator@UFileCacheS@@@2@@Z 0051e920 f i fs.obj
 0001:0011d930       ?max_size@?$vector@UFS_File@@V?$allocator@UFS_File@@@std@@@std@@QBEIXZ 0051e930 f i fs.obj
 0001:0011d940       ?max_size@?$vector@UFileCacheS@@V?$allocator@UFileCacheS@@@std@@@std@@QBEIXZ 0051e940 f i fs.obj
 0001:0011d950       ?pointer_to@?$pointer_traits@PAUCompareOption@@@std@@SAPAUCompareOption@@AAU3@@Z 0051e950 f i fs.obj
 0001:0011d960       ?pointer_to@?$pointer_traits@PAUFileCacheS@@@std@@SAPAUFileCacheS@@AAU3@@Z 0051e960 f i fs.obj
 0001:0011d970       ?push_back@?$vector@UFS_File@@V?$allocator@UFS_File@@@std@@@std@@QAEXABUFS_File@@@Z 0051e970 f i fs.obj
 0001:0011da30       ?push_back@?$vector@UFileCacheS@@V?$allocator@UFileCacheS@@@std@@@std@@QAEXABUFileCacheS@@@Z 0051ea30 f i fs.obj
 0001:0011dac0       ?select_on_container_copy_construction@?$_Wrap_alloc@V?$allocator@D@std@@@std@@QBE?AU12@XZ 0051eac0 f i fs.obj
 0001:0011dad0       ?select_on_container_copy_construction@?$allocator@D@std@@QBE?AV12@XZ 0051ead0 f i fs.obj
 0001:0011dae0       ?select_on_container_copy_construction@?$allocator_traits@V?$allocator@D@std@@@std@@SA?AV?$allocator@D@2@ABV32@@Z 0051eae0 f i fs.obj
 0001:0011daf0       ?size@?$vector@UFS_File@@V?$allocator@UFS_File@@@std@@@std@@QBEIXZ 0051eaf0 f i fs.obj
 0001:0011db10       ?size@?$vector@UFileCacheS@@V?$allocator@UFileCacheS@@@std@@@std@@QBEIXZ 0051eb10 f i fs.obj
 0001:0011db30       ?strstr@@YAPADPADPBD@Z     0051eb30 f i fs.obj
 0001:0011db40       ?ClearImage@@YAXPAULoadedImage_s@@@Z 0051eb40 f   image.obj
 0001:0011db90       ?FreeImageBitmap@@YAXPAULoadedImage_s@@@Z 0051eb90 f   image.obj
 0001:0011dbc0       ?FreeImageErrorHandler@@YAXW4FREE_IMAGE_FORMAT@@PBD@Z 0051ebc0 f   image.obj
 0001:0011dbd0       ?FreeImageMaps@@YAXPAULoadedImage_s@@@Z 0051ebd0 f   image.obj
 0001:0011dc30       ?ImageData_ConvertSRGB@@YAXPAEHHHH_N1@Z 0051ec30 f   image.obj
 0001:0011e080       ?ImageData_ProbeLinearToSRGB_16bit@@YA_NPAEHHHH_N@Z 0051f080 f   image.obj
 0001:0011e230       ?ImageData_SwapRB@@YAXPAEHHHH@Z 0051f230 f   image.obj
 0001:0011e280       ?Image_CalcAverageColor@@YAXPAULoadedImage_s@@@Z 0051f280 f   image.obj
 0001:0011e480       ?Image_Changed@@YA_NPAULoadedImage_s@@@Z 0051f480 f   image.obj
 0001:0011e4d0       ?Image_ConvertBPP@@YAXPAULoadedImage_s@@H@Z 0051f4d0 f   image.obj
 0001:0011e540       ?Image_ConvertSRGB@@YAXPAULoadedImage_s@@_N@Z 0051f540 f   image.obj
 0001:0011e590       ?Image_Create@@YAPAULoadedImage_s@@XZ 0051f590 f   image.obj
 0001:0011e600       ?Image_Delete@@YAXPAULoadedImage_s@@@Z 0051f600 f   image.obj
 0001:0011e620       ?Image_ExportTarga@@YAPAEPAULoadedImage_s@@PAI@Z 0051f620 f   image.obj
 0001:0011e6a0       ?Image_ExportTarga@@YA_NPAULoadedImage_s@@PAD@Z 0051f6a0 f   image.obj
 0001:0011e700       ?Image_FreeMaps@@YAXPAULoadedImage_s@@@Z 0051f700 f   image.obj
 0001:0011e720       ?Image_FreeUnalignedData@@YAXPAE_N@Z 0051f720 f   image.obj
 0001:0011e730       ?Image_Generate@@YAXPAULoadedImage_s@@HHH@Z 0051f730 f   image.obj
 0001:0011e780       ?Image_GenerateTarga@@YAPAEPAIHHHPAE_N22@Z 0051f780 f   image.obj
 0001:0011e990       ?Image_GetData@@YAPAEPAULoadedImage_s@@PAIPAH@Z 0051f990 f   image.obj
 0001:0011ea30       ?Image_GetUnalignedData@@YAPAEPAULoadedImage_s@@PAIPA_N_N@Z 0051fa30 f   image.obj
 0001:0011ea60       ?Image_Init@@YAXXZ         0051fa60 f   image.obj
 0001:0011eaa0       ?Image_Load@@YAXPAUFS_File@@PAULoadedImage_s@@@Z 0051faa0 f   image.obj
 0001:0011eb70       ?Image_LoadFinish@@YAXPAULoadedImage_s@@@Z 0051fb70 f   image.obj
 0001:0011ed00       ?Image_MakeAlphaBinary@@YAXPAULoadedImage_s@@H@Z 0051fd00 f   image.obj
 0001:0011ed70       ?Image_MakeDimensions@@YAXPAULoadedImage_s@@_N1@Z 0051fd70 f   image.obj
 0001:0011ee20       ?Image_PrintModules@@YAXXZ 0051fe20 f   image.obj
 0001:0011ee40       ?Image_Save@@YA_NPAULoadedImage_s@@PAD@Z 0051fe40 f   image.obj
 0001:0011ee60       ?Image_Scale2x@@YAXPAULoadedImage_s@@H@Z 0051fe60 f   image.obj
 0001:0011ef90       ?Image_Scale2x_Super2x@@YAXPAULoadedImage_s@@_N@Z 0051ff90 f   image.obj
 0001:0011f2c0       ?Image_ScaleBy2@@YAXPAULoadedImage_s@@W4ImageScaler@@_N@Z 005202c0 f   image.obj
 0001:0011f3b0       ?Image_ScaleBy4@@YAXPAULoadedImage_s@@W4ImageScaler@@1_N@Z 005203b0 f   image.obj
 0001:0011f410       ?Image_ScalexBR@@YAXPAULoadedImage_s@@H@Z 00520410 f   image.obj
 0001:0011f680       ?Image_ScalexBR_Super2x@@YAXPAULoadedImage_s@@_N@Z 00520680 f   image.obj
 0001:0011f760       ?Image_SetAlpha@@YAXPAULoadedImage_s@@E@Z 00520760 f   image.obj
 0001:0011f800       ?Image_Shutdown@@YAXXZ     00520800 f   image.obj
 0001:0011f810       ?Image_StoreUnalignedData@@YAXPAULoadedImage_s@@PAEI@Z 00520810 f   image.obj
 0001:0011f840       ?Image_SwapColors@@YAXPAULoadedImage_s@@_N@Z 00520840 f   image.obj
 0001:0011f880       ?Image_Unload@@YAXPAULoadedImage_s@@@Z 00520880 f   image.obj
 0001:0011f940       ?LoadImage_Generic@@YAXPAUFS_File@@PAEIPAULoadedImage_s@@@Z 00520940 f   image.obj
 0001:0011f980       ?LoadImage_QuakeBSP@@YAXPAUFS_File@@PAEIPAULoadedImage_s@@@Z 00520980 f   image.obj
 0001:0011fb00       ?LoadImage_QuakeSprite@@YAXPAUFS_File@@PAEIPAULoadedImage_s@@@Z 00520b00 f   image.obj
 0001:0011fcb0       ?NextPowerOfTwo@@YAHH@Z    00520cb0 f   image.obj
 0001:0011fcf0       ?omnilib_error@@YAXPAD@Z   00520cf0 f   image.obj
 0001:0011fd00       ?omnilib_free@@YAXPAXPADH@Z 00520d00 f   image.obj
 0001:0011fd20       ?omnilib_malloc@@YAPAXIPADH@Z 00520d20 f   image.obj
 0001:0011fd30       ?omnilib_print_message@@YAXHPAD@Z 00520d30 f   image.obj
 0001:0011fd70       ?omnilib_realloc@@YAPAXPAXIPADH@Z 00520d70 f   image.obj
 0001:0011fd80       ?pow@@YAMMM@Z              00520d80 f i image.obj
 0001:0011fdb0       ?Help@@YAHXZ               00520db0 f   main.obj
 0001:0011fde0       ?PrintModules@@YAHXZ       00520de0 f   main.obj
 0001:0011fe30       _main                      00520e30 f   main.obj
 0001:001201f0       ??$_Allocate@UCompareOption@@@std@@YAPAUCompareOption@@IPAU1@@Z 005211f0 f i options.obj
 0001:00120230       ??$_Rechecked@PAUCompareOption@@PAU1@@std@@YAAAPAUCompareOption@@AAPAU1@PAU1@@Z 00521230 f i options.obj
 0001:00120240       ??$_Umove@PAUCompareOption@@@?$vector@UCompareOption@@V?$allocator@UCompareOption@@@std@@@std@@IAEPAUCompareOption@@PAU2@00@Z 00521240 f i options.obj
 0001:00120270       ??$_Unchecked@PAUCompareOption@@@std@@YAPAUCompareOption@@PAU1@@Z 00521270 f i options.obj
 0001:00120280       ??$_Uninit_move@PAUCompareOption@@PAU1@U?$_Wrap_alloc@V?$allocator@UCompareOption@@@std@@@std@@@std@@YAPAUCompareOption@@PAU1@00AAU?$_Wrap_alloc@V?$allocator@UCompareOption@@@std@@@0@@Z 00521280 f i options.obj
 0001:001202b0       ??$_Uninit_move@PAUCompareOption@@PAU1@V?$allocator@UCompareOption@@@std@@U1@@std@@YAPAUCompareOption@@PAU1@00AAU?$_Wrap_alloc@V?$allocator@UCompareOption@@@std@@@0@0U_Nonscalar_ptr_iterator_tag@0@@Z 005212b0 f i options.obj
 0001:00120390       ??$_Uninitialized_move@PAUCompareOption@@PAU1@U?$_Wrap_alloc@V?$allocator@UCompareOption@@@std@@@std@@@std@@YAPAUCompareOption@@PAU1@00AAU?$_Wrap_alloc@V?$allocator@UCompareOption@@@std@@@0@@Z 00521390 f i options.obj
 0001:001203b0       ??$_Val_type@PAUCompareOption@@@std@@YAPAUCompareOption@@PAU1@@Z 005213b0 f i options.obj
 0001:001203c0       ??$addressof@$$CBUCompareOption@@@std@@YAPBUCompareOption@@ABU1@@Z 005213c0 f i options.obj
 0001:001203d0       ??$construct@UCompareOption@@AAU1@@?$_Wrap_alloc@V?$allocator@UCompareOption@@@std@@@std@@QAEXPAUCompareOption@@AAU2@@Z 005213d0 f i options.obj
 0001:00120460       ??$construct@UCompareOption@@AAU1@@?$allocator@UCompareOption@@@std@@QAEXPAUCompareOption@@AAU2@@Z 00521460 f i options.obj
 0001:001204f0       ??$construct@UCompareOption@@AAU1@@?$allocator_traits@V?$allocator@UCompareOption@@@std@@@std@@SAXAAV?$allocator@UCompareOption@@@1@PAUCompareOption@@AAU3@@Z 005214f0 f i options.obj
 0001:00120580       ??$construct@UCompareOption@@ABU1@@?$_Wrap_alloc@V?$allocator@UCompareOption@@@std@@@std@@QAEXPAUCompareOption@@ABU2@@Z 00521580 f i options.obj
 0001:00120610       ??$construct@UCompareOption@@ABU1@@?$allocator_traits@V?$allocator@UCompareOption@@@std@@@std@@SAXAAV?$allocator@UCompareOption@@@1@PAUCompareOption@@ABU3@@Z 00521610 f i options.obj
 0001:001206a0       ??$construct@UCompareOption@@U1@@?$_Wrap_alloc@V?$allocator@UCompareOption@@@std@@@std@@QAEXPAUCompareOption@@$$QAU2@@Z 005216a0 f i options.obj
 0001:00120730       ??$construct@UCompareOption@@U1@@?$allocator@UCompareOption@@@std@@QAEXPAUCompareOption@@$$QAU2@@Z 00521730 f i options.obj
 0001:001207c0       ??$construct@UCompareOption@@U1@@?$allocator_traits@V?$allocator@UCompareOption@@@std@@@std@@SAXAAV?$allocator@UCompareOption@@@1@PAUCompareOption@@$$QAU3@@Z 005217c0 f i options.obj
 0001:00120850       ??$forward@AAUCompareOption@@@std@@YAAAUCompareOption@@AAU1@@Z 00521850 f i options.obj
 0001:00120860       ??$forward@ABUCompareOption@@@std@@YAABUCompareOption@@ABU1@@Z 00521860 f i options.obj
 0001:00120870       ??$forward@UCompareOption@@@std@@YA$$QAUCompareOption@@AAU1@@Z 00521870 f i options.obj
 0001:00120880       ??0CompareOption@@QAE@ABU0@@Z 00521880 f i options.obj
 0001:00120910       ??0CompareOption@@QAE@XZ   00521910 f i options.obj
 0001:00120940       ?LoadOptions@@YAXPAD@Z     00521940 f   options.obj
 0001:00120d80       ?OptionBoolean@@YA_NPBD@Z  00521d80 f   options.obj
 0001:00120e00       ?OptionEnum@@YAHPBDPAUOptionList@@@Z 00521e00 f   options.obj
 0001:00120e40       ?OptionEnum@@YAHPBDPAUOptionList@@H0@Z 00521e40 f   options.obj
 0001:00120e90       ?OptionEnum@@YAHPBDPAUOptionList@@H@Z 00521e90 f   options.obj
 0001:00120ed0       ?OptionEnumName@@YAPADHPAUOptionList@@@Z 00521ed0 f   options.obj
 0001:00120f00       ?OptionEnumName@@YAPADHPAUOptionList@@PAD@Z 00521f00 f   options.obj
 0001:00120f30       ?OptionEnumName@@YAPADHPAUOptionList@@PADPBD@Z 00521f30 f   options.obj
 0001:00120f70       ?OptionFCList@@YA_NPAV?$vector@UCompareOption@@V?$allocator@UCompareOption@@@std@@@std@@PBD1@Z 00521f70 f   options.obj
 0001:001211d0       ?_Grow_to@?$vector@UCompareOption@@V?$allocator@UCompareOption@@@std@@@std@@IBEII@Z 005221d0 f i options.obj
 0001:00121220       ?_Inside@?$vector@UCompareOption@@V?$allocator@UCompareOption@@@std@@@std@@IBE_NPBUCompareOption@@@Z 00522220 f i options.obj
 0001:00121240       ?_Orphan_range@?$vector@UCompareOption@@V?$allocator@UCompareOption@@@std@@@std@@IBEXPAUCompareOption@@0@Z 00522240 f i options.obj
 0001:00121250       ?_Reallocate@?$vector@UCompareOption@@V?$allocator@UCompareOption@@@std@@@std@@IAEXI@Z 00522250 f i options.obj
 0001:00121350       ?_Reserve@?$vector@UCompareOption@@V?$allocator@UCompareOption@@@std@@@std@@IAEXI@Z 00522350 f i options.obj
 0001:00121400       ?_Unused_capacity@?$vector@UCompareOption@@V?$allocator@UCompareOption@@@std@@@std@@QBEIXZ 00522400 f i options.obj
 0001:00121420       ?_Xlen@?$vector@UCompareOption@@V?$allocator@UCompareOption@@@std@@@std@@IBEXXZ 00522420 f i options.obj
 0001:00121430       ?allocate@?$_Wrap_alloc@V?$allocator@UCompareOption@@@std@@@std@@QAEPAUCompareOption@@I@Z 00522430 f i options.obj
 0001:00121470       ?allocate@?$allocator@UCompareOption@@@std@@QAEPAUCompareOption@@I@Z 00522470 f i options.obj
 0001:001214b0       ?capacity@?$vector@UCompareOption@@V?$allocator@UCompareOption@@@std@@@std@@QBEIXZ 005224b0 f i options.obj
 0001:001214d0       ?construct@?$allocator@UCompareOption@@@std@@QAEXPAUCompareOption@@ABU3@@Z 005224d0 f i options.obj
 0001:00121560       ?max_size@?$_Wrap_alloc@V?$allocator@UCompareOption@@@std@@@std@@QBEIXZ 00522560 f i options.obj
 0001:00121570       ?max_size@?$allocator@UCompareOption@@@std@@QBEIXZ 00522570 f i options.obj
 0001:00121580       ?max_size@?$allocator_traits@V?$allocator@UCompareOption@@@std@@@std@@SAIABV?$allocator@UCompareOption@@@2@@Z 00522580 f i options.obj
 0001:00121590       ?max_size@?$vector@UCompareOption@@V?$allocator@UCompareOption@@@std@@@std@@QBEIXZ 00522590 f i options.obj
 0001:001215a0       ?push_back@?$vector@UCompareOption@@V?$allocator@UCompareOption@@@std@@@std@@QAEXABUCompareOption@@@Z 005225a0 f i options.obj
 0001:00121620       ?size@?$vector@UCompareOption@@V?$allocator@UCompareOption@@@std@@@std@@QBEIXZ 00522620 f i options.obj
 0001:00121640       ?sxCheck@@YAHIEII@Z        00522640 f   scale2x.obj
 0001:001216c0       ?sxErrorString@@YAPADH@Z   005226c0 f   scale2x.obj
 0001:00121710       ?sxScale@@YAXIPAXIPBXIEII@Z 00522710 f   scale2x.obj
 0001:001218e0       _scale2x                   005228e0 f   scale2x.obj
 0001:00121a10       _scale2x3                  00522a10 f   scale2x.obj
 0001:00121af0       _scale2x3_16_def           00522af0 f   scale2x.obj
 0001:00121b40       _scale2x3_32_def           00522b40 f   scale2x.obj
 0001:00121b90       _scale2x3_8_def            00522b90 f   scale2x.obj
 0001:00121be0       _scale2x4                  00522be0 f   scale2x.obj
 0001:00121ce0       _scale2x4_16_def           00522ce0 f   scale2x.obj
 0001:00121d30       _scale2x4_32_def           00522d30 f   scale2x.obj
 0001:00121d80       _scale2x4_8_def            00522d80 f   scale2x.obj
 0001:00121dd0       _scale2x_16_def            00522dd0 f   scale2x.obj
 0001:00121e00       _scale2x_16_def_border     00522e00 f   scale2x.obj
 0001:00121f20       _scale2x_16_def_center     00522f20 f   scale2x.obj
 0001:00122090       _scale2x_16_def_whole      00523090 f   scale2x.obj
 0001:00122240       _scale2x_32_def            00523240 f   scale2x.obj
 0001:00122270       _scale2x_32_def_border     00523270 f   scale2x.obj
 0001:00122360       _scale2x_32_def_center     00523360 f   scale2x.obj
 0001:00122490       _scale2x_32_def_whole      00523490 f   scale2x.obj
 0001:001225f0       _scale2x_8_def             005235f0 f   scale2x.obj
 0001:00122620       _scale2x_8_def_border      00523620 f   scale2x.obj
 0001:00122710       _scale2x_8_def_center      00523710 f   scale2x.obj
 0001:00122840       _scale2x_8_def_whole       00523840 f   scale2x.obj
 0001:001229d0       _scale3x                   005239d0 f   scale2x.obj
 0001:00122ab0       _scale3x_16_def            00523ab0 f   scale2x.obj
 0001:00122b00       _scale3x_16_def_border     00523b00 f   scale2x.obj
 0001:00122ca0       _scale3x_16_def_center     00523ca0 f   scale2x.obj
 0001:00122e50       _scale3x_16_def_whole      00523e50 f   scale2x.obj
 0001:00123260       _scale3x_32_def            00524260 f   scale2x.obj
 0001:001232b0       _scale3x_32_def_border     005242b0 f   scale2x.obj
 0001:001233f0       _scale3x_32_def_center     005243f0 f   scale2x.obj
 0001:00123540       _scale3x_32_def_whole      00524540 f   scale2x.obj
 0001:00123860       _scale3x_8_def             00524860 f   scale2x.obj
 0001:001238b0       _scale3x_8_def_border      005248b0 f   scale2x.obj
 0001:001239f0       _scale3x_8_def_center      005249f0 f   scale2x.obj
 0001:00123b30       _scale3x_8_def_whole       00524b30 f   scale2x.obj
 0001:00123e40       _scale4x                   00524e40 f   scale2x.obj
 0001:00123ea0       _scale4x_buf               00524ea0 f   scale2x.obj
 0001:00124170       _stage_scale2x             00525170 f   scale2x.obj
 0001:00124210       _stage_scale2x3            00525210 f   scale2x.obj
 0001:001242e0       _stage_scale2x4            005252e0 f   scale2x.obj
 0001:001243e0       _stage_scale3x             005253e0 f   scale2x.obj
 0001:001244b0       _stage_scale4x             005254b0 f   scale2x.obj
 0001:00124500       ??$_Fill@PAEH@std@@YAXPAE0ABH@Z 00525500 f i scalexbr.obj
 0001:00124540       ??$_Unchecked@PAE@std@@YAPAEPAE@Z 00525540 f i scalexbr.obj
 0001:00124550       ??$alphaBlend@$00$01@xbrz@@YAXAAIIABUScalerCfg_s@0@@Z 00525550 f i scalexbr.obj
 0001:001247b0       ??$alphaBlend@$00$02@xbrz@@YAXAAIIABUScalerCfg_s@0@@Z 005257b0 f i scalexbr.obj
 0001:001249f0       ??$alphaBlend@$00$03@xbrz@@YAXAAIIABUScalerCfg_s@0@@Z 005259f0 f i scalexbr.obj
 0001:00124c30       ??$alphaBlend@$00$07@xbrz@@YAXAAIIABUScalerCfg_s@0@@Z 00525c30 f i scalexbr.obj
 0001:00124e70       ??$alphaBlend@$01$02@xbrz@@YAXAAIIABUScalerCfg_s@0@@Z 00525e70 f i scalexbr.obj
 0001:001250e0       ??$alphaBlend@$02$03@xbrz@@YAXAAIIABUScalerCfg_s@0@@Z 005260e0 f i scalexbr.obj
 0001:00125340       ??$alphaBlend@$04$05@xbrz@@YAXAAIIABUScalerCfg_s@0@@Z 00526340 f i scalexbr.obj
 0001:001255b0       ??$alphaBlend@$06$07@xbrz@@YAXAAIIABUScalerCfg_s@0@@Z 005265b0 f i scalexbr.obj
 0001:00125810       ??$alphaBlend@$08$0GE@@xbrz@@YAXAAIIABUScalerCfg_s@0@@Z 00526810 f i scalexbr.obj
 0001:00125a50       ??$alphaBlend@$0BF@$0GE@@xbrz@@YAXAAIIABUScalerCfg_s@0@@Z 00526a50 f i scalexbr.obj
 0001:00125c90       ??$alphaBlend@$0BH@$0GE@@xbrz@@YAXAAIIABUScalerCfg_s@0@@Z 00526c90 f i scalexbr.obj
 0001:00125ed0       ??$alphaBlend@$0CN@$0GE@@xbrz@@YAXAAIIABUScalerCfg_s@0@@Z 00526ed0 f i scalexbr.obj
 0001:00126110       ??$alphaBlend@$0EE@$0GE@@xbrz@@YAXAAIIABUScalerCfg_s@0@@Z 00527110 f i scalexbr.obj
 0001:00126380       ??$alphaBlend@$0FG@$0GE@@xbrz@@YAXAAIIABUScalerCfg_s@0@@Z 00527380 f i scalexbr.obj
 0001:001265f0       ??$blendCorner@V?$OutputMatrix@$01$00@xbrz@@@Scaler2x@xbrz@@SAXIAAV?$OutputMatrix@$01$00@1@ABUScalerCfg_s@1@@Z 005275f0 f i scalexbr.obj
 0001:00126610       ??$blendCorner@V?$OutputMatrix@$01$01@xbrz@@@Scaler2x@xbrz@@SAXIAAV?$OutputMatrix@$01$01@1@ABUScalerCfg_s@1@@Z 00527610 f i scalexbr.obj
 0001:00126630       ??$blendCorner@V?$OutputMatrix@$01$02@xbrz@@@Scaler2x@xbrz@@SAXIAAV?$OutputMatrix@$01$02@1@ABUScalerCfg_s@1@@Z 00527630 f i scalexbr.obj
 0001:00126650       ??$blendCorner@V?$OutputMatrix@$01$0A@@xbrz@@@Scaler2x@xbrz@@SAXIAAV?$OutputMatrix@$01$0A@@1@ABUScalerCfg_s@1@@Z 00527650 f i scalexbr.obj
 0001:00126680       ??$blendCorner@V?$OutputMatrix@$02$00@xbrz@@@Scaler3x@xbrz@@SAXIAAV?$OutputMatrix@$02$00@1@ABUScalerCfg_s@1@@Z 00527680 f i scalexbr.obj
 0001:001266a0       ??$blendCorner@V?$OutputMatrix@$02$01@xbrz@@@Scaler3x@xbrz@@SAXIAAV?$OutputMatrix@$02$01@1@ABUScalerCfg_s@1@@Z 005276a0 f i scalexbr.obj
 0001:001266c0       ??$blendCorner@V?$OutputMatrix@$02$02@xbrz@@@Scaler3x@xbrz@@SAXIAAV?$OutputMatrix@$02$02@1@ABUScalerCfg_s@1@@Z 005276c0 f i scalexbr.obj
 0001:001266e0       ??$blendCorner@V?$OutputMatrix@$02$0A@@xbrz@@@Scaler3x@xbrz@@SAXIAAV?$OutputMatrix@$02$0A@@1@ABUScalerCfg_s@1@@Z 005276e0 f i scalexbr.obj
 0001:00126710       ??$blendCorner@V?$OutputMatrix@$03$00@xbrz@@@Scaler4x@xbrz@@SAXIAAV?$OutputMatrix@$03$00@1@ABUScalerCfg_s@1@@Z 00527710 f i scalexbr.obj
 0001:00126760       ??$blendCorner@V?$OutputMatrix@$03$01@xbrz@@@Scaler4x@xbrz@@SAXIAAV?$OutputMatrix@$03$01@1@ABUScalerCfg_s@1@@Z 00527760 f i scalexbr.obj
 0001:001267a0       ??$blendCorner@V?$OutputMatrix@$03$02@xbrz@@@Scaler4x@xbrz@@SAXIAAV?$OutputMatrix@$03$02@1@ABUScalerCfg_s@1@@Z 005277a0 f i scalexbr.obj
 0001:001267f0       ??$blendCorner@V?$OutputMatrix@$03$0A@@xbrz@@@Scaler4x@xbrz@@SAXIAAV?$OutputMatrix@$03$0A@@1@ABUScalerCfg_s@1@@Z 005277f0 f i scalexbr.obj
 0001:00126850       ??$blendCorner@V?$OutputMatrix@$04$00@xbrz@@@Scaler5x@xbrz@@SAXIAAV?$OutputMatrix@$04$00@1@ABUScalerCfg_s@1@@Z 00527850 f i scalexbr.obj
 0001:001268a0       ??$blendCorner@V?$OutputMatrix@$04$01@xbrz@@@Scaler5x@xbrz@@SAXIAAV?$OutputMatrix@$04$01@1@ABUScalerCfg_s@1@@Z 005278a0 f i scalexbr.obj
 0001:001268e0       ??$blendCorner@V?$OutputMatrix@$04$02@xbrz@@@Scaler5x@xbrz@@SAXIAAV?$OutputMatrix@$04$02@1@ABUScalerCfg_s@1@@Z 005278e0 f i scalexbr.obj
 0001:00126930       ??$blendCorner@V?$OutputMatrix@$04$0A@@xbrz@@@Scaler5x@xbrz@@SAXIAAV?$OutputMatrix@$04$0A@@1@ABUScalerCfg_s@1@@Z 00527930 f i scalexbr.obj
 0001:00126990       ??$blendLineDiagonal@V?$OutputMatrix@$01$00@xbrz@@@Scaler2x@xbrz@@SAXIAAV?$OutputMatrix@$01$00@1@ABUScalerCfg_s@1@@Z 00527990 f i scalexbr.obj
 0001:001269b0       ??$blendLineDiagonal@V?$OutputMatrix@$01$01@xbrz@@@Scaler2x@xbrz@@SAXIAAV?$OutputMatrix@$01$01@1@ABUScalerCfg_s@1@@Z 005279b0 f i scalexbr.obj
 0001:001269d0       ??$blendLineDiagonal@V?$OutputMatrix@$01$02@xbrz@@@Scaler2x@xbrz@@SAXIAAV?$OutputMatrix@$01$02@1@ABUScalerCfg_s@1@@Z 005279d0 f i scalexbr.obj
 0001:001269f0       ??$blendLineDiagonal@V?$OutputMatrix@$01$0A@@xbrz@@@Scaler2x@xbrz@@SAXIAAV?$OutputMatrix@$01$0A@@1@ABUScalerCfg_s@1@@Z 005279f0 f i scalexbr.obj
 0001:00126a20       ??$blendLineDiagonal@V?$OutputMatrix@$02$00@xbrz@@@Scaler3x@xbrz@@SAXIAAV?$OutputMatrix@$02$00@1@ABUScalerCfg_s@1@@Z 00527a20 f i scalexbr.obj
 0001:00126a70       ??$blendLineDiagonal@V?$OutputMatrix@$02$01@xbrz@@@Scaler3x@xbrz@@SAXIAAV?$OutputMatrix@$02$01@1@ABUScalerCfg_s@1@@Z 00527a70 f i scalexbr.obj
 0001:00126ab0       ??$blendLineDiagonal@V?$OutputMatrix@$02$02@xbrz@@@Scaler3x@xbrz@@SAXIAAV?$OutputMatrix@$02$02@1@ABUScalerCfg_s@1@@Z 00527ab0 f i scalexbr.obj
 0001:00126b00       ??$blendLineDiagonal@V?$OutputMatrix@$02$0A@@xbrz@@@Scaler3x@xbrz@@SAXIAAV?$OutputMatrix@$02$0A@@1@ABUScalerCfg_s@1@@Z 00527b00 f i scalexbr.obj
 0001:00126b50       ??$blendLineDiagonal@V?$OutputMatrix@$03$00@xbrz@@@Scaler4x@xbrz@@SAXIAAV?$OutputMatrix@$03$00@1@ABUScalerCfg_s@1@@Z 00527b50 f i scalexbr.obj
 0001:00126b90       ??$blendLineDiagonal@V?$OutputMatrix@$03$01@xbrz@@@Scaler4x@xbrz@@SAXIAAV?$OutputMatrix@$03$01@1@ABUScalerCfg_s@1@@Z 00527b90 f i scalexbr.obj
 0001:00126bd0       ??$blendLineDiagonal@V?$OutputMatrix@$03$02@xbrz@@@Scaler4x@xbrz@@SAXIAAV?$OutputMatrix@$03$02@1@ABUScalerCfg_s@1@@Z 00527bd0 f i scalexbr.obj
 0001:00126c20       ??$blendLineDiagonal@V?$OutputMatrix@$03$0A@@xbrz@@@Scaler4x@xbrz@@SAXIAAV?$OutputMatrix@$03$0A@@1@ABUScalerCfg_s@1@@Z 00527c20 f i scalexbr.obj
 0001:00126c70       ??$blendLineDiagonal@V?$OutputMatrix@$04$00@xbrz@@@Scaler5x@xbrz@@SAXIAAV?$OutputMatrix@$04$00@1@ABUScalerCfg_s@1@@Z 00527c70 f i scalexbr.obj
 0001:00126ce0       ??$blendLineDiagonal@V?$OutputMatrix@$04$01@xbrz@@@Scaler5x@xbrz@@SAXIAAV?$OutputMatrix@$04$01@1@ABUScalerCfg_s@1@@Z 00527ce0 f i scalexbr.obj
 0001:00126d50       ??$blendLineDiagonal@V?$OutputMatrix@$04$02@xbrz@@@Scaler5x@xbrz@@SAXIAAV?$OutputMatrix@$04$02@1@ABUScalerCfg_s@1@@Z 00527d50 f i scalexbr.obj
 0001:00126de0       ??$blendLineDiagonal@V?$OutputMatrix@$04$0A@@xbrz@@@Scaler5x@xbrz@@SAXIAAV?$OutputMatrix@$04$0A@@1@ABUScalerCfg_s@1@@Z 00527de0 f i scalexbr.obj
 0001:00126e70       ??$blendLineShallow@V?$OutputMatrix@$01$00@xbrz@@@Scaler2x@xbrz@@SAXIAAV?$OutputMatrix@$01$00@1@ABUScalerCfg_s@1@@Z 00527e70 f i scalexbr.obj
 0001:00126eb0       ??$blendLineShallow@V?$OutputMatrix@$01$01@xbrz@@@Scaler2x@xbrz@@SAXIAAV?$OutputMatrix@$01$01@1@ABUScalerCfg_s@1@@Z 00527eb0 f i scalexbr.obj
 0001:00126ee0       ??$blendLineShallow@V?$OutputMatrix@$01$02@xbrz@@@Scaler2x@xbrz@@SAXIAAV?$OutputMatrix@$01$02@1@ABUScalerCfg_s@1@@Z 00527ee0 f i scalexbr.obj
 0001:00126f10       ??$blendLineShallow@V?$OutputMatrix@$01$0A@@xbrz@@@Scaler2x@xbrz@@SAXIAAV?$OutputMatrix@$01$0A@@1@ABUScalerCfg_s@1@@Z 00527f10 f i scalexbr.obj
 0001:00126f50       ??$blendLineShallow@V?$OutputMatrix@$02$00@xbrz@@@Scaler3x@xbrz@@SAXIAAV?$OutputMatrix@$02$00@1@ABUScalerCfg_s@1@@Z 00527f50 f i scalexbr.obj
 0001:00126fa0       ??$blendLineShallow@V?$OutputMatrix@$02$01@xbrz@@@Scaler3x@xbrz@@SAXIAAV?$OutputMatrix@$02$01@1@ABUScalerCfg_s@1@@Z 00527fa0 f i scalexbr.obj
 0001:00126ff0       ??$blendLineShallow@V?$OutputMatrix@$02$02@xbrz@@@Scaler3x@xbrz@@SAXIAAV?$OutputMatrix@$02$02@1@ABUScalerCfg_s@1@@Z 00527ff0 f i scalexbr.obj
 0001:00127040       ??$blendLineShallow@V?$OutputMatrix@$02$0A@@xbrz@@@Scaler3x@xbrz@@SAXIAAV?$OutputMatrix@$02$0A@@1@ABUScalerCfg_s@1@@Z 00528040 f i scalexbr.obj
 0001:001270a0       ??$blendLineShallow@V?$OutputMatrix@$03$00@xbrz@@@Scaler4x@xbrz@@SAXIAAV?$OutputMatrix@$03$00@1@ABUScalerCfg_s@1@@Z 005280a0 f i scalexbr.obj
 0001:00127110       ??$blendLineShallow@V?$OutputMatrix@$03$01@xbrz@@@Scaler4x@xbrz@@SAXIAAV?$OutputMatrix@$03$01@1@ABUScalerCfg_s@1@@Z 00528110 f i scalexbr.obj
 0001:00127170       ??$blendLineShallow@V?$OutputMatrix@$03$02@xbrz@@@Scaler4x@xbrz@@SAXIAAV?$OutputMatrix@$03$02@1@ABUScalerCfg_s@1@@Z 00528170 f i scalexbr.obj
 0001:001271e0       ??$blendLineShallow@V?$OutputMatrix@$03$0A@@xbrz@@@Scaler4x@xbrz@@SAXIAAV?$OutputMatrix@$03$0A@@1@ABUScalerCfg_s@1@@Z 005281e0 f i scalexbr.obj
 0001:00127260       ??$blendLineShallow@V?$OutputMatrix@$04$00@xbrz@@@Scaler5x@xbrz@@SAXIAAV?$OutputMatrix@$04$00@1@ABUScalerCfg_s@1@@Z 00528260 f i scalexbr.obj
 0001:001272f0       ??$blendLineShallow@V?$OutputMatrix@$04$01@xbrz@@@Scaler5x@xbrz@@SAXIAAV?$OutputMatrix@$04$01@1@ABUScalerCfg_s@1@@Z 005282f0 f i scalexbr.obj
 0001:00127370       ??$blendLineShallow@V?$OutputMatrix@$04$02@xbrz@@@Scaler5x@xbrz@@SAXIAAV?$OutputMatrix@$04$02@1@ABUScalerCfg_s@1@@Z 00528370 f i scalexbr.obj
 0001:00127410       ??$blendLineShallow@V?$OutputMatrix@$04$0A@@xbrz@@@Scaler5x@xbrz@@SAXIAAV?$OutputMatrix@$04$0A@@1@ABUScalerCfg_s@1@@Z 00528410 f i scalexbr.obj
 0001:001274c0       ??$blendLineSteep@V?$OutputMatrix@$01$00@xbrz@@@Scaler2x@xbrz@@SAXIAAV?$OutputMatrix@$01$00@1@ABUScalerCfg_s@1@@Z 005284c0 f i scalexbr.obj
 0001:001274f0       ??$blendLineSteep@V?$OutputMatrix@$01$01@xbrz@@@Scaler2x@xbrz@@SAXIAAV?$OutputMatrix@$01$01@1@ABUScalerCfg_s@1@@Z 005284f0 f i scalexbr.obj
 0001:00127520       ??$blendLineSteep@V?$OutputMatrix@$01$02@xbrz@@@Scaler2x@xbrz@@SAXIAAV?$OutputMatrix@$01$02@1@ABUScalerCfg_s@1@@Z 00528520 f i scalexbr.obj
 0001:00127560       ??$blendLineSteep@V?$OutputMatrix@$01$0A@@xbrz@@@Scaler2x@xbrz@@SAXIAAV?$OutputMatrix@$01$0A@@1@ABUScalerCfg_s@1@@Z 00528560 f i scalexbr.obj
 0001:001275a0       ??$blendLineSteep@V?$OutputMatrix@$02$00@xbrz@@@Scaler3x@xbrz@@SAXIAAV?$OutputMatrix@$02$00@1@ABUScalerCfg_s@1@@Z 005285a0 f i scalexbr.obj
 0001:001275f0       ??$blendLineSteep@V?$OutputMatrix@$02$01@xbrz@@@Scaler3x@xbrz@@SAXIAAV?$OutputMatrix@$02$01@1@ABUScalerCfg_s@1@@Z 005285f0 f i scalexbr.obj
 0001:00127640       ??$blendLineSteep@V?$OutputMatrix@$02$02@xbrz@@@Scaler3x@xbrz@@SAXIAAV?$OutputMatrix@$02$02@1@ABUScalerCfg_s@1@@Z 00528640 f i scalexbr.obj
 0001:001276a0       ??$blendLineSteep@V?$OutputMatrix@$02$0A@@xbrz@@@Scaler3x@xbrz@@SAXIAAV?$OutputMatrix@$02$0A@@1@ABUScalerCfg_s@1@@Z 005286a0 f i scalexbr.obj
 0001:00127700       ??$blendLineSteep@V?$OutputMatrix@$03$00@xbrz@@@Scaler4x@xbrz@@SAXIAAV?$OutputMatrix@$03$00@1@ABUScalerCfg_s@1@@Z 00528700 f i scalexbr.obj
 0001:00127760       ??$blendLineSteep@V?$OutputMatrix@$03$01@xbrz@@@Scaler4x@xbrz@@SAXIAAV?$OutputMatrix@$03$01@1@ABUScalerCfg_s@1@@Z 00528760 f i scalexbr.obj
 0001:001277d0       ??$blendLineSteep@V?$OutputMatrix@$03$02@xbrz@@@Scaler4x@xbrz@@SAXIAAV?$OutputMatrix@$03$02@1@ABUScalerCfg_s@1@@Z 005287d0 f i scalexbr.obj
 0001:00127850       ??$blendLineSteep@V?$OutputMatrix@$03$0A@@xbrz@@@Scaler4x@xbrz@@SAXIAAV?$OutputMatrix@$03$0A@@1@ABUScalerCfg_s@1@@Z 00528850 f i scalexbr.obj
 0001:001278d0       ??$blendLineSteep@V?$OutputMatrix@$04$00@xbrz@@@Scaler5x@xbrz@@SAXIAAV?$OutputMatrix@$04$00@1@ABUScalerCfg_s@1@@Z 005288d0 f i scalexbr.obj
 0001:00127950       ??$blendLineSteep@V?$OutputMatrix@$04$01@xbrz@@@Scaler5x@xbrz@@SAXIAAV?$OutputMatrix@$04$01@1@ABUScalerCfg_s@1@@Z 00528950 f i scalexbr.obj
 0001:001279e0       ??$blendLineSteep@V?$OutputMatrix@$04$02@xbrz@@@Scaler5x@xbrz@@SAXIAAV?$OutputMatrix@$04$02@1@ABUScalerCfg_s@1@@Z 005289e0 f i scalexbr.obj
 0001:00127a90       ??$blendLineSteep@V?$OutputMatrix@$04$0A@@xbrz@@@Scaler5x@xbrz@@SAXIAAV?$OutputMatrix@$04$0A@@1@ABUScalerCfg_s@1@@Z 00528a90 f i scalexbr.obj
 0001:00127b30       ??$blendLineSteepAndShallow@V?$OutputMatrix@$01$00@xbrz@@@Scaler2x@xbrz@@SAXIAAV?$OutputMatrix@$01$00@1@ABUScalerCfg_s@1@@Z 00528b30 f i scalexbr.obj
 0001:00127b70       ??$blendLineSteepAndShallow@V?$OutputMatrix@$01$01@xbrz@@@Scaler2x@xbrz@@SAXIAAV?$OutputMatrix@$01$01@1@ABUScalerCfg_s@1@@Z 00528b70 f i scalexbr.obj
 0001:00127bb0       ??$blendLineSteepAndShallow@V?$OutputMatrix@$01$02@xbrz@@@Scaler2x@xbrz@@SAXIAAV?$OutputMatrix@$01$02@1@ABUScalerCfg_s@1@@Z 00528bb0 f i scalexbr.obj
 0001:00127c00       ??$blendLineSteepAndShallow@V?$OutputMatrix@$01$0A@@xbrz@@@Scaler2x@xbrz@@SAXIAAV?$OutputMatrix@$01$0A@@1@ABUScalerCfg_s@1@@Z 00528c00 f i scalexbr.obj
 0001:00127c50       ??$blendLineSteepAndShallow@V?$OutputMatrix@$02$00@xbrz@@@Scaler3x@xbrz@@SAXIAAV?$OutputMatrix@$02$00@1@ABUScalerCfg_s@1@@Z 00528c50 f i scalexbr.obj
 0001:00127cb0       ??$blendLineSteepAndShallow@V?$OutputMatrix@$02$01@xbrz@@@Scaler3x@xbrz@@SAXIAAV?$OutputMatrix@$02$01@1@ABUScalerCfg_s@1@@Z 00528cb0 f i scalexbr.obj
 0001:00127d10       ??$blendLineSteepAndShallow@V?$OutputMatrix@$02$02@xbrz@@@Scaler3x@xbrz@@SAXIAAV?$OutputMatrix@$02$02@1@ABUScalerCfg_s@1@@Z 00528d10 f i scalexbr.obj
 0001:00127d70       ??$blendLineSteepAndShallow@V?$OutputMatrix@$02$0A@@xbrz@@@Scaler3x@xbrz@@SAXIAAV?$OutputMatrix@$02$0A@@1@ABUScalerCfg_s@1@@Z 00528d70 f i scalexbr.obj
 0001:00127de0       ??$blendLineSteepAndShallow@V?$OutputMatrix@$03$00@xbrz@@@Scaler4x@xbrz@@SAXIAAV?$OutputMatrix@$03$00@1@ABUScalerCfg_s@1@@Z 00528de0 f i scalexbr.obj
 0001:00127e60       ??$blendLineSteepAndShallow@V?$OutputMatrix@$03$01@xbrz@@@Scaler4x@xbrz@@SAXIAAV?$OutputMatrix@$03$01@1@ABUScalerCfg_s@1@@Z 00528e60 f i scalexbr.obj
 0001:00127ee0       ??$blendLineSteepAndShallow@V?$OutputMatrix@$03$02@xbrz@@@Scaler4x@xbrz@@SAXIAAV?$OutputMatrix@$03$02@1@ABUScalerCfg_s@1@@Z 00528ee0 f i scalexbr.obj
 0001:00127f70       ??$blendLineSteepAndShallow@V?$OutputMatrix@$03$0A@@xbrz@@@Scaler4x@xbrz@@SAXIAAV?$OutputMatrix@$03$0A@@1@ABUScalerCfg_s@1@@Z 00528f70 f i scalexbr.obj
 0001:00128010       ??$blendLineSteepAndShallow@V?$OutputMatrix@$04$00@xbrz@@@Scaler5x@xbrz@@SAXIAAV?$OutputMatrix@$04$00@1@ABUScalerCfg_s@1@@Z 00529010 f i scalexbr.obj
 0001:001280d0       ??$blendLineSteepAndShallow@V?$OutputMatrix@$04$01@xbrz@@@Scaler5x@xbrz@@SAXIAAV?$OutputMatrix@$04$01@1@ABUScalerCfg_s@1@@Z 005290d0 f i scalexbr.obj
 0001:00128180       ??$blendLineSteepAndShallow@V?$OutputMatrix@$04$02@xbrz@@@Scaler5x@xbrz@@SAXIAAV?$OutputMatrix@$04$02@1@ABUScalerCfg_s@1@@Z 00529180 f i scalexbr.obj
 0001:00128250       ??$blendLineSteepAndShallow@V?$OutputMatrix@$04$0A@@xbrz@@@Scaler5x@xbrz@@SAXIAAV?$OutputMatrix@$04$0A@@1@ABUScalerCfg_s@1@@Z 00529250 f i scalexbr.obj
 0001:00128330       ??$fill@PAEH@std@@YAXPAE0ABH@Z 00529330 f i scalexbr.obj
 0001:00128370       ??$getByte@$00@xbrz@@YAEI@Z 00529370 f i scalexbr.obj
 0001:00128380       ??$getByte@$01@xbrz@@YAEI@Z 00529380 f i scalexbr.obj
 0001:00128390       ??$getByte@$0A@@xbrz@@YAEI@Z 00529390 f i scalexbr.obj
 0001:001283a0       ??$get_b@$00@xbrz@@YAIABUKernel_3x3@0@@Z 005293a0 f i scalexbr.obj
 0001:001283b0       ??$get_b@$01@xbrz@@YAIABUKernel_3x3@0@@Z 005293b0 f i scalexbr.obj
 0001:001283c0       ??$get_b@$02@xbrz@@YAIABUKernel_3x3@0@@Z 005293c0 f i scalexbr.obj
 0001:001283d0       ??$get_b@$0A@@xbrz@@YAIABUKernel_3x3@0@@Z 005293d0 f i scalexbr.obj
 0001:001283e0       ??$get_c@$00@xbrz@@YAIABUKernel_3x3@0@@Z 005293e0 f i scalexbr.obj
 0001:001283f0       ??$get_c@$01@xbrz@@YAIABUKernel_3x3@0@@Z 005293f0 f i scalexbr.obj
 0001:00128400       ??$get_c@$02@xbrz@@YAIABUKernel_3x3@0@@Z 00529400 f i scalexbr.obj
 0001:00128410       ??$get_c@$0A@@xbrz@@YAIABUKernel_3x3@0@@Z 00529410 f i scalexbr.obj
 0001:00128420       ??$get_d@$00@xbrz@@YAIABUKernel_3x3@0@@Z 00529420 f i scalexbr.obj
 0001:00128430       ??$get_d@$01@xbrz@@YAIABUKernel_3x3@0@@Z 00529430 f i scalexbr.obj
 0001:00128440       ??$get_d@$02@xbrz@@YAIABUKernel_3x3@0@@Z 00529440 f i scalexbr.obj
 0001:00128450       ??$get_d@$0A@@xbrz@@YAIABUKernel_3x3@0@@Z 00529450 f i scalexbr.obj
 0001:00128460       ??$get_e@$00@xbrz@@YAIABUKernel_3x3@0@@Z 00529460 f i scalexbr.obj
 0001:00128470       ??$get_e@$01@xbrz@@YAIABUKernel_3x3@0@@Z 00529470 f i scalexbr.obj
 0001:00128480       ??$get_e@$02@xbrz@@YAIABUKernel_3x3@0@@Z 00529480 f i scalexbr.obj
 0001:00128490       ??$get_e@$0A@@xbrz@@YAIABUKernel_3x3@0@@Z 00529490 f i scalexbr.obj
 0001:001284a0       ??$get_f@$00@xbrz@@YAIABUKernel_3x3@0@@Z 005294a0 f i scalexbr.obj
 0001:001284b0       ??$get_f@$01@xbrz@@YAIABUKernel_3x3@0@@Z 005294b0 f i scalexbr.obj
 0001:001284c0       ??$get_f@$02@xbrz@@YAIABUKernel_3x3@0@@Z 005294c0 f i scalexbr.obj
 0001:001284d0       ??$get_f@$0A@@xbrz@@YAIABUKernel_3x3@0@@Z 005294d0 f i scalexbr.obj
 0001:001284e0       ??$get_g@$00@xbrz@@YAIABUKernel_3x3@0@@Z 005294e0 f i scalexbr.obj
 0001:001284f0       ??$get_g@$01@xbrz@@YAIABUKernel_3x3@0@@Z 005294f0 f i scalexbr.obj
 0001:00128500       ??$get_g@$02@xbrz@@YAIABUKernel_3x3@0@@Z 00529500 f i scalexbr.obj
 0001:00128510       ??$get_g@$0A@@xbrz@@YAIABUKernel_3x3@0@@Z 00529510 f i scalexbr.obj
 0001:00128520       ??$get_h@$00@xbrz@@YAIABUKernel_3x3@0@@Z 00529520 f i scalexbr.obj
 0001:00128530       ??$get_h@$01@xbrz@@YAIABUKernel_3x3@0@@Z 00529530 f i scalexbr.obj
 0001:00128540       ??$get_h@$02@xbrz@@YAIABUKernel_3x3@0@@Z 00529540 f i scalexbr.obj
 0001:00128550       ??$get_h@$0A@@xbrz@@YAIABUKernel_3x3@0@@Z 00529550 f i scalexbr.obj
 0001:00128560       ??$get_i@$00@xbrz@@YAIABUKernel_3x3@0@@Z 00529560 f i scalexbr.obj
 0001:00128570       ??$get_i@$01@xbrz@@YAIABUKernel_3x3@0@@Z 00529570 f i scalexbr.obj
 0001:00128580       ??$get_i@$02@xbrz@@YAIABUKernel_3x3@0@@Z 00529580 f i scalexbr.obj
 0001:00128590       ??$get_i@$0A@@xbrz@@YAIABUKernel_3x3@0@@Z 00529590 f i scalexbr.obj
 0001:001285a0       ??$max@H@std@@YAABHABH0@Z  005295a0 f i scalexbr.obj
 0001:001285c0       ??$min@H@std@@YAABHABH0@Z  005295c0 f i scalexbr.obj
 0001:001285e0       ??$ref@$00$00@?$OutputMatrix@$01$00@xbrz@@QBEAAIXZ 005295e0 f i scalexbr.obj
 0001:001285f0       ??$ref@$00$00@?$OutputMatrix@$01$01@xbrz@@QBEAAIXZ 005295f0 f i scalexbr.obj
 0001:00128600       ??$ref@$00$00@?$OutputMatrix@$01$02@xbrz@@QBEAAIXZ 00529600 f i scalexbr.obj
 0001:00128610       ??$ref@$00$00@?$OutputMatrix@$01$0A@@xbrz@@QBEAAIXZ 00529610 f i scalexbr.obj
 0001:00128620       ??$ref@$00$01@?$OutputMatrix@$02$00@xbrz@@QBEAAIXZ 00529620 f i scalexbr.obj
 0001:00128630       ??$ref@$00$01@?$OutputMatrix@$02$01@xbrz@@QBEAAIXZ 00529630 f i scalexbr.obj
 0001:00128640       ??$ref@$00$01@?$OutputMatrix@$02$02@xbrz@@QBEAAIXZ 00529640 f i scalexbr.obj
 0001:00128650       ??$ref@$00$01@?$OutputMatrix@$02$0A@@xbrz@@QBEAAIXZ 00529650 f i scalexbr.obj
 0001:00128660       ??$ref@$00$02@?$OutputMatrix@$03$00@xbrz@@QBEAAIXZ 00529660 f i scalexbr.obj
 0001:00128670       ??$ref@$00$02@?$OutputMatrix@$03$01@xbrz@@QBEAAIXZ 00529670 f i scalexbr.obj
 0001:00128680       ??$ref@$00$02@?$OutputMatrix@$03$02@xbrz@@QBEAAIXZ 00529680 f i scalexbr.obj
 0001:00128690       ??$ref@$00$02@?$OutputMatrix@$03$0A@@xbrz@@QBEAAIXZ 00529690 f i scalexbr.obj
 0001:001286a0       ??$ref@$00$03@?$OutputMatrix@$04$00@xbrz@@QBEAAIXZ 005296a0 f i scalexbr.obj
 0001:001286b0       ??$ref@$00$03@?$OutputMatrix@$04$01@xbrz@@QBEAAIXZ 005296b0 f i scalexbr.obj
 0001:001286c0       ??$ref@$00$03@?$OutputMatrix@$04$02@xbrz@@QBEAAIXZ 005296c0 f i scalexbr.obj
 0001:001286d0       ??$ref@$00$03@?$OutputMatrix@$04$0A@@xbrz@@QBEAAIXZ 005296d0 f i scalexbr.obj
 0001:001286e0       ??$ref@$00$0A@@?$OutputMatrix@$01$00@xbrz@@QBEAAIXZ 005296e0 f i scalexbr.obj
 0001:001286f0       ??$ref@$00$0A@@?$OutputMatrix@$01$01@xbrz@@QBEAAIXZ 005296f0 f i scalexbr.obj
 0001:00128700       ??$ref@$00$0A@@?$OutputMatrix@$01$02@xbrz@@QBEAAIXZ 00529700 f i scalexbr.obj
 0001:00128710       ??$ref@$00$0A@@?$OutputMatrix@$01$0A@@xbrz@@QBEAAIXZ 00529710 f i scalexbr.obj
 0001:00128720       ??$ref@$01$00@?$OutputMatrix@$02$00@xbrz@@QBEAAIXZ 00529720 f i scalexbr.obj
 0001:00128730       ??$ref@$01$00@?$OutputMatrix@$02$01@xbrz@@QBEAAIXZ 00529730 f i scalexbr.obj
 0001:00128740       ??$ref@$01$00@?$OutputMatrix@$02$02@xbrz@@QBEAAIXZ 00529740 f i scalexbr.obj
 0001:00128750       ??$ref@$01$00@?$OutputMatrix@$02$0A@@xbrz@@QBEAAIXZ 00529750 f i scalexbr.obj
 0001:00128760       ??$ref@$01$01@?$OutputMatrix@$02$00@xbrz@@QBEAAIXZ 00529760 f i scalexbr.obj
 0001:00128770       ??$ref@$01$01@?$OutputMatrix@$02$01@xbrz@@QBEAAIXZ 00529770 f i scalexbr.obj
 0001:00128780       ??$ref@$01$01@?$OutputMatrix@$02$02@xbrz@@QBEAAIXZ 00529780 f i scalexbr.obj
 0001:00128790       ??$ref@$01$01@?$OutputMatrix@$02$0A@@xbrz@@QBEAAIXZ 00529790 f i scalexbr.obj
 0001:001287a0       ??$ref@$01$01@?$OutputMatrix@$03$00@xbrz@@QBEAAIXZ 005297a0 f i scalexbr.obj
 0001:001287b0       ??$ref@$01$01@?$OutputMatrix@$03$01@xbrz@@QBEAAIXZ 005297b0 f i scalexbr.obj
 0001:001287c0       ??$ref@$01$01@?$OutputMatrix@$03$02@xbrz@@QBEAAIXZ 005297c0 f i scalexbr.obj
 0001:001287d0       ??$ref@$01$01@?$OutputMatrix@$03$0A@@xbrz@@QBEAAIXZ 005297d0 f i scalexbr.obj
 0001:001287e0       ??$ref@$01$02@?$OutputMatrix@$03$00@xbrz@@QBEAAIXZ 005297e0 f i scalexbr.obj
 0001:001287f0       ??$ref@$01$02@?$OutputMatrix@$03$01@xbrz@@QBEAAIXZ 005297f0 f i scalexbr.obj
 0001:00128800       ??$ref@$01$02@?$OutputMatrix@$03$02@xbrz@@QBEAAIXZ 00529800 f i scalexbr.obj
 0001:00128810       ??$ref@$01$02@?$OutputMatrix@$03$0A@@xbrz@@QBEAAIXZ 00529810 f i scalexbr.obj
 0001:00128820       ??$ref@$01$02@?$OutputMatrix@$04$00@xbrz@@QBEAAIXZ 00529820 f i scalexbr.obj
 0001:00128830       ??$ref@$01$02@?$OutputMatrix@$04$01@xbrz@@QBEAAIXZ 00529830 f i scalexbr.obj
 0001:00128840       ??$ref@$01$02@?$OutputMatrix@$04$02@xbrz@@QBEAAIXZ 00529840 f i scalexbr.obj
 0001:00128850       ??$ref@$01$02@?$OutputMatrix@$04$0A@@xbrz@@QBEAAIXZ 00529850 f i scalexbr.obj
 0001:00128860       ??$ref@$01$03@?$OutputMatrix@$04$00@xbrz@@QBEAAIXZ 00529860 f i scalexbr.obj
 0001:00128870       ??$ref@$01$03@?$OutputMatrix@$04$01@xbrz@@QBEAAIXZ 00529870 f i scalexbr.obj
 0001:00128880       ??$ref@$01$03@?$OutputMatrix@$04$02@xbrz@@QBEAAIXZ 00529880 f i scalexbr.obj
 0001:00128890       ??$ref@$01$03@?$OutputMatrix@$04$0A@@xbrz@@QBEAAIXZ 00529890 f i scalexbr.obj
 0001:001288a0       ??$ref@$01$0A@@?$OutputMatrix@$02$00@xbrz@@QBEAAIXZ 005298a0 f i scalexbr.obj
 0001:001288b0       ??$ref@$01$0A@@?$OutputMatrix@$02$01@xbrz@@QBEAAIXZ 005298b0 f i scalexbr.obj
 0001:001288c0       ??$ref@$01$0A@@?$OutputMatrix@$02$02@xbrz@@QBEAAIXZ 005298c0 f i scalexbr.obj
 0001:001288d0       ??$ref@$01$0A@@?$OutputMatrix@$02$0A@@xbrz@@QBEAAIXZ 005298d0 f i scalexbr.obj
 0001:001288e0       ??$ref@$02$00@?$OutputMatrix@$03$00@xbrz@@QBEAAIXZ 005298e0 f i scalexbr.obj
 0001:001288f0       ??$ref@$02$00@?$OutputMatrix@$03$01@xbrz@@QBEAAIXZ 005298f0 f i scalexbr.obj
 0001:00128900       ??$ref@$02$00@?$OutputMatrix@$03$02@xbrz@@QBEAAIXZ 00529900 f i scalexbr.obj
 0001:00128910       ??$ref@$02$00@?$OutputMatrix@$03$0A@@xbrz@@QBEAAIXZ 00529910 f i scalexbr.obj
 0001:00128920       ??$ref@$02$01@?$OutputMatrix@$03$00@xbrz@@QBEAAIXZ 00529920 f i scalexbr.obj
 0001:00128930       ??$ref@$02$01@?$OutputMatrix@$03$01@xbrz@@QBEAAIXZ 00529930 f i scalexbr.obj
 0001:00128940       ??$ref@$02$01@?$OutputMatrix@$03$02@xbrz@@QBEAAIXZ 00529940 f i scalexbr.obj
 0001:00128950       ??$ref@$02$01@?$OutputMatrix@$03$0A@@xbrz@@QBEAAIXZ 00529950 f i scalexbr.obj
 0001:00128960       ??$ref@$02$01@?$OutputMatrix@$04$00@xbrz@@QBEAAIXZ 00529960 f i scalexbr.obj
 0001:00128970       ??$ref@$02$01@?$OutputMatrix@$04$01@xbrz@@QBEAAIXZ 00529970 f i scalexbr.obj
 0001:00128980       ??$ref@$02$01@?$OutputMatrix@$04$02@xbrz@@QBEAAIXZ 00529980 f i scalexbr.obj
 0001:00128990       ??$ref@$02$01@?$OutputMatrix@$04$0A@@xbrz@@QBEAAIXZ 00529990 f i scalexbr.obj
 0001:001289a0       ??$ref@$02$02@?$OutputMatrix@$03$00@xbrz@@QBEAAIXZ 005299a0 f i scalexbr.obj
 0001:001289b0       ??$ref@$02$02@?$OutputMatrix@$03$01@xbrz@@QBEAAIXZ 005299b0 f i scalexbr.obj
 0001:001289c0       ??$ref@$02$02@?$OutputMatrix@$03$02@xbrz@@QBEAAIXZ 005299c0 f i scalexbr.obj
 0001:001289d0       ??$ref@$02$02@?$OutputMatrix@$03$0A@@xbrz@@QBEAAIXZ 005299d0 f i scalexbr.obj
 0001:001289e0       ??$ref@$02$02@?$OutputMatrix@$04$00@xbrz@@QBEAAIXZ 005299e0 f i scalexbr.obj
 0001:001289f0       ??$ref@$02$02@?$OutputMatrix@$04$01@xbrz@@QBEAAIXZ 005299f0 f i scalexbr.obj
 0001:00128a00       ??$ref@$02$02@?$OutputMatrix@$04$02@xbrz@@QBEAAIXZ 00529a00 f i scalexbr.obj
 0001:00128a10       ??$ref@$02$02@?$OutputMatrix@$04$0A@@xbrz@@QBEAAIXZ 00529a10 f i scalexbr.obj
 0001:00128a20       ??$ref@$02$03@?$OutputMatrix@$04$00@xbrz@@QBEAAIXZ 00529a20 f i scalexbr.obj
 0001:00128a30       ??$ref@$02$03@?$OutputMatrix@$04$01@xbrz@@QBEAAIXZ 00529a30 f i scalexbr.obj
 0001:00128a40       ??$ref@$02$03@?$OutputMatrix@$04$02@xbrz@@QBEAAIXZ 00529a40 f i scalexbr.obj
 0001:00128a50       ??$ref@$02$03@?$OutputMatrix@$04$0A@@xbrz@@QBEAAIXZ 00529a50 f i scalexbr.obj
 0001:00128a60       ??$ref@$02$0A@@?$OutputMatrix@$03$00@xbrz@@QBEAAIXZ 00529a60 f i scalexbr.obj
 0001:00128a70       ??$ref@$02$0A@@?$OutputMatrix@$03$01@xbrz@@QBEAAIXZ 00529a70 f i scalexbr.obj
 0001:00128a80       ??$ref@$02$0A@@?$OutputMatrix@$03$02@xbrz@@QBEAAIXZ 00529a80 f i scalexbr.obj
 0001:00128a90       ??$ref@$02$0A@@?$OutputMatrix@$03$0A@@xbrz@@QBEAAIXZ 00529a90 f i scalexbr.obj
 0001:00128aa0       ??$ref@$03$00@?$OutputMatrix@$04$00@xbrz@@QBEAAIXZ 00529aa0 f i scalexbr.obj
 0001:00128ab0       ??$ref@$03$00@?$OutputMatrix@$04$01@xbrz@@QBEAAIXZ 00529ab0 f i scalexbr.obj
 0001:00128ac0       ??$ref@$03$00@?$OutputMatrix@$04$02@xbrz@@QBEAAIXZ 00529ac0 f i scalexbr.obj
 0001:00128ad0       ??$ref@$03$00@?$OutputMatrix@$04$0A@@xbrz@@QBEAAIXZ 00529ad0 f i scalexbr.obj
 0001:00128ae0       ??$ref@$03$01@?$OutputMatrix@$04$00@xbrz@@QBEAAIXZ 00529ae0 f i scalexbr.obj
 0001:00128af0       ??$ref@$03$01@?$OutputMatrix@$04$01@xbrz@@QBEAAIXZ 00529af0 f i scalexbr.obj
 0001:00128b00       ??$ref@$03$01@?$OutputMatrix@$04$02@xbrz@@QBEAAIXZ 00529b00 f i scalexbr.obj
 0001:00128b10       ??$ref@$03$01@?$OutputMatrix@$04$0A@@xbrz@@QBEAAIXZ 00529b10 f i scalexbr.obj
 0001:00128b20       ??$ref@$03$02@?$OutputMatrix@$04$00@xbrz@@QBEAAIXZ 00529b20 f i scalexbr.obj
 0001:00128b30       ??$ref@$03$02@?$OutputMatrix@$04$01@xbrz@@QBEAAIXZ 00529b30 f i scalexbr.obj
 0001:00128b40       ??$ref@$03$02@?$OutputMatrix@$04$02@xbrz@@QBEAAIXZ 00529b40 f i scalexbr.obj
 0001:00128b50       ??$ref@$03$02@?$OutputMatrix@$04$0A@@xbrz@@QBEAAIXZ 00529b50 f i scalexbr.obj
 0001:00128b60       ??$ref@$03$03@?$OutputMatrix@$04$00@xbrz@@QBEAAIXZ 00529b60 f i scalexbr.obj
 0001:00128b70       ??$ref@$03$03@?$OutputMatrix@$04$01@xbrz@@QBEAAIXZ 00529b70 f i scalexbr.obj
 0001:00128b80       ??$ref@$03$03@?$OutputMatrix@$04$02@xbrz@@QBEAAIXZ 00529b80 f i scalexbr.obj
 0001:00128b90       ??$ref@$03$03@?$OutputMatrix@$04$0A@@xbrz@@QBEAAIXZ 00529b90 f i scalexbr.obj
 0001:00128ba0       ??$ref@$03$0A@@?$OutputMatrix@$04$00@xbrz@@QBEAAIXZ 00529ba0 f i scalexbr.obj
 0001:00128bb0       ??$ref@$03$0A@@?$OutputMatrix@$04$01@xbrz@@QBEAAIXZ 00529bb0 f i scalexbr.obj
 0001:00128bc0       ??$ref@$03$0A@@?$OutputMatrix@$04$02@xbrz@@QBEAAIXZ 00529bc0 f i scalexbr.obj
 0001:00128bd0       ??$ref@$03$0A@@?$OutputMatrix@$04$0A@@xbrz@@QBEAAIXZ 00529bd0 f i scalexbr.obj
 0001:00128be0       ??$ref@$0A@$00@?$OutputMatrix@$01$00@xbrz@@QBEAAIXZ 00529be0 f i scalexbr.obj
 0001:00128bf0       ??$ref@$0A@$00@?$OutputMatrix@$01$01@xbrz@@QBEAAIXZ 00529bf0 f i scalexbr.obj
 0001:00128c00       ??$ref@$0A@$00@?$OutputMatrix@$01$02@xbrz@@QBEAAIXZ 00529c00 f i scalexbr.obj
 0001:00128c10       ??$ref@$0A@$00@?$OutputMatrix@$01$0A@@xbrz@@QBEAAIXZ 00529c10 f i scalexbr.obj
 0001:00128c20       ??$ref@$0A@$01@?$OutputMatrix@$02$00@xbrz@@QBEAAIXZ 00529c20 f i scalexbr.obj
 0001:00128c30       ??$ref@$0A@$01@?$OutputMatrix@$02$01@xbrz@@QBEAAIXZ 00529c30 f i scalexbr.obj
 0001:00128c40       ??$ref@$0A@$01@?$OutputMatrix@$02$02@xbrz@@QBEAAIXZ 00529c40 f i scalexbr.obj
 0001:00128c50       ??$ref@$0A@$01@?$OutputMatrix@$02$0A@@xbrz@@QBEAAIXZ 00529c50 f i scalexbr.obj
 0001:00128c60       ??$ref@$0A@$02@?$OutputMatrix@$03$00@xbrz@@QBEAAIXZ 00529c60 f i scalexbr.obj
 0001:00128c70       ??$ref@$0A@$02@?$OutputMatrix@$03$01@xbrz@@QBEAAIXZ 00529c70 f i scalexbr.obj
 0001:00128c80       ??$ref@$0A@$02@?$OutputMatrix@$03$02@xbrz@@QBEAAIXZ 00529c80 f i scalexbr.obj
 0001:00128c90       ??$ref@$0A@$02@?$OutputMatrix@$03$0A@@xbrz@@QBEAAIXZ 00529c90 f i scalexbr.obj
 0001:00128ca0       ??$ref@$0A@$03@?$OutputMatrix@$04$00@xbrz@@QBEAAIXZ 00529ca0 f i scalexbr.obj
 0001:00128cb0       ??$ref@$0A@$03@?$OutputMatrix@$04$01@xbrz@@QBEAAIXZ 00529cb0 f i scalexbr.obj
 0001:00128cc0       ??$ref@$0A@$03@?$OutputMatrix@$04$02@xbrz@@QBEAAIXZ 00529cc0 f i scalexbr.obj
 0001:00128cd0       ??$ref@$0A@$03@?$OutputMatrix@$04$0A@@xbrz@@QBEAAIXZ 00529cd0 f i scalexbr.obj
 0001:00128ce0       ??$rotateBlendInfo@$00@xbrz@@YAEE@Z 00529ce0 f i scalexbr.obj
 0001:00128d00       ??$rotateBlendInfo@$01@xbrz@@YAEE@Z 00529d00 f i scalexbr.obj
 0001:00128d20       ??$rotateBlendInfo@$02@xbrz@@YAEE@Z 00529d20 f i scalexbr.obj
 0001:00128d40       ??$rotateBlendInfo@$0A@@xbrz@@YAEE@Z 00529d40 f i scalexbr.obj
 0001:00128d50       ??$scaleImage@UScaler2x@xbrz@@@xbrz@@YAXPBIPAIHHABUScalerCfg_s@0@HH@Z 00529d50 f i scalexbr.obj
 0001:0012b460       ??$scaleImage@UScaler3x@xbrz@@@xbrz@@YAXPBIPAIHHABUScalerCfg_s@0@HH@Z 0052c460 f i scalexbr.obj
 0001:0012dbb0       ??$scaleImage@UScaler4x@xbrz@@@xbrz@@YAXPBIPAIHHABUScalerCfg_s@0@HH@Z 0052ebb0 f i scalexbr.obj
 0001:001302b0       ??$scaleImage@UScaler5x@xbrz@@@xbrz@@YAXPBIPAIHHABUScalerCfg_s@0@HH@Z 005312b0 f i scalexbr.obj
 0001:00132910       ??$scalePixel@UScaler2x@xbrz@@$00@xbrz@@YAXABUKernel_3x3@0@PAIHEABUScalerCfg_s@0@@Z 00533910 f i scalexbr.obj
 0001:00132be0       ??$scalePixel@UScaler2x@xbrz@@$01@xbrz@@YAXABUKernel_3x3@0@PAIHEABUScalerCfg_s@0@@Z 00533be0 f i scalexbr.obj
 0001:00132eb0       ??$scalePixel@UScaler2x@xbrz@@$02@xbrz@@YAXABUKernel_3x3@0@PAIHEABUScalerCfg_s@0@@Z 00533eb0 f i scalexbr.obj
 0001:00133180       ??$scalePixel@UScaler2x@xbrz@@$0A@@xbrz@@YAXABUKernel_3x3@0@PAIHEABUScalerCfg_s@0@@Z 00534180 f i scalexbr.obj
 0001:00133460       ??$scalePixel@UScaler3x@xbrz@@$00@xbrz@@YAXABUKernel_3x3@0@PAIHEABUScalerCfg_s@0@@Z 00534460 f i scalexbr.obj
 0001:00133720       ??$scalePixel@UScaler3x@xbrz@@$01@xbrz@@YAXABUKernel_3x3@0@PAIHEABUScalerCfg_s@0@@Z 00534720 f i scalexbr.obj
 0001:001339e0       ??$scalePixel@UScaler3x@xbrz@@$02@xbrz@@YAXABUKernel_3x3@0@PAIHEABUScalerCfg_s@0@@Z 005349e0 f i scalexbr.obj
 0001:00133cb0       ??$scalePixel@UScaler3x@xbrz@@$0A@@xbrz@@YAXABUKernel_3x3@0@PAIHEABUScalerCfg_s@0@@Z 00534cb0 f i scalexbr.obj
 0001:00133f80       ??$scalePixel@UScaler4x@xbrz@@$00@xbrz@@YAXABUKernel_3x3@0@PAIHEABUScalerCfg_s@0@@Z 00534f80 f i scalexbr.obj
 0001:00134260       ??$scalePixel@UScaler4x@xbrz@@$01@xbrz@@YAXABUKernel_3x3@0@PAIHEABUScalerCfg_s@0@@Z 00535260 f i scalexbr.obj
 0001:00134540       ??$scalePixel@UScaler4x@xbrz@@$02@xbrz@@YAXABUKernel_3x3@0@PAIHEABUScalerCfg_s@0@@Z 00535540 f i scalexbr.obj
 0001:00134820       ??$scalePixel@UScaler4x@xbrz@@$0A@@xbrz@@YAXABUKernel_3x3@0@PAIHEABUScalerCfg_s@0@@Z 00535820 f i scalexbr.obj
 0001:00134af0       ??$scalePixel@UScaler5x@xbrz@@$00@xbrz@@YAXABUKernel_3x3@0@PAIHEABUScalerCfg_s@0@@Z 00535af0 f i scalexbr.obj
 0001:00134dd0       ??$scalePixel@UScaler5x@xbrz@@$01@xbrz@@YAXABUKernel_3x3@0@PAIHEABUScalerCfg_s@0@@Z 00535dd0 f i scalexbr.obj
 0001:001350b0       ??$scalePixel@UScaler5x@xbrz@@$02@xbrz@@YAXABUKernel_3x3@0@PAIHEABUScalerCfg_s@0@@Z 005360b0 f i scalexbr.obj
 0001:001353a0       ??$scalePixel@UScaler5x@xbrz@@$0A@@xbrz@@YAXABUKernel_3x3@0@PAIHEABUScalerCfg_s@0@@Z 005363a0 f i scalexbr.obj
 0001:00135670       ??$square@N@xbrz@@YANN@Z   00536670 f i scalexbr.obj
 0001:00135690       ??0?$OutputMatrix@$01$00@xbrz@@QAE@PAIH@Z 00536690 f i scalexbr.obj
 0001:001356b0       ??0?$OutputMatrix@$01$01@xbrz@@QAE@PAIH@Z 005366b0 f i scalexbr.obj
 0001:001356d0       ??0?$OutputMatrix@$01$02@xbrz@@QAE@PAIH@Z 005366d0 f i scalexbr.obj
 0001:001356f0       ??0?$OutputMatrix@$01$0A@@xbrz@@QAE@PAIH@Z 005366f0 f i scalexbr.obj
 0001:00135710       ??0?$OutputMatrix@$02$00@xbrz@@QAE@PAIH@Z 00536710 f i scalexbr.obj
 0001:00135730       ??0?$OutputMatrix@$02$01@xbrz@@QAE@PAIH@Z 00536730 f i scalexbr.obj
 0001:00135750       ??0?$OutputMatrix@$02$02@xbrz@@QAE@PAIH@Z 00536750 f i scalexbr.obj
 0001:00135770       ??0?$OutputMatrix@$02$0A@@xbrz@@QAE@PAIH@Z 00536770 f i scalexbr.obj
 0001:00135790       ??0?$OutputMatrix@$03$00@xbrz@@QAE@PAIH@Z 00536790 f i scalexbr.obj
 0001:001357b0       ??0?$OutputMatrix@$03$01@xbrz@@QAE@PAIH@Z 005367b0 f i scalexbr.obj
 0001:001357d0       ??0?$OutputMatrix@$03$02@xbrz@@QAE@PAIH@Z 005367d0 f i scalexbr.obj
 0001:001357f0       ??0?$OutputMatrix@$03$0A@@xbrz@@QAE@PAIH@Z 005367f0 f i scalexbr.obj
 0001:00135810       ??0?$OutputMatrix@$04$00@xbrz@@QAE@PAIH@Z 00536810 f i scalexbr.obj
 0001:00135830       ??0?$OutputMatrix@$04$01@xbrz@@QAE@PAIH@Z 00536830 f i scalexbr.obj
 0001:00135850       ??0?$OutputMatrix@$04$02@xbrz@@QAE@PAIH@Z 00536850 f i scalexbr.obj
 0001:00135870       ??0?$OutputMatrix@$04$0A@@xbrz@@QAE@PAIH@Z 00536870 f i scalexbr.obj
 0001:00135890       ?blendingNeeded@xbrz@@YA_NE@Z 00536890 f i scalexbr.obj
 0001:001358a0       ?byteAdvance@xbrz@@YAPAIPAIH@Z 005368a0 f   scalexbr.obj
 0001:001358b0       ?byteAdvance@xbrz@@YAPBIPBIH@Z 005368b0 f   scalexbr.obj
 0001:001358c0       ?colorDist@xbrz@@YANIIABUScalerCfg_s@1@@Z 005368c0 f i scalexbr.obj
 0001:001358f0       ?distYCbCr@xbrz@@YANIIN@Z  005368f0 f i scalexbr.obj
 0001:001359c0       ?equalColor@xbrz@@YA_NIIABUScalerCfg_s@1@@Z 005369c0 f i scalexbr.obj
 0001:00135a20       ?fillBlock@xbrz@@YAXPAIHIH@Z 00536a20 f i scalexbr.obj
 0001:00135a60       ?fillBlock@xbrz@@YAXPAIHIHH@Z 00536a60 f i scalexbr.obj
 0001:00135a90       ?getBlue@xbrz@@YAEI@Z      00536a90 f i scalexbr.obj
 0001:00135aa0       ?getBottomL@xbrz@@YA?AW4BlendType@1@E@Z 00536aa0 f i scalexbr.obj
 0001:00135ab0       ?getBottomR@xbrz@@YA?AW4BlendType@1@E@Z 00536ab0 f i scalexbr.obj
 0001:00135ad0       ?getGreen@xbrz@@YAEI@Z     00536ad0 f i scalexbr.obj
 0001:00135ae0       ?getRed@xbrz@@YAEI@Z       00536ae0 f i scalexbr.obj
 0001:00135af0       ?getTopR@xbrz@@YA?AW4BlendType@1@E@Z 00536af0 f i scalexbr.obj
 0001:00135b10       ?preProcessCorners@xbrz@@YA?AUBlendResult@1@ABUKernel_4x4@1@ABUScalerCfg_s@1@@Z 00536b10 f i scalexbr.obj
 0001:00135e80       ?scale@xbrz@@YAXIPBIPAIHHABUScalerCfg_s@1@HH@Z 00536e80 f   scalexbr.obj
 0001:00135f40       ?setBottomL@xbrz@@YAXAAEW4BlendType@1@@Z 00536f40 f i scalexbr.obj
 0001:00135f50       ?setBottomR@xbrz@@YAXAAEW4BlendType@1@@Z 00536f50 f i scalexbr.obj
 0001:00135f60       ?setTopL@xbrz@@YAXAAEW4BlendType@1@@Z 00536f60 f i scalexbr.obj
 0001:00135f70       ?setTopR@xbrz@@YAXAAEW4BlendType@1@@Z 00536f70 f i scalexbr.obj
 0001:00135f80       ??$_Allocate@PAUTexFormat_s@@@std@@YAPAPAUTexFormat_s@@IPAPAU1@@Z 00536f80 f i tex.obj
 0001:00135fb0       ??$_Allocate@PAUTexTool_s@@@std@@YAPAPAUTexTool_s@@IPAPAU1@@Z 00536fb0 f i tex.obj
 0001:00135fe0       ??$_Allocate@V?$basic_string@DU?$char_traits@D@std@@V?$allocator@D@2@@std@@@std@@YAPAV?$basic_string@DU?$char_traits@D@std@@V?$allocator@D@2@@0@IPAV10@@Z 00536fe0 f i tex.obj
 0001:00136020       ??$_Destroy_range@U?$_Wrap_alloc@V?$allocator@V?$basic_string@DU?$char_traits@D@std@@V?$allocator@D@2@@std@@@std@@@std@@@std@@YAXPAV?$basic_string@DU?$char_traits@D@std@@V?$allocator@D@2@@0@0AAU?$_Wrap_alloc@V?$allocator@V?$basic_string@DU?$char_traits@D@std@@V?$allocator@D@2@@std@@@std@@@0@@Z 00537020 f i tex.obj
 0001:00136040       ??$_Destroy_range@U?$_Wrap_alloc@V?$allocator@V?$basic_string@DU?$char_traits@D@std@@V?$allocator@D@2@@std@@@std@@@std@@@std@@YAXPAV?$basic_string@DU?$char_traits@D@std@@V?$allocator@D@2@@0@0AAU?$_Wrap_alloc@V?$allocator@V?$basic_string@DU?$char_traits@D@std@@V?$allocator@D@2@@std@@@std@@@0@U_Nonscalar_ptr_iterator_tag@0@@Z 00537040 f i tex.obj
 0001:00136080       ??$_Ptr_cat@V?$basic_string@DU?$char_traits@D@std@@V?$allocator@D@2@@std@@V12@@std@@YA?AU_Nonscalar_ptr_iterator_tag@0@PAV?$basic_string@DU?$char_traits@D@std@@V?$allocator@D@2@@0@0@Z 00537080 f i tex.obj
 0001:00136090       ??$_Rechecked@PAPAUTexFormat_s@@PAPAU1@@std@@YAAAPAPAUTexFormat_s@@AAPAPAU1@PAPAU1@@Z 00537090 f i tex.obj
 0001:001360a0       ??$_Rechecked@PAPAUTexTool_s@@PAPAU1@@std@@YAAAPAPAUTexTool_s@@AAPAPAU1@PAPAU1@@Z 005370a0 f i tex.obj
 0001:001360b0       ??$_Rechecked@PAV?$basic_string@DU?$char_traits@D@std@@V?$allocator@D@2@@std@@PAV12@@std@@YAAAPAV?$basic_string@DU?$char_traits@D@std@@V?$allocator@D@2@@0@AAPAV10@PAV10@@Z 005370b0 f i tex.obj
 0001:001360c0       ??$_Umove@PAPAUTexFormat_s@@@?$vector@PAUTexFormat_s@@V?$allocator@PAUTexFormat_s@@@std@@@std@@IAEPAPAUTexFormat_s@@PAPAU2@00@Z 005370c0 f i tex.obj
 0001:001360f0       ??$_Umove@PAPAUTexTool_s@@@?$vector@PAUTexTool_s@@V?$allocator@PAUTexTool_s@@@std@@@std@@IAEPAPAUTexTool_s@@PAPAU2@00@Z 005370f0 f i tex.obj
 0001:00136120       ??$_Umove@PAV?$basic_string@DU?$char_traits@D@std@@V?$allocator@D@2@@std@@@?$vector@V?$basic_string@DU?$char_traits@D@std@@V?$allocator@D@2@@std@@V?$allocator@V?$basic_string@DU?$char_traits@D@std@@V?$allocator@D@2@@std@@@2@@std@@IAEPAV?$basic_string@DU?$char_traits@D@std@@V?$allocator@D@2@@1@PAV21@00@Z 00537120 f i tex.obj
 0001:00136150       ??$_Unchecked@PAPAUTexFormat_s@@@std@@YAPAPAUTexFormat_s@@PAPAU1@@Z 00537150 f i tex.obj
 0001:00136160       ??$_Unchecked@PAPAUTexTool_s@@@std@@YAPAPAUTexTool_s@@PAPAU1@@Z 00537160 f i tex.obj
 0001:00136170       ??$_Unchecked@PAV?$basic_string@DU?$char_traits@D@std@@V?$allocator@D@2@@std@@@std@@YAPAV?$basic_string@DU?$char_traits@D@std@@V?$allocator@D@2@@0@PAV10@@Z 00537170 f i tex.obj
 0001:00136180       ??$_Uninit_move@PAPAUTexFormat_s@@PAPAU1@U?$_Wrap_alloc@V?$allocator@PAUTexFormat_s@@@std@@@std@@@std@@YAPAPAUTexFormat_s@@PAPAU1@00AAU?$_Wrap_alloc@V?$allocator@PAUTexFormat_s@@@std@@@0@@Z 00537180 f i tex.obj
 0001:001361b0       ??$_Uninit_move@PAPAUTexTool_s@@PAPAU1@U?$_Wrap_alloc@V?$allocator@PAUTexTool_s@@@std@@@std@@@std@@YAPAPAUTexTool_s@@PAPAU1@00AAU?$_Wrap_alloc@V?$allocator@PAUTexTool_s@@@std@@@0@@Z 005371b0 f i tex.obj
 0001:001361e0       ??$_Uninit_move@PAUTexFormat_s@@PAU1@PAU1@@std@@YAPAPAUTexFormat_s@@PAPAU1@00AAU?$_Wrap_alloc@V?$allocator@PAUTexFormat_s@@@std@@@0@0U_Scalar_ptr_iterator_tag@0@@Z 005371e0 f i tex.obj
 0001:00136210       ??$_Uninit_move@PAUTexTool_s@@PAU1@PAU1@@std@@YAPAPAUTexTool_s@@PAPAU1@00AAU?$_Wrap_alloc@V?$allocator@PAUTexTool_s@@@std@@@0@0U_Scalar_ptr_iterator_tag@0@@Z 00537210 f i tex.obj
 0001:00136240       ??$_Uninit_move@PAV?$basic_string@DU?$char_traits@D@std@@V?$allocator@D@2@@std@@PAV12@U?$_Wrap_alloc@V?$allocator@V?$basic_string@DU?$char_traits@D@std@@V?$allocator@D@2@@std@@@std@@@2@@std@@YAPAV?$basic_string@DU?$char_traits@D@std@@V?$allocator@D@2@@0@PAV10@00AAU?$_Wrap_alloc@V?$allocator@V?$basic_string@DU?$char_traits@D@std@@V?$allocator@D@2@@std@@@std@@@0@@Z 00537240 f i tex.obj
 0001:00136270       ??$_Uninit_move@PAV?$basic_string@DU?$char_traits@D@std@@V?$allocator@D@2@@std@@PAV12@V?$allocator@V?$basic_string@DU?$char_traits@D@std@@V?$allocator@D@2@@std@@@2@V12@@std@@YAPAV?$basic_string@DU?$char_traits@D@std@@V?$allocator@D@2@@0@PAV10@00AAU?$_Wrap_alloc@V?$allocator@V?$basic_string@DU?$char_traits@D@std@@V?$allocator@D@2@@std@@@std@@@0@0U_Nonscalar_ptr_iterator_tag@0@@Z 00537270 f i tex.obj
 0001:00136300       ??$_Uninitialized_move@PAPAUTexFormat_s@@PAPAU1@U?$_Wrap_alloc@V?$allocator@PAUTexFormat_s@@@std@@@std@@@std@@YAPAPAUTexFormat_s@@PAPAU1@00AAU?$_Wrap_alloc@V?$allocator@PAUTexFormat_s@@@std@@@0@@Z 00537300 f i tex.obj
 0001:00136330       ??$_Uninitialized_move@PAPAUTexTool_s@@PAPAU1@U?$_Wrap_alloc@V?$allocator@PAUTexTool_s@@@std@@@std@@@std@@YAPAPAUTexTool_s@@PAPAU1@00AAU?$_Wrap_alloc@V?$allocator@PAUTexTool_s@@@std@@@0@@Z 00537330 f i tex.obj
 0001:00136360       ??$_Uninitialized_move@PAV?$basic_string@DU?$char_traits@D@std@@V?$allocator@D@2@@std@@PAV12@U?$_Wrap_alloc@V?$allocator@V?$basic_string@DU?$char_traits@D@std@@V?$allocator@D@2@@std@@@std@@@2@@std@@YAPAV?$basic_string@DU?$char_traits@D@std@@V?$allocator@D@2@@0@PAV10@00AAU?$_Wrap_alloc@V?$allocator@V?$basic_string@DU?$char_traits@D@std@@V?$allocator@D@2@@std@@@std@@@0@@Z 00537360 f i tex.obj
 0001:00136380       ??$_Val_type@PAPAUTexFormat_s@@@std@@YAPAPAUTexFormat_s@@PAPAU1@@Z 00537380 f i tex.obj
 0001:00136390       ??$_Val_type@PAPAUTexTool_s@@@std@@YAPAPAUTexTool_s@@PAPAU1@@Z 00537390 f i tex.obj
 0001:001363a0       ??$_Val_type@PAV?$basic_string@DU?$char_traits@D@std@@V?$allocator@D@2@@std@@@std@@YAPAV?$basic_string@DU?$char_traits@D@std@@V?$allocator@D@2@@0@PAV10@@Z 005373a0 f i tex.obj
 0001:001363b0       ??$addressof@QAUTexFormat_s@@@std@@YAPBQAUTexFormat_s@@ABQAU1@@Z 005373b0 f i tex.obj
 0001:001363c0       ??$addressof@QAUTexTool_s@@@std@@YAPBQAUTexTool_s@@ABQAU1@@Z 005373c0 f i tex.obj
 0001:001363d0       ??$addressof@V?$basic_string@DU?$char_traits@D@std@@V?$allocator@D@2@@std@@@std@@YAPAV?$basic_string@DU?$char_traits@D@std@@V?$allocator@D@2@@0@AAV10@@Z 005373d0 f i tex.obj
 0001:001363e0       ??$construct@PAUTexFormat_s@@AAPAU1@@?$_Wrap_alloc@V?$allocator@PAUTexFormat_s@@@std@@@std@@QAEXPAPAUTexFormat_s@@AAPAU2@@Z 005373e0 f i tex.obj
 0001:00136400       ??$construct@PAUTexFormat_s@@AAPAU1@@?$allocator@PAUTexFormat_s@@@std@@QAEXPAPAUTexFormat_s@@AAPAU2@@Z 00537400 f i tex.obj
 0001:00136420       ??$construct@PAUTexFormat_s@@AAPAU1@@?$allocator_traits@V?$allocator@PAUTexFormat_s@@@std@@@std@@SAXAAV?$allocator@PAUTexFormat_s@@@1@PAPAUTexFormat_s@@AAPAU3@@Z 00537420 f i tex.obj
 0001:00136440       ??$construct@PAUTexFormat_s@@ABQAU1@@?$_Wrap_alloc@V?$allocator@PAUTexFormat_s@@@std@@@std@@QAEXPAPAUTexFormat_s@@ABQAU2@@Z 00537440 f i tex.obj
 0001:00136460       ??$construct@PAUTexFormat_s@@ABQAU1@@?$allocator_traits@V?$allocator@PAUTexFormat_s@@@std@@@std@@SAXAAV?$allocator@PAUTexFormat_s@@@1@PAPAUTexFormat_s@@ABQAU3@@Z 00537460 f i tex.obj
 0001:00136480       ??$construct@PAUTexTool_s@@AAPAU1@@?$_Wrap_alloc@V?$allocator@PAUTexTool_s@@@std@@@std@@QAEXPAPAUTexTool_s@@AAPAU2@@Z 00537480 f i tex.obj
 0001:001364a0       ??$construct@PAUTexTool_s@@AAPAU1@@?$allocator@PAUTexTool_s@@@std@@QAEXPAPAUTexTool_s@@AAPAU2@@Z 005374a0 f i tex.obj
 0001:001364c0       ??$construct@PAUTexTool_s@@AAPAU1@@?$allocator_traits@V?$allocator@PAUTexTool_s@@@std@@@std@@SAXAAV?$allocator@PAUTexTool_s@@@1@PAPAUTexTool_s@@AAPAU3@@Z 005374c0 f i tex.obj
 0001:001364e0       ??$construct@PAUTexTool_s@@ABQAU1@@?$_Wrap_alloc@V?$allocator@PAUTexTool_s@@@std@@@std@@QAEXPAPAUTexTool_s@@ABQAU2@@Z 005374e0 f i tex.obj
 0001:00136500       ??$construct@PAUTexTool_s@@ABQAU1@@?$allocator_traits@V?$allocator@PAUTexTool_s@@@std@@@std@@SAXAAV?$allocator@PAUTexTool_s@@@1@PAPAUTexTool_s@@ABQAU3@@Z 00537500 f i tex.obj
 0001:00136520       ??$construct@V?$basic_string@DU?$char_traits@D@std@@V?$allocator@D@2@@std@@V12@@?$_Wrap_alloc@V?$allocator@V?$basic_string@DU?$char_traits@D@std@@V?$allocator@D@2@@std@@@std@@@std@@QAEXPAV?$basic_string@DU?$char_traits@D@std@@V?$allocator@D@2@@1@$$QAV21@@Z 00537520 f i tex.obj
 0001:00136540       ??$construct@V?$basic_string@DU?$char_traits@D@std@@V?$allocator@D@2@@std@@V12@@?$allocator@V?$basic_string@DU?$char_traits@D@std@@V?$allocator@D@2@@std@@@std@@QAEXPAV?$basic_string@DU?$char_traits@D@std@@V?$allocator@D@2@@1@$$QAV21@@Z 00537540 f i tex.obj
 0001:00136560       ??$construct@V?$basic_string@DU?$char_traits@D@std@@V?$allocator@D@2@@std@@V12@@?$allocator_traits@V?$allocator@V?$basic_string@DU?$char_traits@D@std@@V?$allocator@D@2@@std@@@std@@@std@@SAXAAV?$allocator@V?$basic_string@DU?$char_traits@D@std@@V?$allocator@D@2@@std@@@1@PAV?$basic_string@DU?$char_traits@D@std@@V?$allocator@D@2@@1@$$QAV31@@Z 00537560 f i tex.obj
 0001:00136580       ??$destroy@V?$basic_string@DU?$char_traits@D@std@@V?$allocator@D@2@@std@@@?$_Wrap_alloc@V?$allocator@V?$basic_string@DU?$char_traits@D@std@@V?$allocator@D@2@@std@@@std@@@std@@QAEXPAV?$basic_string@DU?$char_traits@D@std@@V?$allocator@D@2@@1@@Z 00537580 f i tex.obj
 0001:001365b0       ??$destroy@V?$basic_string@DU?$char_traits@D@std@@V?$allocator@D@2@@std@@@?$allocator@V?$basic_string@DU?$char_traits@D@std@@V?$allocator@D@2@@std@@@std@@QAEXPAV?$basic_string@DU?$char_traits@D@std@@V?$allocator@D@2@@1@@Z 005375b0 f i tex.obj
 0001:001365e0       ??$destroy@V?$basic_string@DU?$char_traits@D@std@@V?$allocator@D@2@@std@@@?$allocator_traits@V?$allocator@V?$basic_string@DU?$char_traits@D@std@@V?$allocator@D@2@@std@@@std@@@std@@SAXAAV?$allocator@V?$basic_string@DU?$char_traits@D@std@@V?$allocator@D@2@@std@@@1@PAV?$basic_string@DU?$char_traits@D@std@@V?$allocator@D@2@@1@@Z 005375e0 f i tex.obj
 0001:00136610       ??$forward@AAPAUTexFormat_s@@@std@@YAAAPAUTexFormat_s@@AAPAU1@@Z 00537610 f i tex.obj
 0001:00136620       ??$forward@AAPAUTexTool_s@@@std@@YAAAPAUTexTool_s@@AAPAU1@@Z 00537620 f i tex.obj
 0001:00136630       ??$forward@ABQAUTexFormat_s@@@std@@YAABQAUTexFormat_s@@ABQAU1@@Z 00537630 f i tex.obj
 0001:00136640       ??$forward@ABQAUTexTool_s@@@std@@YAABQAUTexTool_s@@ABQAU1@@Z 00537640 f i tex.obj
 0001:00136650       ??$forward@V?$basic_string@DU?$char_traits@D@std@@V?$allocator@D@2@@std@@@std@@YA$$QAV?$basic_string@DU?$char_traits@D@std@@V?$allocator@D@2@@0@AAV10@@Z 00537650 f i tex.obj
 0001:00136660       ??0?$_Vector_alloc@$0A@U?$_Vec_base_types@V?$basic_string@DU?$char_traits@D@std@@V?$allocator@D@2@@std@@V?$allocator@V?$basic_string@DU?$char_traits@D@std@@V?$allocator@D@2@@std@@@2@@std@@@std@@QAE@ABV?$allocator@V?$basic_string@DU?$char_traits@D@std@@V?$allocator@D@2@@std@@@1@@Z 00537660 f i tex.obj
 0001:00136680       ??0?$_Vector_const_iterator@V?$_Vector_val@U?$_Simple_types@PAUTexFormat_s@@@std@@@std@@@std@@QAE@PAPAUTexFormat_s@@PBU_Container_base0@1@@Z 00537680 f i tex.obj
 0001:00136690       ??0?$_Vector_const_iterator@V?$_Vector_val@U?$_Simple_types@PAUTexFormat_s@@@std@@@std@@@std@@QAE@XZ 00537690 f i tex.obj
 0001:001366a0       ??0?$_Vector_const_iterator@V?$_Vector_val@U?$_Simple_types@PAUTexTool_s@@@std@@@std@@@std@@QAE@PAPAUTexTool_s@@PBU_Container_base0@1@@Z 005376a0 f i tex.obj
 0001:001366b0       ??0?$_Vector_const_iterator@V?$_Vector_val@U?$_Simple_types@PAUTexTool_s@@@std@@@std@@@std@@QAE@XZ 005376b0 f i tex.obj
 0001:001366c0       ??0?$_Vector_const_iterator@V?$_Vector_val@U?$_Simple_types@V?$basic_string@DU?$char_traits@D@std@@V?$allocator@D@2@@std@@@std@@@std@@@std@@QAE@PAV?$basic_string@DU?$char_traits@D@std@@V?$allocator@D@2@@1@PBU_Container_base0@1@@Z 005376c0 f i tex.obj
 0001:001366d0       ??0?$_Vector_iterator@V?$_Vector_val@U?$_Simple_types@PAUTexFormat_s@@@std@@@std@@@std@@QAE@PAPAUTexFormat_s@@PBU_Container_base0@1@@Z 005376d0 f i tex.obj
 0001:001366e0       ??0?$_Vector_iterator@V?$_Vector_val@U?$_Simple_types@PAUTexFormat_s@@@std@@@std@@@std@@QAE@XZ 005376e0 f i tex.obj
 0001:001366f0       ??0?$_Vector_iterator@V?$_Vector_val@U?$_Simple_types@PAUTexTool_s@@@std@@@std@@@std@@QAE@PAPAUTexTool_s@@PBU_Container_base0@1@@Z 005376f0 f i tex.obj
 0001:00136700       ??0?$_Vector_iterator@V?$_Vector_val@U?$_Simple_types@PAUTexTool_s@@@std@@@std@@@std@@QAE@XZ 00537700 f i tex.obj
 0001:00136710       ??0?$_Vector_iterator@V?$_Vector_val@U?$_Simple_types@V?$basic_string@DU?$char_traits@D@std@@V?$allocator@D@2@@std@@@std@@@std@@@std@@QAE@PAV?$basic_string@DU?$char_traits@D@std@@V?$allocator@D@2@@1@PBU_Container_base0@1@@Z 00537710 f i tex.obj
 0001:00136720       ??0?$_Vector_val@U?$_Simple_types@V?$basic_string@DU?$char_traits@D@std@@V?$allocator@D@2@@std@@@std@@@std@@QAE@XZ 00537720 f i tex.obj
 0001:00136740       ??0?$_Wrap_alloc@V?$allocator@V?$basic_string@DU?$char_traits@D@std@@V?$allocator@D@2@@std@@@std@@@std@@QAE@XZ 00537740 f i tex.obj
 0001:00136750       ??0?$allocator@V?$basic_string@DU?$char_traits@D@std@@V?$allocator@D@2@@std@@@std@@QAE@XZ 00537750 f i tex.obj
 0001:00136760       ??0?$basic_string@DU?$char_traits@D@std@@V?$allocator@D@2@@std@@QAE@$$QAV01@@Z 00537760 f i tex.obj
 0001:001367d0       ??0?$vector@V?$basic_string@DU?$char_traits@D@std@@V?$allocator@D@2@@std@@V?$allocator@V?$basic_string@DU?$char_traits@D@std@@V?$allocator@D@2@@std@@@2@@std@@QAE@XZ 005377d0 f i tex.obj
 0001:001367f0       ??1?$vector@V?$basic_string@DU?$char_traits@D@std@@V?$allocator@D@2@@std@@V?$allocator@V?$basic_string@DU?$char_traits@D@std@@V?$allocator@D@2@@std@@@2@@std@@QAE@XZ 005377f0 f i tex.obj
 0001:00136830       ??C?$_Vector_iterator@V?$_Vector_val@U?$_Simple_types@V?$basic_string@DU?$char_traits@D@std@@V?$allocator@D@2@@std@@@std@@@std@@@std@@QBEPAV?$basic_string@DU?$char_traits@D@std@@V?$allocator@D@2@@1@XZ 00537830 f i tex.obj
 0001:00136840       ??D?$_Vector_const_iterator@V?$_Vector_val@U?$_Simple_types@PAUTexFormat_s@@@std@@@std@@@std@@QBEABQAUTexFormat_s@@XZ 00537840 f i tex.obj
 0001:00136850       ??D?$_Vector_const_iterator@V?$_Vector_val@U?$_Simple_types@PAUTexTool_s@@@std@@@std@@@std@@QBEABQAUTexTool_s@@XZ 00537850 f i tex.obj
 0001:00136860       ??D?$_Vector_const_iterator@V?$_Vector_val@U?$_Simple_types@V?$basic_string@DU?$char_traits@D@std@@V?$allocator@D@2@@std@@@std@@@std@@@std@@QBEABV?$basic_string@DU?$char_traits@D@std@@V?$allocator@D@2@@1@XZ 00537860 f i tex.obj
 0001:00136870       ??D?$_Vector_iterator@V?$_Vector_val@U?$_Simple_types@PAUTexFormat_s@@@std@@@std@@@std@@QBEAAPAUTexFormat_s@@XZ 00537870 f i tex.obj
 0001:00136880       ??D?$_Vector_iterator@V?$_Vector_val@U?$_Simple_types@PAUTexTool_s@@@std@@@std@@@std@@QBEAAPAUTexTool_s@@XZ 00537880 f i tex.obj
 0001:00136890       ??D?$_Vector_iterator@V?$_Vector_val@U?$_Simple_types@V?$basic_string@DU?$char_traits@D@std@@V?$allocator@D@2@@std@@@std@@@std@@@std@@QBEAAV?$basic_string@DU?$char_traits@D@std@@V?$allocator@D@2@@1@XZ 00537890 f i tex.obj
 0001:001368a0       ??E?$_Vector_const_iterator@V?$_Vector_val@U?$_Simple_types@PAUTexFormat_s@@@std@@@std@@@std@@QAEAAV01@XZ 005378a0 f i tex.obj
 0001:001368b0       ??E?$_Vector_const_iterator@V?$_Vector_val@U?$_Simple_types@PAUTexTool_s@@@std@@@std@@@std@@QAEAAV01@XZ 005378b0 f i tex.obj
 0001:001368c0       ??E?$_Vector_const_iterator@V?$_Vector_val@U?$_Simple_types@V?$basic_string@DU?$char_traits@D@std@@V?$allocator@D@2@@std@@@std@@@std@@@std@@QAEAAV01@XZ 005378c0 f i tex.obj
 0001:001368d0       ??E?$_Vector_iterator@V?$_Vector_val@U?$_Simple_types@PAUTexFormat_s@@@std@@@std@@@std@@QAE?AV01@H@Z 005378d0 f i tex.obj
 0001:001368f0       ??E?$_Vector_iterator@V?$_Vector_val@U?$_Simple_types@PAUTexFormat_s@@@std@@@std@@@std@@QAEAAV01@XZ 005378f0 f i tex.obj
 0001:00136900       ??E?$_Vector_iterator@V?$_Vector_val@U?$_Simple_types@PAUTexTool_s@@@std@@@std@@@std@@QAE?AV01@H@Z 00537900 f i tex.obj
 0001:00136920       ??E?$_Vector_iterator@V?$_Vector_val@U?$_Simple_types@PAUTexTool_s@@@std@@@std@@@std@@QAEAAV01@XZ 00537920 f i tex.obj
 0001:00136930       ??E?$_Vector_iterator@V?$_Vector_val@U?$_Simple_types@V?$basic_string@DU?$char_traits@D@std@@V?$allocator@D@2@@std@@@std@@@std@@@std@@QAE?AV01@H@Z 00537930 f i tex.obj
 0001:00136950       ??E?$_Vector_iterator@V?$_Vector_val@U?$_Simple_types@V?$basic_string@DU?$char_traits@D@std@@V?$allocator@D@2@@std@@@std@@@std@@@std@@QAEAAV01@XZ 00537950 f i tex.obj
 0001:00136960       ??M?$_Vector_const_iterator@V?$_Vector_val@U?$_Simple_types@PAUTexFormat_s@@@std@@@std@@@std@@QBE_NABV01@@Z 00537960 f i tex.obj
 0001:00136980       ??M?$_Vector_const_iterator@V?$_Vector_val@U?$_Simple_types@PAUTexTool_s@@@std@@@std@@@std@@QBE_NABV01@@Z 00537980 f i tex.obj
 0001:001369a0       ??M?$_Vector_const_iterator@V?$_Vector_val@U?$_Simple_types@V?$basic_string@DU?$char_traits@D@std@@V?$allocator@D@2@@std@@@std@@@std@@@std@@QBE_NABV01@@Z 005379a0 f i tex.obj
 0001:001369c0       ??P?$_Vector_const_iterator@V?$_Vector_val@U?$_Simple_types@PAUTexFormat_s@@@std@@@std@@@std@@QBE_NABV01@@Z 005379c0 f i tex.obj
 0001:001369e0       ??P?$_Vector_const_iterator@V?$_Vector_val@U?$_Simple_types@PAUTexTool_s@@@std@@@std@@@std@@QBE_NABV01@@Z 005379e0 f i tex.obj
 0001:00136a00       ??_G?$basic_string@DU?$char_traits@D@std@@V?$allocator@D@2@@std@@QAEPAXI@Z 00537a00 f i tex.obj
 0001:00136a40       ?CommandLineOptions@@YAXXZ 00537a40 f   tex.obj
 0001:001372a0       ?FreeCodecs@@YAXXZ         005382a0 f   tex.obj
 0001:00137310       ?FreeContainers@@YAXXZ     00538310 f   tex.obj
 0001:00137350       ?FreeFormats@@YAXXZ        00538350 f   tex.obj
 0001:00137400       ?FreeTools@@YAXXZ          00538400 f   tex.obj
 0001:001374f0       ?RegisterCodec@@YAXPAUTexCodec_s@@@Z 005384f0 f   tex.obj
 0001:001377a0       ?RegisterContainer@@YAXPAUTexContainer_s@@@Z 005387a0 f   tex.obj
 0001:00137880       ?RegisterFormat@@YAXPAUTexFormat_s@@PAUTexTool_s@@@Z 00538880 f   tex.obj
 0001:001378a0       ?RegisterTool@@YAXPAUTexTool_s@@PAUTexCodec_s@@@Z 005388a0 f   tex.obj
 0001:00137a90       ?TexMain@@YAHHPAPAD@Z      00538a90 f   tex.obj
 0001:001383d0       ?Tex_Help@@YAXXZ           005393d0 f   tex.obj
 0001:00138400       ?Tex_Init@@YAXXZ           00539400 f   tex.obj
 0001:00138760       ?Tex_LinkTools@@YAXXZ      00539760 f   tex.obj
 0001:00138860       ?Tex_PrintCodecs@@YAXXZ    00539860 f   tex.obj
 0001:001388b0       ?Tex_PrintContainers@@YAXXZ 005398b0 f   tex.obj
 0001:00138900       ?Tex_PrintTools@@YAXXZ     00539900 f   tex.obj
 0001:00138950       ?Tex_Shutdown@@YAXXZ       00539950 f   tex.obj
 0001:00138970       ?UseCodec@@YAXPAUTexCodec_s@@@Z 00539970 f   tex.obj
 0001:00138a40       ?_Assign_rv@?$basic_string@DU?$char_traits@D@std@@V?$allocator@D@2@@std@@QAEX$$QAV12@@Z 00539a40 f i tex.obj
 0001:00138aa0       ?_Compat@?$_Vector_const_iterator@V?$_Vector_val@U?$_Simple_types@PAUTexFormat_s@@@std@@@std@@@std@@QBEXABV12@@Z 00539aa0 f i tex.obj
 0001:00138ab0       ?_Compat@?$_Vector_const_iterator@V?$_Vector_val@U?$_Simple_types@PAUTexTool_s@@@std@@@std@@@std@@QBEXABV12@@Z 00539ab0 f i tex.obj
 0001:00138ac0       ?_Compat@?$_Vector_const_iterator@V?$_Vector_val@U?$_Simple_types@V?$basic_string@DU?$char_traits@D@std@@V?$allocator@D@2@@std@@@std@@@std@@@std@@QBEXABV12@@Z 00539ac0 f i tex.obj
 0001:00138ad0       ?_Destroy@?$vector@V?$basic_string@DU?$char_traits@D@std@@V?$allocator@D@2@@std@@V?$allocator@V?$basic_string@DU?$char_traits@D@std@@V?$allocator@D@2@@std@@@2@@std@@IAEXPAV?$basic_string@DU?$char_traits@D@std@@V?$allocator@D@2@@2@0@Z 00539ad0 f i tex.obj
 0001:00138b10       ?_Getal@?$_Vector_alloc@$0A@U?$_Vec_base_types@V?$basic_string@DU?$char_traits@D@std@@V?$allocator@D@2@@std@@V?$allocator@V?$basic_string@DU?$char_traits@D@std@@V?$allocator@D@2@@std@@@2@@std@@@std@@QBE?AU?$_Wrap_alloc@V?$allocator@V?$basic_string@DU?$char_traits@D@std@@V?$allocator@D@2@@std@@@std@@@2@XZ 00539b10 f i tex.obj
 0001:00138b20       ?_Grow_to@?$vector@PAUTexFormat_s@@V?$allocator@PAUTexFormat_s@@@std@@@std@@IBEII@Z 00539b20 f i tex.obj
 0001:00138b60       ?_Grow_to@?$vector@PAUTexTool_s@@V?$allocator@PAUTexTool_s@@@std@@@std@@IBEII@Z 00539b60 f i tex.obj
 0001:00138ba0       ?_Grow_to@?$vector@V?$basic_string@DU?$char_traits@D@std@@V?$allocator@D@2@@std@@V?$allocator@V?$basic_string@DU?$char_traits@D@std@@V?$allocator@D@2@@std@@@2@@std@@IBEII@Z 00539ba0 f i tex.obj
 0001:00138bf0       ?_Inside@?$vector@PAUTexFormat_s@@V?$allocator@PAUTexFormat_s@@@std@@@std@@IBE_NPBQAUTexFormat_s@@@Z 00539bf0 f i tex.obj
 0001:00138c10       ?_Inside@?$vector@PAUTexTool_s@@V?$allocator@PAUTexTool_s@@@std@@@std@@IBE_NPBQAUTexTool_s@@@Z 00539c10 f i tex.obj
 0001:00138c30       ?_Inside@?$vector@V?$basic_string@DU?$char_traits@D@std@@V?$allocator@D@2@@std@@V?$allocator@V?$basic_string@DU?$char_traits@D@std@@V?$allocator@D@2@@std@@@2@@std@@IBE_NPBV?$basic_string@DU?$char_traits@D@std@@V?$allocator@D@2@@2@@Z 00539c30 f i tex.obj
 0001:00138c50       ?_Orphan_range@?$vector@PAUTexFormat_s@@V?$allocator@PAUTexFormat_s@@@std@@@std@@IBEXPAPAUTexFormat_s@@0@Z 00539c50 f i tex.obj
 0001:00138c60       ?_Orphan_range@?$vector@PAUTexTool_s@@V?$allocator@PAUTexTool_s@@@std@@@std@@IBEXPAPAUTexTool_s@@0@Z 00539c60 f i tex.obj
 0001:00138c70       ?_Orphan_range@?$vector@V?$basic_string@DU?$char_traits@D@std@@V?$allocator@D@2@@std@@V?$allocator@V?$basic_string@DU?$char_traits@D@std@@V?$allocator@D@2@@std@@@2@@std@@IBEXPAV?$basic_string@DU?$char_traits@D@std@@V?$allocator@D@2@@2@0@Z 00539c70 f i tex.obj
 0001:00138c80       ?_Reallocate@?$vector@PAUTexFormat_s@@V?$allocator@PAUTexFormat_s@@@std@@@std@@IAEXI@Z 00539c80 f i tex.obj
 0001:00138d00       ?_Reallocate@?$vector@PAUTexTool_s@@V?$allocator@PAUTexTool_s@@@std@@@std@@IAEXI@Z 00539d00 f i tex.obj
 0001:00138d80       ?_Reallocate@?$vector@V?$basic_string@DU?$char_traits@D@std@@V?$allocator@D@2@@std@@V?$allocator@V?$basic_string@DU?$char_traits@D@std@@V?$allocator@D@2@@std@@@2@@std@@IAEXI@Z 00539d80 f i tex.obj
 0001:00138e70       ?_RegisterFormat@@YAXPAUTexFormat_s@@PAUTexTool_s@@0@Z 00539e70 f   tex.obj
 0001:001390d0       ?_Reserve@?$vector@PAUTexFormat_s@@V?$allocator@PAUTexFormat_s@@@std@@@std@@IAEXI@Z 0053a0d0 f i tex.obj
 0001:00139150       ?_Reserve@?$vector@PAUTexTool_s@@V?$allocator@PAUTexTool_s@@@std@@@std@@IAEXI@Z 0053a150 f i tex.obj
 0001:001391d0       ?_Reserve@?$vector@V?$basic_string@DU?$char_traits@D@std@@V?$allocator@D@2@@std@@V?$allocator@V?$basic_string@DU?$char_traits@D@std@@V?$allocator@D@2@@std@@@2@@std@@IAEXI@Z 0053a1d0 f i tex.obj
 0001:00139280       ?_Tidy@?$vector@V?$basic_string@DU?$char_traits@D@std@@V?$allocator@D@2@@std@@V?$allocator@V?$basic_string@DU?$char_traits@D@std@@V?$allocator@D@2@@std@@@2@@std@@IAEXXZ 0053a280 f i tex.obj
 0001:001392c0       ?_Unused_capacity@?$vector@PAUTexFormat_s@@V?$allocator@PAUTexFormat_s@@@std@@@std@@QBEIXZ 0053a2c0 f i tex.obj
 0001:001392d0       ?_Unused_capacity@?$vector@PAUTexTool_s@@V?$allocator@PAUTexTool_s@@@std@@@std@@QBEIXZ 0053a2d0 f i tex.obj
 0001:001392e0       ?_Unused_capacity@?$vector@V?$basic_string@DU?$char_traits@D@std@@V?$allocator@D@2@@std@@V?$allocator@V?$basic_string@DU?$char_traits@D@std@@V?$allocator@D@2@@std@@@2@@std@@QBEIXZ 0053a2e0 f i tex.obj
 0001:00139300       ?_Xlen@?$vector@PAUTexFormat_s@@V?$allocator@PAUTexFormat_s@@@std@@@std@@IBEXXZ 0053a300 f i tex.obj
 0001:00139310       ?_Xlen@?$vector@PAUTexTool_s@@V?$allocator@PAUTexTool_s@@@std@@@std@@IBEXXZ 0053a310 f i tex.obj
 0001:00139320       ?_Xlen@?$vector@V?$basic_string@DU?$char_traits@D@std@@V?$allocator@D@2@@std@@V?$allocator@V?$basic_string@DU?$char_traits@D@std@@V?$allocator@D@2@@std@@@2@@std@@IBEXXZ 0053a320 f i tex.obj
 0001:00139330       ?allocate@?$_Wrap_alloc@V?$allocator@PAUTexFormat_s@@@std@@@std@@QAEPAPAUTexFormat_s@@I@Z 0053a330 f i tex.obj
 0001:00139370       ?allocate@?$_Wrap_alloc@V?$allocator@PAUTexTool_s@@@std@@@std@@QAEPAPAUTexTool_s@@I@Z 0053a370 f i tex.obj
 0001:001393b0       ?allocate@?$_Wrap_alloc@V?$allocator@V?$basic_string@DU?$char_traits@D@std@@V?$allocator@D@2@@std@@@std@@@std@@QAEPAV?$basic_string@DU?$char_traits@D@std@@V?$allocator@D@2@@2@I@Z 0053a3b0 f i tex.obj
 0001:001393f0       ?allocate@?$allocator@PAUTexFormat_s@@@std@@QAEPAPAUTexFormat_s@@I@Z 0053a3f0 f i tex.obj
 0001:00139430       ?allocate@?$allocator@PAUTexTool_s@@@std@@QAEPAPAUTexTool_s@@I@Z 0053a430 f i tex.obj
 0001:00139470       ?allocate@?$allocator@V?$basic_string@DU?$char_traits@D@std@@V?$allocator@D@2@@std@@@std@@QAEPAV?$basic_string@DU?$char_traits@D@std@@V?$allocator@D@2@@2@I@Z 0053a470 f i tex.obj
 0001:001394b0       ?begin@?$vector@PAUTexFormat_s@@V?$allocator@PAUTexFormat_s@@@std@@@std@@QAE?AV?$_Vector_iterator@V?$_Vector_val@U?$_Simple_types@PAUTexFormat_s@@@std@@@std@@@2@XZ 0053a4b0 f i tex.obj
 0001:001394c0       ?begin@?$vector@PAUTexTool_s@@V?$allocator@PAUTexTool_s@@@std@@@std@@QAE?AV?$_Vector_iterator@V?$_Vector_val@U?$_Simple_types@PAUTexTool_s@@@std@@@std@@@2@XZ 0053a4c0 f i tex.obj
 0001:001394d0       ?begin@?$vector@V?$basic_string@DU?$char_traits@D@std@@V?$allocator@D@2@@std@@V?$allocator@V?$basic_string@DU?$char_traits@D@std@@V?$allocator@D@2@@std@@@2@@std@@QAE?AV?$_Vector_iterator@V?$_Vector_val@U?$_Simple_types@V?$basic_string@DU?$char_traits@D@std@@V?$allocator@D@2@@std@@@std@@@std@@@2@XZ 0053a4d0 f i tex.obj
 0001:001394e0       ?capacity@?$vector@PAUTexFormat_s@@V?$allocator@PAUTexFormat_s@@@std@@@std@@QBEIXZ 0053a4e0 f i tex.obj
 0001:001394f0       ?capacity@?$vector@PAUTexTool_s@@V?$allocator@PAUTexTool_s@@@std@@@std@@QBEIXZ 0053a4f0 f i tex.obj
 0001:00139500       ?capacity@?$vector@V?$basic_string@DU?$char_traits@D@std@@V?$allocator@D@2@@std@@V?$allocator@V?$basic_string@DU?$char_traits@D@std@@V?$allocator@D@2@@std@@@2@@std@@QBEIXZ 0053a500 f i tex.obj
 0001:00139520       ?ceil@@YAMM@Z              0053a520 f i tex.obj
 0001:00139560       ?clear@?$vector@UCompareOption@@V?$allocator@UCompareOption@@@std@@@std@@QAEXXZ 0053a560 f i tex.obj
 0001:00139590       ?clear@?$vector@UFS_File@@V?$allocator@UFS_File@@@std@@@std@@QAEXXZ 0053a590 f i tex.obj
 0001:001395d0       ?clear@?$vector@V?$basic_string@DU?$char_traits@D@std@@V?$allocator@D@2@@std@@V?$allocator@V?$basic_string@DU?$char_traits@D@std@@V?$allocator@D@2@@std@@@2@@std@@QAEXXZ 0053a5d0 f i tex.obj
 0001:001395f0       ?compressedTextureBPP@@YAIPAULoadedImage_s@@PAUTexFormat_s@@PAUTexContainer_s@@@Z 0053a5f0 f   tex.obj
 0001:00139640       ?compressedTextureSize@@YAIPAULoadedImage_s@@PAUTexFormat_s@@PAUTexContainer_s@@_N3@Z 0053a640 f   tex.obj
 0001:00139860       ?construct@?$allocator@PAUTexFormat_s@@@std@@QAEXPAPAUTexFormat_s@@ABQAU3@@Z 0053a860 f i tex.obj
 0001:00139880       ?construct@?$allocator@PAUTexTool_s@@@std@@QAEXPAPAUTexTool_s@@ABQAU3@@Z 0053a880 f i tex.obj
 0001:001398a0       ?deallocate@?$_Wrap_alloc@V?$allocator@V?$basic_string@DU?$char_traits@D@std@@V?$allocator@D@2@@std@@@std@@@std@@QAEXPAV?$basic_string@DU?$char_traits@D@std@@V?$allocator@D@2@@2@I@Z 0053a8a0 f i tex.obj
 0001:001398c0       ?deallocate@?$allocator@V?$basic_string@DU?$char_traits@D@std@@V?$allocator@D@2@@std@@@std@@QAEXPAV?$basic_string@DU?$char_traits@D@std@@V?$allocator@D@2@@2@I@Z 0053a8c0 f i tex.obj
 0001:001398e0       ?end@?$vector@PAUTexFormat_s@@V?$allocator@PAUTexFormat_s@@@std@@@std@@QAE?AV?$_Vector_iterator@V?$_Vector_val@U?$_Simple_types@PAUTexFormat_s@@@std@@@std@@@2@XZ 0053a8e0 f i tex.obj
 0001:001398f0       ?end@?$vector@PAUTexTool_s@@V?$allocator@PAUTexTool_s@@@std@@@std@@QAE?AV?$_Vector_iterator@V?$_Vector_val@U?$_Simple_types@PAUTexTool_s@@@std@@@std@@@2@XZ 0053a8f0 f i tex.obj
 0001:00139900       ?end@?$vector@V?$basic_string@DU?$char_traits@D@std@@V?$allocator@D@2@@std@@V?$allocator@V?$basic_string@DU?$char_traits@D@std@@V?$allocator@D@2@@std@@@2@@std@@QAE?AV?$_Vector_iterator@V?$_Vector_val@U?$_Simple_types@V?$basic_string@DU?$char_traits@D@std@@V?$allocator@D@2@@std@@@std@@@std@@@2@XZ 0053a900 f i tex.obj
 0001:00139910       ?findCodec@@YAPAUTexCodec_s@@PBD_N@Z 0053a910 f   tex.obj
 0001:00139960       ?findContainer@@YAPAUTexContainer_s@@PBD_N@Z 0053a960 f   tex.obj
 0001:001399b0       ?findContainerForFile@@YAPAUTexContainer_s@@PADPAEI@Z 0053a9b0 f   tex.obj
 0001:00139b10       ?findFormat@@YAPAUTexFormat_s@@PBD_N@Z 0053ab10 f   tex.obj
 0001:00139b60       ?findFormatByFourCCAndAlpha@@YA_NK_NPAPAUTexCodec_s@@PAPAUTexFormat_s@@@Z 0053ab60 f   tex.obj
 0001:00139c00       ?findFormatByGLType@@YA_NIIIPAPAUTexCodec_s@@PAPAUTexFormat_s@@@Z 0053ac00 f   tex.obj
 0001:00139c60       ?findTool@@YAPAUTexTool_s@@PBD_N@Z 0053ac60 f   tex.obj
 0001:00139cb0       ?max_size@?$_Wrap_alloc@V?$allocator@PAUTexFormat_s@@@std@@@std@@QBEIXZ 0053acb0 f i tex.obj
 0001:00139cc0       ?max_size@?$_Wrap_alloc@V?$allocator@PAUTexTool_s@@@std@@@std@@QBEIXZ 0053acc0 f i tex.obj
 0001:00139cd0       ?max_size@?$_Wrap_alloc@V?$allocator@V?$basic_string@DU?$char_traits@D@std@@V?$allocator@D@2@@std@@@std@@@std@@QBEIXZ 0053acd0 f i tex.obj
 0001:00139ce0       ?max_size@?$allocator@PAUTexFormat_s@@@std@@QBEIXZ 0053ace0 f i tex.obj
 0001:00139cf0       ?max_size@?$allocator@PAUTexTool_s@@@std@@QBEIXZ 0053acf0 f i tex.obj
 0001:00139d00       ?max_size@?$allocator@V?$basic_string@DU?$char_traits@D@std@@V?$allocator@D@2@@std@@@std@@QBEIXZ 0053ad00 f i tex.obj
 0001:00139d10       ?max_size@?$allocator_traits@V?$allocator@PAUTexFormat_s@@@std@@@std@@SAIABV?$allocator@PAUTexFormat_s@@@2@@Z 0053ad10 f i tex.obj
 0001:00139d20       ?max_size@?$allocator_traits@V?$allocator@PAUTexTool_s@@@std@@@std@@SAIABV?$allocator@PAUTexTool_s@@@2@@Z 0053ad20 f i tex.obj
 0001:00139d30       ?max_size@?$allocator_traits@V?$allocator@V?$basic_string@DU?$char_traits@D@std@@V?$allocator@D@2@@std@@@std@@@std@@SAIABV?$allocator@V?$basic_string@DU?$char_traits@D@std@@V?$allocator@D@2@@std@@@2@@Z 0053ad30 f i tex.obj
 0001:00139d40       ?max_size@?$vector@PAUTexFormat_s@@V?$allocator@PAUTexFormat_s@@@std@@@std@@QBEIXZ 0053ad40 f i tex.obj
 0001:00139d50       ?max_size@?$vector@PAUTexTool_s@@V?$allocator@PAUTexTool_s@@@std@@@std@@QBEIXZ 0053ad50 f i tex.obj
 0001:00139d60       ?max_size@?$vector@V?$basic_string@DU?$char_traits@D@std@@V?$allocator@D@2@@std@@V?$allocator@V?$basic_string@DU?$char_traits@D@std@@V?$allocator@D@2@@std@@@2@@std@@QBEIXZ 0053ad60 f i tex.obj
 0001:00139d70       ?pointer_to@?$pointer_traits@PAV?$basic_string@DU?$char_traits@D@std@@V?$allocator@D@2@@std@@@std@@SAPAV?$basic_string@DU?$char_traits@D@std@@V?$allocator@D@2@@2@AAV32@@Z 0053ad70 f i tex.obj
 0001:00139d80       ?push_back@?$vector@PAUTexFormat_s@@V?$allocator@PAUTexFormat_s@@@std@@@std@@QAEXABQAUTexFormat_s@@@Z 0053ad80 f i tex.obj
 0001:00139df0       ?push_back@?$vector@PAUTexTool_s@@V?$allocator@PAUTexTool_s@@@std@@@std@@QAEXABQAUTexTool_s@@@Z 0053adf0 f i tex.obj
 0001:00139e60       ?push_back@?$vector@V?$basic_string@DU?$char_traits@D@std@@V?$allocator@D@2@@std@@V?$allocator@V?$basic_string@DU?$char_traits@D@std@@V?$allocator@D@2@@std@@@2@@std@@QAEX$$QAV?$basic_string@DU?$char_traits@D@std@@V?$allocator@D@2@@2@@Z 0053ae60 f i tex.obj
 0001:00139ee0       ?size@?$vector@PAUTexFormat_s@@V?$allocator@PAUTexFormat_s@@@std@@@std@@QBEIXZ 0053aee0 f i tex.obj
 0001:00139ef0       ?size@?$vector@PAUTexTool_s@@V?$allocator@PAUTexTool_s@@@std@@@std@@QBEIXZ 0053aef0 f i tex.obj
 0001:00139f00       ?size@?$vector@V?$basic_string@DU?$char_traits@D@std@@V?$allocator@D@2@@std@@V?$allocator@V?$basic_string@DU?$char_traits@D@std@@V?$allocator@D@2@@std@@@2@@std@@QBEIXZ 0053af00 f i tex.obj
 0001:00139f20       _ceilf                     0053af20 f i tex.obj
 0001:00139f60       ??A?$vector@UFS_File@@V?$allocator@UFS_File@@@std@@@std@@QAEAAUFS_File@@I@Z 0053af60 f i tex_compress.obj
 0001:00139f70       ?Compress@@YAXPAUTexEncodeTask_s@@@Z 0053af70 f   tex_compress.obj
 0001:0013a2a0       ?GenerateMipMaps@@YAXPAUTexEncodeTask_s@@_N@Z 0053b2a0 f   tex_compress.obj
 0001:0013a540       ?PreprocessMap@@YAXPAUImageMap_s@@PAUMapProcessParms@@H_N@Z 0053b540 f   tex_compress.obj
 0001:0013a630       ?TexAddZipFile@@YAXPAUTexCompressData@@PAUHZIP__@@PADPAEH@Z 0053b630 f   tex_compress.obj
 0001:0013a700       ?TexCompress_CodecOption@@YAXPAUTexCodec_s@@PBD111H@Z 0053b700 f   tex_compress.obj
 0001:0013aa00       ?TexCompress_Load@@YAXXZ   0053ba00 f   tex_compress.obj
 0001:0013adb0       ?TexCompress_MainThread@@YAXPAUThreadData@@@Z 0053bdb0 f   tex_compress.obj
 0001:0013b230       ?TexCompress_Option@@YAXPBD0000H@Z 0053c230 f   tex_compress.obj
 0001:0013b8c0       ?TexCompress_ToolOption@@YAXPAUTexTool_s@@PBD111H@Z 0053c8c0 f   tex_compress.obj
 0001:0013b8e0       ?TexCompress_WorkerThread@@YAXPAUThreadData@@@Z 0053c8e0 f   tex_compress.obj
 0001:0013c000       ?CalculateCompressionError@@YAXPAULoadedImage_s@@00W4TexErrorMetric@@@Z 0053d000 f   tex_decompress.obj
 0001:0013cd00       ?Decompress@@YAXPAUTexDecodeTask_s@@_NPAULoadedImage_s@@@Z 0053dd00 f   tex_decompress.obj
 0001:0013d160       ?TexDecompress@@YAPAEPADPAUTexEncodeTask_s@@PAI@Z 0053e160 f   tex_decompress.obj
 0001:0013d270       ?TexDecompress@@YA_NPAD@Z  0053e270 f   tex_decompress.obj
 0001:0013d340       ?fabs@@YAMM@Z              0053e340 f i tex_decompress.obj
 0001:0013d370       ?rgb_to_hsb@@YAXHHHPAM@Z   0053e370 f   tex_decompress.obj
 0001:0013d460       ?rgb_to_yuv@@YAXHHHPAM@Z   0053e460 f   tex_decompress.obj
 0001:0013d540       ??1TexTool_s@@QAE@XZ       0053e540 f i tool_atitc.obj
 0001:0013d5b0       ?ATITC_Compress@@YA_NPAUTexEncodeTask_s@@@Z 0053e5b0 f   tool_atitc.obj
 0001:0013d870       ?ATITC_Init@@YAXXZ         0053e870 f   tool_atitc.obj
 0001:0013d910       ?ATITC_Load@@YAXXZ         0053e910 f   tool_atitc.obj
 0001:0013d960       ?ATITC_Option@@YAXPBD000H@Z 0053e960 f   tool_atitc.obj
 0001:0013da90       ?ATITC_Version@@YAPBDXZ    0053ea90 f   tool_atitc.obj
 0001:0013dab0       ?AtiCompressData@@YA?AW4ATI_TC_ERROR@@PAUATI_TC_Texture@@0PAEHHPAUATI_TC_CompressOptions@@W4ATI_TC_FORMAT@@H@Z 0053eab0 f   tool_atitc.obj
 0001:0013db20       ??0crn_comp_params@@QAE@XZ 0053eb20 f i tool_crunch.obj
 0001:0013db30       ?Crunch_Compress@@YA_NPAUTexEncodeTask_s@@@Z 0053eb30 f   tool_crunch.obj
 0001:0013dd80       ?Crunch_CompressSingleImage@@YAIPAEPAUTexEncodeTask_s@@HH0@Z 0053ed80 f   tool_crunch.obj
 0001:0013dfc0       ?Crunch_Init@@YAXXZ        0053efc0 f   tool_crunch.obj
 0001:0013e050       ?Crunch_Load@@YAXXZ        0053f050 f   tool_crunch.obj
 0001:0013e0e0       ?Crunch_Option@@YAXPBD000H@Z 0053f0e0 f   tool_crunch.obj
 0001:0013e260       ?Crunch_Version@@YAPBDXZ   0053f260 f   tool_crunch.obj
 0001:0013e280       ?clear@crn_comp_params@@QAEXXZ 0053f280 f i tool_crunch.obj
 0001:0013e350       ?set_flag@crn_comp_params@@QAEXW4crn_comp_flags@@_N@Z 0053f350 f i tool_crunch.obj
 0001:0013e370       ?ETCPack_Compress@@YA_NPAUTexEncodeTask_s@@@Z 0053f370 f   tool_etcpack.obj
 0001:0013e420       ?ETCPack_CompressBlockETC1@@YAXPAPAEPAE11HHHH@Z 0053f420 f   tool_etcpack.obj
 0001:0013e4f0       ?ETCPack_CompressBlockETC2@@YAXPAPAEPAE11HHHH@Z 0053f4f0 f   tool_etcpack.obj
 0001:0013e5c0       ?ETCPack_CompressBlockETC2A1@@YAXPAPAEPAE11HHHH@Z 0053f5c0 f   tool_etcpack.obj
 0001:0013e640       ?ETCPack_CompressBlockETC2A@@YAXPAPAEPAE11HHHH@Z 0053f640 f   tool_etcpack.obj
 0001:0013e760       ?ETCPack_CompressSingleImage@@YAIPAEPAUTexEncodeTask_s@@HH0P6AXPAPAE000HHHH@Z@Z 0053f760 f   tool_etcpack.obj
 0001:0013e8a0       ?ETCPack_Free@@YAXPAE00H@Z 0053f8a0 f   tool_etcpack.obj
 0001:0013e900       ?ETCPack_Init@@YAXXZ       0053f900 f   tool_etcpack.obj
 0001:0013e990       ?ETCPack_Load@@YAXXZ       0053f990 f   tool_etcpack.obj
 0001:0013e9d0       ?ETCPack_Option@@YAXPBD000H@Z 0053f9d0 f   tool_etcpack.obj
 0001:0013eaf0       ?ETCPack_Prepare@@YAXPAEHHHPAPAE1PAH212_N@Z 0053faf0 f   tool_etcpack.obj
 0001:0013eee0       ?ETCPack_Version@@YAPBDXZ  0053fee0 f   tool_etcpack.obj
 0001:0013eef0       ?ETCPack_WriteAlphaBlock@@YAXPAPAEPAE@Z 0053fef0 f   tool_etcpack.obj
 0001:0013ef10       ?ETCPack_WriteColorBlock@@YAXPAPAEII@Z 0053ff10 f   tool_etcpack.obj
 0001:0013ef60       ?GimpDDS_Compress@@YA_NPAUTexEncodeTask_s@@@Z 0053ff60 f   tool_gimp.obj
 0001:0013f050       ?GimpDDS_CompressSingleImage@@YAHPAE0HHPAUgimpdds_options_s@@@Z 00540050 f   tool_gimp.obj
 0001:0013f150       ?GimpDDS_Init@@YAXXZ       00540150 f   tool_gimp.obj
 0001:0013f1d0       ?GimpDDS_Load@@YAXXZ       005401d0 f   tool_gimp.obj
 0001:0013f2f0       ?GimpDDS_Option@@YAXPBD000H@Z 005402f0 f   tool_gimp.obj
 0001:0013f400       ?GimpDDS_Version@@YAPBDXZ  00540400 f   tool_gimp.obj
 0001:0013f420       ?GimpGetCompressedSize@@YAIHHHHHH@Z 00540420 f   tool_gimp.obj
 0001:0013f4c0       ??0ErrorHandler@nvtt@@QAE@XZ 005404c0 f i tool_nvtt.obj
 0001:0013f4d0       ??0OutputHandler@nvtt@@QAE@XZ 005404d0 f i tool_nvtt.obj
 0001:0013f4e0       ??0nvttErrorHandler@@QAE@XZ 005404e0 f i tool_nvtt.obj
 0001:0013f4f0       ??0nvttOutputHandler@@QAE@XZ 005404f0 f i tool_nvtt.obj
 0001:0013f500       ??1ErrorHandler@nvtt@@UAE@XZ 00540500 f i tool_nvtt.obj
 0001:0013f510       ??1OutputHandler@nvtt@@UAE@XZ 00540510 f i tool_nvtt.obj
 0001:0013f520       ??1nvttErrorHandler@@UAE@XZ 00540520 f i tool_nvtt.obj
 0001:0013f530       ??1nvttOutputHandler@@UAE@XZ 00540530 f i tool_nvtt.obj
 0001:0013f540       ??_EErrorHandler@nvtt@@UAEPAXI@Z 00540540 f i tool_nvtt.obj
 0001:0013f540       ??_GErrorHandler@nvtt@@UAEPAXI@Z 00540540 f i tool_nvtt.obj
 0001:0013f570       ??_GOutputHandler@nvtt@@UAEPAXI@Z 00540570 f i tool_nvtt.obj
 0001:0013f570       ??_EOutputHandler@nvtt@@UAEPAXI@Z 00540570 f i tool_nvtt.obj
 0001:0013f5a0       ??_EnvttErrorHandler@@UAEPAXI@Z 005405a0 f i tool_nvtt.obj
 0001:0013f5a0       ??_GnvttErrorHandler@@UAEPAXI@Z 005405a0 f i tool_nvtt.obj
 0001:0013f5d0       ??_EnvttOutputHandler@@UAEPAXI@Z 005405d0 f i tool_nvtt.obj
 0001:0013f5d0       ??_GnvttOutputHandler@@UAEPAXI@Z 005405d0 f i tool_nvtt.obj
 0001:0013f600       ?NvDXTLib_Init@@YAXXZ      00540600 f   tool_nvtt.obj
 0001:0013f660       ?NvTT_Compress@@YA_NPAUTexEncodeTask_s@@@Z 00540660 f   tool_nvtt.obj
 0001:0013f900       ?NvTT_CompressSingleImage@@YAXAAUInputOptions@nvtt@@AAUOutputOptions@2@PAEHHAAUCompressionOptions@2@@Z 00540900 f   tool_nvtt.obj
 0001:0013f990       ?NvTT_Init@@YAXXZ          00540990 f   tool_nvtt.obj
 0001:0013f9f0       ?NvTT_Load@@YAXXZ          005409f0 f   tool_nvtt.obj
 0001:0013fa00       ?NvTT_Option@@YAXPBD000H@Z 00540a00 f   tool_nvtt.obj
 0001:0013fa10       ?NvTT_Version@@YAPBDXZ     00540a10 f   tool_nvtt.obj
 0001:0013fa60       ?beginImage@nvttOutputHandler@@UAEXHHHHHH@Z 00540a60 f i tool_nvtt.obj
 0001:0013fa70       ?error@nvttErrorHandler@@UAEXW4Error@nvtt@@@Z 00540a70 f i tool_nvtt.obj
 0001:0013fa80       ?writeData@nvttOutputHandler@@UAE_NPBXH@Z 00540a80 f i tool_nvtt.obj
 0001:0013fab0       ??$Copy@I@?$CPVRTArray@I@@QAEXABV0@@Z 00540ab0 f i tool_pvrtex.obj
 0001:0013fb20       ??$Copy@UMetaDataBlock@@@?$CPVRTArray@UMetaDataBlock@@@@QAEXABV0@@Z 00540b20 f i tool_pvrtex.obj
 0001:0013fc30       ??0MetaDataBlock@@QAE@XZ   00540c30 f i tool_pvrtex.obj
 0001:0013fc50       ??1?$CPVRTArray@I@@UAE@XZ  00540c50 f i tool_pvrtex.obj
 0001:0013fc70       ??1?$CPVRTArray@UMetaDataBlock@@@@UAE@XZ 00540c70 f i tool_pvrtex.obj
 0001:0013fca0       ??1?$CPVRTArray@V?$CPVRTMap@IUMetaDataBlock@@@@@@UAE@XZ 00540ca0 f i tool_pvrtex.obj
 0001:0013fcd0       ??1?$CPVRTMap@IUMetaDataBlock@@@@QAE@XZ 00540cd0 f i tool_pvrtex.obj
 0001:0013fd70       ??1?$CPVRTMap@IV?$CPVRTMap@IUMetaDataBlock@@@@@@QAE@XZ 00540d70 f i tool_pvrtex.obj
 0001:0013fe10       ??1CPVRTextureHeader@pvrtexture@@QAE@XZ 00540e10 f i tool_pvrtex.obj
 0001:0013fe20       ??4?$CPVRTArray@I@@QAEAAV0@ABV0@@Z 00540e20 f i tool_pvrtex.obj
 0001:0013fe40       ??4?$CPVRTArray@UMetaDataBlock@@@@QAEAAV0@ABV0@@Z 00540e40 f i tool_pvrtex.obj
 0001:0013fe60       ??4?$CPVRTMap@IUMetaDataBlock@@@@QAEAAV0@ABV0@@Z 00540e60 f i tool_pvrtex.obj
 0001:0013fea0       ??4MetaDataBlock@@QAEAAU0@ABU0@@Z 00540ea0 f i tool_pvrtex.obj
 0001:0013ff10       ??A?$CPVRTArray@I@@QBEABII@Z 00540f10 f i tool_pvrtex.obj
 0001:0013ff20       ??A?$CPVRTArray@UMetaDataBlock@@@@QBEABUMetaDataBlock@@I@Z 00540f20 f i tool_pvrtex.obj
 0001:0013ff30       ??_E?$CPVRTMap@IUMetaDataBlock@@@@QAEPAXI@Z 00540f30 f i tool_pvrtex.obj
 0001:0013ff90       ??_E?$CPVRTArray@I@@UAEPAXI@Z 00540f90 f i tool_pvrtex.obj
 0001:0013ff90       ??_G?$CPVRTArray@I@@UAEPAXI@Z 00540f90 f i tool_pvrtex.obj
 0001:0013ffd0       ??_E?$CPVRTArray@UMetaDataBlock@@@@UAEPAXI@Z 00540fd0 f i tool_pvrtex.obj
 0001:0013ffd0       ??_G?$CPVRTArray@UMetaDataBlock@@@@UAEPAXI@Z 00540fd0 f i tool_pvrtex.obj
 0001:00140020       ??_E?$CPVRTArray@V?$CPVRTMap@IUMetaDataBlock@@@@@@UAEPAXI@Z 00541020 f i tool_pvrtex.obj
 0001:00140020       ??_G?$CPVRTArray@V?$CPVRTMap@IUMetaDataBlock@@@@@@UAEPAXI@Z 00541020 f i tool_pvrtex.obj
 0001:00140070       ?Clear@?$CPVRTArray@I@@QAEXXZ 00541070 f i tool_pvrtex.obj
 0001:00140080       ?Clear@?$CPVRTArray@UMetaDataBlock@@@@QAEXXZ 00541080 f i tool_pvrtex.obj
 0001:00140090       ?Clear@?$CPVRTArray@V?$CPVRTMap@IUMetaDataBlock@@@@@@QAEXXZ 00541090 f i tool_pvrtex.obj
 0001:001400a0       ?Clear@?$CPVRTMap@IUMetaDataBlock@@@@QAEXXZ 005410a0 f i tool_pvrtex.obj
 0001:001400c0       ?Clear@?$CPVRTMap@IV?$CPVRTMap@IUMetaDataBlock@@@@@@QAEXXZ 005410c0 f i tool_pvrtex.obj
 0001:001400e0       ?GetCapacity@?$CPVRTArray@I@@QBEIXZ 005410e0 f i tool_pvrtex.obj
 0001:001400f0       ?GetCapacity@?$CPVRTArray@UMetaDataBlock@@@@QBEIXZ 005410f0 f i tool_pvrtex.obj
 0001:00140100       ?GetSize@?$CPVRTArray@I@@QBEIXZ 00541100 f i tool_pvrtex.obj
 0001:00140110       ?GetSize@?$CPVRTArray@UMetaDataBlock@@@@QBEIXZ 00541110 f i tool_pvrtex.obj
 0001:00140120       ?PVRTex_Compress@@YA_NPAUTexEncodeTask_s@@@Z 00541120 f   tool_pvrtex.obj
 0001:00140510       ?PVRTex_CompressSingleImage@@YAIPAEPAUTexEncodeTask_s@@HH0@Z 00541510 f   tool_pvrtex.obj
 0001:00140860       ?PVRTex_Init@@YAXXZ        00541860 f   tool_pvrtex.obj
 0001:001409c0       ?PVRTex_Load@@YAXXZ        005419c0 f   tool_pvrtex.obj
 0001:00140a10       ?PVRTex_Option@@YAXPBD000H@Z 00541a10 f   tool_pvrtex.obj
 0001:00140ba0       ?PVRTex_Version@@YAPBDXZ   00541ba0 f   tool_pvrtex.obj
 0001:00140bb0       ?Remove@?$CPVRTArray@I@@UAE?AW4EPVRTError@@I@Z 00541bb0 f i tool_pvrtex.obj
 0001:00140c00       ?Remove@?$CPVRTArray@UMetaDataBlock@@@@UAE?AW4EPVRTError@@I@Z 00541c00 f i tool_pvrtex.obj
 0001:00140cd0       ?Remove@?$CPVRTArray@V?$CPVRTMap@IUMetaDataBlock@@@@@@UAE?AW4EPVRTError@@I@Z 00541cd0 f i tool_pvrtex.obj
 0001:00140d70       ?RemoveLast@?$CPVRTArray@I@@UAE?AW4EPVRTError@@XZ 00541d70 f i tool_pvrtex.obj
 0001:00140d90       ?RemoveLast@?$CPVRTArray@UMetaDataBlock@@@@UAE?AW4EPVRTError@@XZ 00541d90 f i tool_pvrtex.obj
 0001:00140db0       ?RemoveLast@?$CPVRTArray@V?$CPVRTMap@IUMetaDataBlock@@@@@@UAE?AW4EPVRTError@@XZ 00541db0 f i tool_pvrtex.obj
 0001:00140dd0       ??0etc1_pack_params@rg_etc1@@QAE@XZ 00541dd0 f i tool_rgetc1.obj
 0001:00140de0       ?RgEtc1_Compress@@YA_NPAUTexEncodeTask_s@@@Z 00541de0 f   tool_rgetc1.obj
 0001:00140f30       ?RgEtc1_CompressSingleImage@@YAIPAEPAUTexEncodeTask_s@@HH0HAAUetc1_pack_params@rg_etc1@@@Z 00541f30 f   tool_rgetc1.obj
 0001:00140ff0       ?RgEtc1_Init@@YAXXZ        00541ff0 f   tool_rgetc1.obj
 0001:00141030       ?RgEtc1_Load@@YAXXZ        00542030 f   tool_rgetc1.obj
 0001:00141080       ?RgEtc1_Option@@YAXPBD000H@Z 00542080 f   tool_rgetc1.obj
 0001:001411b0       ?RgEtc1_Version@@YAPBDXZ   005421b0 f   tool_rgetc1.obj
 0001:001411c0       ?clear@etc1_pack_params@rg_etc1@@QAEXXZ 005421c0 f i tool_rgetc1.obj
 0001:001411d0       ?PackBGRAData@@YAIPAUTexEncodeTask_s@@PAE1HH@Z 005421d0 f   tool_rwgtt.obj
 0001:001412d0       ?ToolRWGTP_Compress@@YA_NPAUTexEncodeTask_s@@@Z 005422d0 f   tool_rwgtt.obj
 0001:00141410       ?ToolRWGTP_Init@@YAXXZ     00542410 f   tool_rwgtt.obj
 0001:00141450       ?ToolRWGTP_Load@@YAXXZ     00542450 f   tool_rwgtt.obj
 0001:00141460       ?ToolRWGTP_Option@@YAXPBD000H@Z 00542460 f   tool_rwgtt.obj
 0001:00141470       ?ToolRWGTP_Version@@YAPBDXZ 00542470 f   tool_rwgtt.obj
 0001:00141490       ?AddSlash@@YAXAAV?$basic_string@DU?$char_traits@D@std@@V?$allocator@D@2@@std@@@Z 00542490 f   cmd.obj
 0001:001414f0       ?AddSlash@@YAXPAD@Z        005424f0 f   cmd.obj
 0001:00141530       ?AddSuffix@@YAXPAD00@Z     00542530 f   cmd.obj
 0001:00141640       ?BigFloat@@YAMM@Z          00542640 f   cmd.obj
 0001:00141670       ?BigLong@@YAHH@Z           00542670 f   cmd.obj
 0001:001416b0       ?BigShort@@YAFF@Z          005426b0 f   cmd.obj
 0001:001416d0       ?COM_Parse@@YAPADPAD@Z     005426d0 f   cmd.obj
 0001:00141830       ?CRC_Init@@YAXPAG@Z        00542830 f   cmd.obj
 0001:00141840       ?CRC_ProcessByte@@YAXPAGE@Z 00542840 f   cmd.obj
 0001:00141870       ?CRC_Value@@YAGG@Z         00542870 f   cmd.obj
 0001:00141880       ?ChangeDirectory@@YAXPAD@Z 00542880 f   cmd.obj
 0001:001418f0       ?CheckParm@@YA_NPAD@Z      005428f0 f   cmd.obj
 0001:00141aa0       ?ConvDot@@YAPADPAD@Z       00542aa0 f   cmd.obj
 0001:00141ad0       ?ConvSlashU2W@@YAPADPAD@Z  00542ad0 f   cmd.obj
 0001:00141b00       ?ConvSlashW2U@@YAPADPAD@Z  00542b00 f   cmd.obj
 0001:00141b30       ?CountWrappedFiles@@YAHXZ  00542b30 f   cmd.obj
 0001:00141b50       ?CreatePath@@YAXPAD@Z      00542b50 f   cmd.obj
 0001:00141cb0       ?DefaultExtension@@YAXPADPBDI@Z 00542cb0 f   cmd.obj
 0001:00141d00       ?DefaultPath@@YAXPAD0@Z    00542d00 f   cmd.obj
 0001:00141da0       ?Error@@YAXPADZZ           00542da0 f   cmd.obj
 0001:00141e80       ?ExtractFileBase@@YAXPAD0@Z 00542e80 f   cmd.obj
 0001:00141ef0       ?ExtractFileExtension@@YAXPAD0@Z 00542ef0 f   cmd.obj
 0001:00141f40       ?ExtractFileName@@YAXPAD0@Z 00542f40 f   cmd.obj
 0001:00141fa0       ?ExtractFilePath@@YAXPAD0@Z 00542fa0 f   cmd.obj
 0001:00142000       ?ExtractFileSuffix@@YAXPAD0D@Z 00543000 f   cmd.obj
 0001:00142060       ?FileExists@@YA_NPAD@Z     00543060 f   cmd.obj
 0001:001420a0       ?FileSize@@YAIPBD@Z        005430a0 f   cmd.obj
 0001:001420e0       ?FileTime@@YAHPAD@Z        005430e0 f   cmd.obj
 0001:00142120       ?FreeWrappedFiles@@YAXXZ   00543120 f   cmd.obj
 0001:00142170       ?GetDirectory@@YAXPADH@Z   00543170 f   cmd.obj
 0001:00142180       ?GetRealPath@@YAXPAD0@Z    00543180 f   cmd.obj
 0001:00142220       ?I_DoubleTime@@YANXZ       00543220 f   cmd.obj
 0001:001422f0       ?LittleLong@@YAHH@Z        005432f0 f   cmd.obj
 0001:00142300       ?LittleShort@@YAFF@Z       00543300 f   cmd.obj
 0001:00142310       ?LoadFile@@YAHPADPAPAE@Z   00543310 f   cmd.obj
 0001:001423c0       ?LoadFileUnsafe@@YAIPADPAPAE@Z 005433c0 f   cmd.obj
 0001:00142460       ?LoadWrappedFile@@YAHHPAPAEPAPAD@Z 00543460 f   cmd.obj
 0001:00142510       ?OpenReadWrite@@YAPAU_iobuf@@PAD@Z 00543510 f   cmd.obj
 0001:00142580       ?Pacifier@@YAXPADZZ        00543580 f   cmd.obj
 0001:001425e0       ?PacifierEnd@@YAXXZ        005435e0 f   cmd.obj
 0001:00142600       ?ParseHex@@YAHPAD@Z        00543600 f   cmd.obj
 0001:00142660       ?ParseNum@@YAHPAD@Z        00543660 f   cmd.obj
 0001:001426a0       ?PercentPacifier@@YAXPADZZ 005436a0 f   cmd.obj
 0001:00142740       ?Print@@YAXPADZZ           00543740 f   cmd.obj
 0001:00142760       ?Q_filelength@@YAIPAU_iobuf@@@Z 00543760 f   cmd.obj
 0001:001427a0       ?Q_mkdir@@YAXPAD@Z         005437a0 f   cmd.obj
 0001:001427e0       ?Q_strcasecmp@@YAHPAD0@Z   005437e0 f   cmd.obj
 0001:00142800       ?Q_strlower@@YAPADPAD@Z    00543800 f   cmd.obj
 0001:00142830       ?Q_strncasecmp@@YAHPAD0H@Z 00543830 f   cmd.obj
 0001:00142890       ?Q_strupr@@YAPADPAD@Z      00543890 f   cmd.obj
 0001:001428c0       ?ReadInt@@YAHPAE@Z         005438c0 f   cmd.obj
 0001:001428d0       ?ReadShort@@YAHPAE@Z       005438d0 f   cmd.obj
 0001:001428f0       ?ReadSignedByte@@YAHPAE@Z  005438f0 f   cmd.obj
 0001:00142900       ?ReadUInt@@YAIPAE@Z        00543900 f   cmd.obj
 0001:00142930       ?ReadUShort@@YAIPAE@Z      00543930 f   cmd.obj
 0001:00142950       ?ReplaceExtension@@YAXPAD000@Z 00543950 f   cmd.obj
 0001:00142a10       ?SafeOpen@@YAPAU_iobuf@@PADQAD@Z 00543a10 f   cmd.obj
 0001:00142a50       ?SafeOpenWrite@@YAPAU_iobuf@@PAD@Z 00543a50 f   cmd.obj
 0001:00142c20       ?SafeRead@@YAXPAU_iobuf@@PAXH@Z 00543c20 f   cmd.obj
 0001:00142c50       ?SafeWrite@@YAXPAU_iobuf@@PAXH@Z 00543c50 f   cmd.obj
 0001:00142c80       ?SimplePacifier@@YAXXZ     00543c80 f   cmd.obj
 0001:00142cc0       ?StripFileExtension@@YAXPAD0@Z 00543cc0 f   cmd.obj
 0001:00142d10       ?TempFileName@@YAXPAD@Z    00543d10 f   cmd.obj
 0001:00142da0       ?Verbose@@YAXPADZZ         00543da0 f   cmd.obj
 0001:00142dd0       ?Warning@@YAXPADZZ         00543dd0 f   cmd.obj
 0001:00142e20       ?WrapFileWritesToMemory@@YAXXZ 00543e20 f   cmd.obj
 0001:00142e30       ?WriteClose@@YAXPAU_iobuf@@@Z 00543e30 f   cmd.obj
 0001:00142e70       ?crc32@@YAIPAEI@Z          00543e70 f   cmd.obj
 0001:00142eb0       ?crc32_init@@YAXXZ         00543eb0 f   cmd.obj
 0001:00142f50       ?dotconv@@YAEE@Z           00543f50 f   cmd.obj
 0001:00142f70       ?strlcat@@YAIPADPBDI@Z     00543f70 f   cmd.obj
 0001:00142fe0       ?strlcpy@@YAIPADPBDI@Z     00543fe0 f   cmd.obj
 0001:00143020       ?unixtowin@@YAEE@Z         00544020 f   cmd.obj
 0001:00143040       ?wintounix@@YAEE@Z         00544040 f   cmd.obj
 0001:00143070       ?CalcCrc32@@YAXEAAK@Z      00544070 f i crc32.obj
 0001:001430a0       ?FileCrc32Assembly@@YAKPBDAAK@Z 005440a0 f   crc32.obj
 0001:00143200       ?FileCrc32Filemap@@YAKPBDAAK@Z 00544200 f   crc32.obj
 0001:001433a0       ?FileCrc32Win32@@YAKPBDAAK@Z 005443a0 f   crc32.obj
 0001:001434a0       ?GetFileSizeQW@@YA_NQAXAA_J@Z 005444a0 f   crc32.obj
 0001:00143500       ?DllGetProcAddress@@YAPAXPAUHINSTANCE__@@PBD@Z 00544500 f   dll.obj
 0001:00143520       ?LoadDll@@YA_NPAPBDPAPAUHINSTANCE__@@PBUdllfunction_s@@_N@Z 00544520 f   dll.obj
 0001:00143710       ?UnloadDll@@YAXPAPAUHINSTANCE__@@@Z 00544710 f   dll.obj
 0001:00143740       ?ICCProfile_Test_sRGB@@YA_NPAXH@Z 00544740 f   freeimage.obj
 0001:00143950       ?_fiFree@@YAPAUFIBITMAP@@PAU1@PADH@Z 00544950 f   freeimage.obj
 0001:00143980       ?fiBindToImage@@YA_NPAUFIBITMAP@@PAULoadedImage_s@@W4FREE_IMAGE_FORMAT@@_N@Z 00544980 f   freeimage.obj
 0001:00143aa0       ?fiBlur@@YAPAUFIBITMAP@@PAU1@H_N@Z 00544aa0 f   freeimage.obj
 0001:00143b80       ?fiClone@@YAPAUFIBITMAP@@PAU1@@Z 00544b80 f   freeimage.obj
 0001:00143c00       ?fiCombine@@YAXPAUFIBITMAP@@0W4FREE_IMAGE_COMBINE@@M_N@Z 00544c00 f   freeimage.obj
 0001:001444e0       ?fiConvertBPP@@YAPAUFIBITMAP@@PAU1@HHPAE@Z 005454e0 f   freeimage.obj
 0001:00144600       ?fiConvertType@@YAPAUFIBITMAP@@PAU1@W4FREE_IMAGE_TYPE@@@Z 00545600 f   freeimage.obj
 0001:001446a0       ?fiCreate@@YAPAUFIBITMAP@@HHHPAD@Z 005456a0 f   freeimage.obj
 0001:00144740       ?fiFilter@@YAPAUFIBITMAP@@PAU1@PANNNH_N@Z 00545740 f   freeimage.obj
 0001:001454d0       ?fiFixTransparentPixels@@YAPAUFIBITMAP@@PAU1@@Z 005464d0 f   freeimage.obj
 0001:00145a20       ?fiFreeUnalignedData@@YAXPAE_N@Z 00546a20 f   freeimage.obj
 0001:00145a50       ?fiGetData@@YAPAEPAUFIBITMAP@@PAH@Z 00546a50 f   freeimage.obj
 0001:00145a80       ?fiGetPalette@@YA_NPAUFIBITMAP@@PAEH@Z 00546a80 f   freeimage.obj
 0001:00145ab0       ?fiGetSize@@YAIPAUFIBITMAP@@@Z 00546ab0 f   freeimage.obj
 0001:00145b00       ?fiGetUnalignedData@@YAPAEPAUFIBITMAP@@PA_N_N@Z 00546b00 f   freeimage.obj
 0001:00145bc0       ?fiLoadData@@YA_NW4FREE_IMAGE_FORMAT@@PAUFS_File@@PAEIPAULoadedImage_s@@@Z 00546bc0 f   freeimage.obj
 0001:00145cc0       ?fiLoadDataRaw@@YA_NHHHPAEI0_NPAULoadedImage_s@@@Z 00546cc0 f   freeimage.obj
 0001:00145f10       ?fiLoadFile@@YA_NW4FREE_IMAGE_FORMAT@@PBDPAULoadedImage_s@@@Z 00546f10 f   freeimage.obj
 0001:00145fa0       ?fiRescale@@YAPAUFIBITMAP@@PAU1@HHW4FREE_IMAGE_FILTER@@_N@Z 00546fa0 f   freeimage.obj
 0001:00146060       ?fiRescaleNearestNeighbor@@YAPAUFIBITMAP@@PAU1@HH_N@Z 00547060 f   freeimage.obj
 0001:00146250       ?fiSave@@YA_NPAUFIBITMAP@@W4FREE_IMAGE_FORMAT@@PBD@Z 00547250 f   freeimage.obj
 0001:001462c0       ?fiScale2x@@YAPAUFIBITMAP@@PAEHHHHH_N@Z 005472c0 f   freeimage.obj
 0001:00146360       ?fiScale2x@@YAPAUFIBITMAP@@PAU1@H_N@Z 00547360 f   freeimage.obj
 0001:00146460       ?fiSharpen@@YAPAUFIBITMAP@@PAU1@MH_N@Z 00547460 f   freeimage.obj
 0001:00146710       ?fiStoreUnalignedData@@YAXPAUFIBITMAP@@PAEHHH@Z 00547710 f   freeimage.obj
 0001:00146760       ??$_Allocate@Umemsentinel@@@std@@YAPAUmemsentinel@@IPAU1@@Z 00547760 f i mem.obj
 0001:001467a0       ??$_Destroy_range@U?$_Wrap_alloc@V?$allocator@Umemsentinel@@@std@@@std@@@std@@YAXPAUmemsentinel@@0AAU?$_Wrap_alloc@V?$allocator@Umemsentinel@@@std@@@0@@Z 005477a0 f i mem.obj
 0001:001467b0       ??$_Destroy_range@U?$_Wrap_alloc@V?$allocator@Umemsentinel@@@std@@@std@@@std@@YAXPAUmemsentinel@@0AAU?$_Wrap_alloc@V?$allocator@Umemsentinel@@@std@@@0@U_Nonscalar_ptr_iterator_tag@0@@Z 005477b0 f i mem.obj
 0001:001467c0       ??$_Ptr_cat@Umemsentinel@@U1@@std@@YA?AU_Nonscalar_ptr_iterator_tag@0@PAUmemsentinel@@0@Z 005477c0 f i mem.obj
 0001:001467d0       ??$_Rechecked@PAUmemsentinel@@PAU1@@std@@YAAAPAUmemsentinel@@AAPAU1@PAU1@@Z 005477d0 f i mem.obj
 0001:001467e0       ??$_Umove@PAUmemsentinel@@@?$vector@Umemsentinel@@V?$allocator@Umemsentinel@@@std@@@std@@IAEPAUmemsentinel@@PAU2@00@Z 005477e0 f i mem.obj
 0001:00146810       ??$_Unchecked@PAUmemsentinel@@@std@@YAPAUmemsentinel@@PAU1@@Z 00547810 f i mem.obj
 0001:00146820       ??$_Uninit_move@PAUmemsentinel@@PAU1@U?$_Wrap_alloc@V?$allocator@Umemsentinel@@@std@@@std@@@std@@YAPAUmemsentinel@@PAU1@00AAU?$_Wrap_alloc@V?$allocator@Umemsentinel@@@std@@@0@@Z 00547820 f i mem.obj
 0001:00146850       ??$_Uninit_move@PAUmemsentinel@@PAU1@V?$allocator@Umemsentinel@@@std@@U1@@std@@YAPAUmemsentinel@@PAU1@00AAU?$_Wrap_alloc@V?$allocator@Umemsentinel@@@std@@@0@0U_Nonscalar_ptr_iterator_tag@0@@Z 00547850 f i mem.obj
 0001:00146890       ??$_Uninitialized_move@PAUmemsentinel@@PAU1@U?$_Wrap_alloc@V?$allocator@Umemsentinel@@@std@@@std@@@std@@YAPAUmemsentinel@@PAU1@00AAU?$_Wrap_alloc@V?$allocator@Umemsentinel@@@std@@@0@@Z 00547890 f i mem.obj
 0001:001468b0       ??$_Val_type@PAUmemsentinel@@@std@@YAPAUmemsentinel@@PAU1@@Z 005478b0 f i mem.obj
 0001:001468c0       ??$addressof@$$CBUmemsentinel@@@std@@YAPBUmemsentinel@@ABU1@@Z 005478c0 f i mem.obj
 0001:001468d0       ??$addressof@Umemsentinel@@@std@@YAPAUmemsentinel@@AAU1@@Z 005478d0 f i mem.obj
 0001:001468e0       ??$construct@Umemsentinel@@AAU1@@?$_Wrap_alloc@V?$allocator@Umemsentinel@@@std@@@std@@QAEXPAUmemsentinel@@AAU2@@Z 005478e0 f i mem.obj
 0001:00146910       ??$construct@Umemsentinel@@AAU1@@?$allocator@Umemsentinel@@@std@@QAEXPAUmemsentinel@@AAU2@@Z 00547910 f i mem.obj
 0001:00146940       ??$construct@Umemsentinel@@AAU1@@?$allocator_traits@V?$allocator@Umemsentinel@@@std@@@std@@SAXAAV?$allocator@Umemsentinel@@@1@PAUmemsentinel@@AAU3@@Z 00547940 f i mem.obj
 0001:00146970       ??$construct@Umemsentinel@@ABU1@@?$_Wrap_alloc@V?$allocator@Umemsentinel@@@std@@@std@@QAEXPAUmemsentinel@@ABU2@@Z 00547970 f i mem.obj
 0001:001469a0       ??$construct@Umemsentinel@@ABU1@@?$allocator_traits@V?$allocator@Umemsentinel@@@std@@@std@@SAXAAV?$allocator@Umemsentinel@@@1@PAUmemsentinel@@ABU3@@Z 005479a0 f i mem.obj
 0001:001469d0       ??$construct@Umemsentinel@@U1@@?$_Wrap_alloc@V?$allocator@Umemsentinel@@@std@@@std@@QAEXPAUmemsentinel@@$$QAU2@@Z 005479d0 f i mem.obj
 0001:00146a00       ??$construct@Umemsentinel@@U1@@?$allocator@Umemsentinel@@@std@@QAEXPAUmemsentinel@@$$QAU2@@Z 00547a00 f i mem.obj
 0001:00146a30       ??$construct@Umemsentinel@@U1@@?$allocator_traits@V?$allocator@Umemsentinel@@@std@@@std@@SAXAAV?$allocator@Umemsentinel@@@1@PAUmemsentinel@@$$QAU3@@Z 00547a30 f i mem.obj
 0001:00146a60       ??$destroy@Umemsentinel@@@?$_Wrap_alloc@V?$allocator@Umemsentinel@@@std@@@std@@QAEXPAUmemsentinel@@@Z 00547a60 f i mem.obj
 0001:00146a70       ??$destroy@Umemsentinel@@@?$allocator@Umemsentinel@@@std@@QAEXPAUmemsentinel@@@Z 00547a70 f i mem.obj
 0001:00146a80       ??$destroy@Umemsentinel@@@?$allocator_traits@V?$allocator@Umemsentinel@@@std@@@std@@SAXAAV?$allocator@Umemsentinel@@@1@PAUmemsentinel@@@Z 00547a80 f i mem.obj
 0001:00146a90       ??$forward@AAUmemsentinel@@@std@@YAAAUmemsentinel@@AAU1@@Z 00547a90 f i mem.obj
 0001:00146aa0       ??$forward@ABUmemsentinel@@@std@@YAABUmemsentinel@@ABU1@@Z 00547aa0 f i mem.obj
 0001:00146ab0       ??$forward@Umemsentinel@@@std@@YA$$QAUmemsentinel@@AAU1@@Z 00547ab0 f i mem.obj
 0001:00146ac0       ??0?$_Vector_alloc@$0A@U?$_Vec_base_types@Umemsentinel@@V?$allocator@Umemsentinel@@@std@@@std@@@std@@QAE@ABV?$allocator@Umemsentinel@@@1@@Z 00547ac0 f i mem.obj
 0001:00146ae0       ??0?$_Vector_const_iterator@V?$_Vector_val@U?$_Simple_types@Umemsentinel@@@std@@@std@@@std@@QAE@PAUmemsentinel@@PBU_Container_base0@1@@Z 00547ae0 f i mem.obj
 0001:00146af0       ??0?$_Vector_iterator@V?$_Vector_val@U?$_Simple_types@Umemsentinel@@@std@@@std@@@std@@QAE@PAUmemsentinel@@PBU_Container_base0@1@@Z 00547af0 f i mem.obj
 0001:00146b00       ??0?$_Vector_val@U?$_Simple_types@Umemsentinel@@@std@@@std@@QAE@XZ 00547b00 f i mem.obj
 0001:00146b20       ??0?$_Wrap_alloc@V?$allocator@Umemsentinel@@@std@@@std@@QAE@XZ 00547b20 f i mem.obj
 0001:00146b30       ??0?$allocator@Umemsentinel@@@std@@QAE@XZ 00547b30 f i mem.obj
 0001:00146b40       ??0?$vector@Umemsentinel@@V?$allocator@Umemsentinel@@@std@@@std@@QAE@XZ 00547b40 f i mem.obj
 0001:00146b60       ??1?$vector@Umemsentinel@@V?$allocator@Umemsentinel@@@std@@@std@@QAE@XZ 00547b60 f i mem.obj
 0001:00146b90       ??C?$_Vector_iterator@V?$_Vector_val@U?$_Simple_types@Umemsentinel@@@std@@@std@@@std@@QBEPAUmemsentinel@@XZ 00547b90 f i mem.obj
 0001:00146ba0       ??D?$_Vector_const_iterator@V?$_Vector_val@U?$_Simple_types@Umemsentinel@@@std@@@std@@@std@@QBEABUmemsentinel@@XZ 00547ba0 f i mem.obj
 0001:00146bb0       ??D?$_Vector_iterator@V?$_Vector_val@U?$_Simple_types@Umemsentinel@@@std@@@std@@@std@@QBEAAUmemsentinel@@XZ 00547bb0 f i mem.obj
 0001:00146bc0       ??E?$_Vector_const_iterator@V?$_Vector_val@U?$_Simple_types@Umemsentinel@@@std@@@std@@@std@@QAEAAV01@XZ 00547bc0 f i mem.obj
 0001:00146bd0       ??E?$_Vector_iterator@V?$_Vector_val@U?$_Simple_types@Umemsentinel@@@std@@@std@@@std@@QAE?AV01@H@Z 00547bd0 f i mem.obj
 0001:00146bf0       ??E?$_Vector_iterator@V?$_Vector_val@U?$_Simple_types@Umemsentinel@@@std@@@std@@@std@@QAEAAV01@XZ 00547bf0 f i mem.obj
 0001:00146c00       ??M?$_Vector_const_iterator@V?$_Vector_val@U?$_Simple_types@Umemsentinel@@@std@@@std@@@std@@QBE_NABV01@@Z 00547c00 f i mem.obj
 0001:00146c20       ?Mem_Error@@YAXPADZZ       00547c20 f   mem.obj
 0001:00146c70       ?Mem_Init@@YAXXZ           00547c70 f   mem.obj
 0001:00146cd0       ?Mem_Shutdown@@YAXXZ       00547cd0 f   mem.obj
 0001:00146e70       ?_Compat@?$_Vector_const_iterator@V?$_Vector_val@U?$_Simple_types@Umemsentinel@@@std@@@std@@@std@@QBEXABV12@@Z 00547e70 f i mem.obj
 0001:00146e80       ?_Destroy@?$vector@Umemsentinel@@V?$allocator@Umemsentinel@@@std@@@std@@IAEXPAUmemsentinel@@0@Z 00547e80 f i mem.obj
 0001:00146e90       ?_Getal@?$_Vector_alloc@$0A@U?$_Vec_base_types@Umemsentinel@@V?$allocator@Umemsentinel@@@std@@@std@@@std@@QBE?AU?$_Wrap_alloc@V?$allocator@Umemsentinel@@@std@@@2@XZ 00547e90 f i mem.obj
 0001:00146ea0       ?_Grow_to@?$vector@Umemsentinel@@V?$allocator@Umemsentinel@@@std@@@std@@IBEII@Z 00547ea0 f i mem.obj
 0001:00146ef0       ?_Inside@?$vector@Umemsentinel@@V?$allocator@Umemsentinel@@@std@@@std@@IBE_NPBUmemsentinel@@@Z 00547ef0 f i mem.obj
 0001:00146f10       ?_Orphan_range@?$vector@Umemsentinel@@V?$allocator@Umemsentinel@@@std@@@std@@IBEXPAUmemsentinel@@0@Z 00547f10 f i mem.obj
 0001:00146f20       ?_Reallocate@?$vector@Umemsentinel@@V?$allocator@Umemsentinel@@@std@@@std@@IAEXI@Z 00547f20 f i mem.obj
 0001:00147010       ?_Reserve@?$vector@Umemsentinel@@V?$allocator@Umemsentinel@@@std@@@std@@IAEXI@Z 00548010 f i mem.obj
 0001:001470c0       ?_Tidy@?$vector@Umemsentinel@@V?$allocator@Umemsentinel@@@std@@@std@@IAEXXZ 005480c0 f i mem.obj
 0001:001470f0       ?_Unused_capacity@?$vector@Umemsentinel@@V?$allocator@Umemsentinel@@@std@@@std@@QBEIXZ 005480f0 f i mem.obj
 0001:00147110       ?_Xlen@?$vector@Umemsentinel@@V?$allocator@Umemsentinel@@@std@@@std@@IBEXXZ 00548110 f i mem.obj
 0001:00147120       ?_mem_alloc@@YAPAXIPADH@Z  00548120 f   mem.obj
 0001:00147240       ?_mem_calloc@@YAXPAPAXIPADH@Z 00548240 f   mem.obj
 0001:00147370       ?_mem_free@@YAXPAPAXPADH@Z 00548370 f   mem.obj
 0001:001473c0       ?_mem_realloc@@YAPAXPAXIPADH@Z 005483c0 f   mem.obj
 0001:00147520       ?_mem_sentinel@@YAXPADPAXI0H@Z 00548520 f   mem.obj
 0001:001475f0       ?_mem_sentinel_free@@YA_NPADPAX0H@Z 005485f0 f   mem.obj
 0001:001476d0       ?allocate@?$_Wrap_alloc@V?$allocator@Umemsentinel@@@std@@@std@@QAEPAUmemsentinel@@I@Z 005486d0 f i mem.obj
 0001:00147710       ?allocate@?$allocator@Umemsentinel@@@std@@QAEPAUmemsentinel@@I@Z 00548710 f i mem.obj
 0001:00147750       ?begin@?$vector@Umemsentinel@@V?$allocator@Umemsentinel@@@std@@@std@@QAE?AV?$_Vector_iterator@V?$_Vector_val@U?$_Simple_types@Umemsentinel@@@std@@@std@@@2@XZ 00548750 f i mem.obj
 0001:00147760       ?capacity@?$vector@Umemsentinel@@V?$allocator@Umemsentinel@@@std@@@std@@QBEIXZ 00548760 f i mem.obj
 0001:00147780       ?clear@?$vector@Umemsentinel@@V?$allocator@Umemsentinel@@@std@@@std@@QAEXXZ 00548780 f i mem.obj
 0001:00147790       ?construct@?$allocator@Umemsentinel@@@std@@QAEXPAUmemsentinel@@ABU3@@Z 00548790 f i mem.obj
 0001:001477c0       ?deallocate@?$_Wrap_alloc@V?$allocator@Umemsentinel@@@std@@@std@@QAEXPAUmemsentinel@@I@Z 005487c0 f i mem.obj
 0001:001477e0       ?deallocate@?$allocator@Umemsentinel@@@std@@QAEXPAUmemsentinel@@I@Z 005487e0 f i mem.obj
 0001:00147800       ?end@?$vector@Umemsentinel@@V?$allocator@Umemsentinel@@@std@@@std@@QAE?AV?$_Vector_iterator@V?$_Vector_val@U?$_Simple_types@Umemsentinel@@@std@@@std@@@2@XZ 00548800 f i mem.obj
 0001:00147810       ?max_size@?$_Wrap_alloc@V?$allocator@Umemsentinel@@@std@@@std@@QBEIXZ 00548810 f i mem.obj
 0001:00147820       ?max_size@?$allocator@Umemsentinel@@@std@@QBEIXZ 00548820 f i mem.obj
 0001:00147830       ?max_size@?$allocator_traits@V?$allocator@Umemsentinel@@@std@@@std@@SAIABV?$allocator@Umemsentinel@@@2@@Z 00548830 f i mem.obj
 0001:00147840       ?max_size@?$vector@Umemsentinel@@V?$allocator@Umemsentinel@@@std@@@std@@QBEIXZ 00548840 f i mem.obj
 0001:00147850       ?pointer_to@?$pointer_traits@PAUmemsentinel@@@std@@SAPAUmemsentinel@@AAU3@@Z 00548850 f i mem.obj
 0001:00147860       ?push_back@?$vector@Umemsentinel@@V?$allocator@Umemsentinel@@@std@@@std@@QAEXABUmemsentinel@@@Z 00548860 f i mem.obj
 0001:00147900       ?size@?$vector@Umemsentinel@@V?$allocator@Umemsentinel@@@std@@@std@@QBEIXZ 00548900 f i mem.obj
 0001:00147920       ?GetWorkForThread@@YAHPAUThreadData@@@Z 00548920 f   thread.obj
 0001:00147970       ?ParallelThreads@@YANHHPAXP6AXPAUThreadData@@@Z2@Z 00548970 f   thread.obj
 0001:00147bc0       ?Thread_Init@@YAXXZ        00548bc0 f   thread.obj
 0001:00147bf0       ?Thread_Shutdown@@YAXXZ    00548bf0 f   thread.obj
 0001:00147c00       ??0TUnzip@@QAE@PBD@Z       00548c00 f i unzip.obj
 0001:00147c80       ??1TUnzip@@QAE@XZ          00548c80 f i unzip.obj
 0001:00147cc0       ??_GTUnzip@@QAEPAXI@Z      00548cc0 f i unzip.obj
 0001:00147d20       ?Close@TUnzip@@QAEKXZ      00548d20 f   unzip.obj
 0001:00147d80       ?CloseZipU@@YAKPAUHZIP__@@@Z 00548d80 f   unzip.obj
 0001:00147e20       ?EnsureDirectory@@YAXPBD0@Z 00548e20 f   unzip.obj
 0001:00147f30       ?Find@TUnzip@@QAEKPBD_NPAHPAUZIPENTRY@@@Z 00548f30 f   unzip.obj
 0001:00148010       ?FindZipItem@@YAKPAUHZIP__@@PBD_NPAHPAUZIPENTRY@@@Z 00549010 f   unzip.obj
 0001:00148060       ?FormatZipMessageU@@YAIKPADI@Z 00549060 f   unzip.obj
 0001:00148250       ?Get@TUnzip@@QAEKHPAUZIPENTRY@@@Z 00549250 f   unzip.obj
 0001:001488c0       ?GetZipItem@@YAKPAUHZIP__@@HPAUZIPENTRY@@@Z 005498c0 f   unzip.obj
 0001:00148930       ?IsZipHandleU@@YA_NPAUHZIP__@@@Z 00549930 f   unzip.obj
 0001:00148950       ?Open@TUnzip@@QAEKPAXIK@Z  00549950 f   unzip.obj
 0001:00148a30       ?OpenZip@@YAPAUHZIP__@@PAXIPBD@Z 00549a30 f   unzip.obj
 0001:00148a50       ?OpenZip@@YAPAUHZIP__@@PBD0@Z 00549a50 f   unzip.obj
 0001:00148a70       ?OpenZipHandle@@YAPAUHZIP__@@PAXPBD@Z 00549a70 f   unzip.obj
 0001:00148a90       ?OpenZipInternal@@YAPAUHZIP__@@PAXIKPBD@Z 00549a90 f   unzip.obj
 0001:00148b80       ?SetUnzipBaseDir@@YAKPAUHZIP__@@PBD@Z 00549b80 f   unzip.obj
 0001:00148bd0       ?SetUnzipBaseDir@TUnzip@@QAEKPBD@Z 00549bd0 f   unzip.obj
 0001:00148c30       ?Udecrypt_byte@@YADPAK@Z   00549c30 f   unzip.obj
 0001:00148c50       ?Unzip@TUnzip@@QAEKHPAXIK@Z 00549c50 f   unzip.obj
 0001:00149090       ?UnzipItem@@YAKPAUHZIP__@@HPAXI@Z 0054a090 f   unzip.obj
 0001:001490e0       ?UnzipItem@@YAKPAUHZIP__@@HPBD@Z 0054a0e0 f   unzip.obj
 0001:00149430       ?UnzipItemHandle@@YAKPAUHZIP__@@HPAX@Z 0054a430 f   unzip.obj
 0001:00149480       ?UnzipItemInternal@@YAKPAUHZIP__@@HPAXIK@Z 0054a480 f   unzip.obj
 0001:001494d0       ?Uupdate_keys@@YAXPAKD@Z   0054a4d0 f   unzip.obj
 0001:00149520       ?adler32@@YAKKPBEI@Z       0054a520 f   unzip.obj
 0001:00149650       ?dosdatetime2filetime@@YA?AU_FILETIME@@GG@Z 0054a650 f   unzip.obj
 0001:001496e0       ?get_crc_table@@YAPBKXZ    0054a6e0 f   unzip.obj
 0001:001496f0       ?huft_build@@YAHPAIIIPBI1PAPAUinflate_huft_s@@0PAU1@00@Z 0054a6f0 f   unzip.obj
 0001:00149c30       ?inflate@@YAHPAUz_stream_s@@H@Z 0054ac30 f   unzip.obj
 0001:00149fe0       ?inflateEnd@@YAHPAUz_stream_s@@@Z 0054afe0 f   unzip.obj
 0001:0014a030       ?inflateInit2@@YAHPAUz_stream_s@@@Z 0054b030 f   unzip.obj
 0001:0014a0f0       ?inflateReset@@YAHPAUz_stream_s@@@Z 0054b0f0 f   unzip.obj
 0001:0014a140       ?inflate_blocks@@YAHPAUinflate_blocks_state@@PAUz_stream_s@@H@Z 0054b140 f   unzip.obj
 0001:0014aac0       ?inflate_blocks_free@@YAHPAUinflate_blocks_state@@PAUz_stream_s@@@Z 0054bac0 f   unzip.obj
 0001:0014ab60       ?inflate_blocks_new@@YAPAUinflate_blocks_state@@PAUz_stream_s@@P6AKKPBEI@ZI@Z 0054bb60 f   unzip.obj
 0001:0014ac10       ?inflate_blocks_reset@@YAXPAUinflate_blocks_state@@PAUz_stream_s@@PAK@Z 0054bc10 f   unzip.obj
 0001:0014ac90       ?inflate_codes@@YAHPAUinflate_blocks_state@@PAUz_stream_s@@H@Z 0054bc90 f   unzip.obj
 0001:0014b360       ?inflate_codes_free@@YAXPAUinflate_codes_state@@PAUz_stream_s@@@Z 0054c360 f   unzip.obj
 0001:0014b380       ?inflate_codes_new@@YAPAUinflate_codes_state@@IIPBUinflate_huft_s@@0PAUz_stream_s@@@Z 0054c380 f   unzip.obj
 0001:0014b3c0       ?inflate_fast@@YAHIIPBUinflate_huft_s@@0PAUinflate_blocks_state@@PAUz_stream_s@@@Z 0054c3c0 f   unzip.obj
 0001:0014b790       ?inflate_flush@@YAHPAUinflate_blocks_state@@PAUz_stream_s@@H@Z 0054c790 f   unzip.obj
 0001:0014b8a0       ?inflate_trees_bits@@YAHPAI0PAPAUinflate_huft_s@@PAU1@PAUz_stream_s@@@Z 0054c8a0 f   unzip.obj
 0001:0014b930       ?inflate_trees_dynamic@@YAHIIPAI00PAPAUinflate_huft_s@@1PAU1@PAUz_stream_s@@@Z 0054c930 f   unzip.obj
 0001:0014ba60       ?inflate_trees_fixed@@YAHPAI0PAPBUinflate_huft_s@@1PAUz_stream_s@@@Z 0054ca60 f   unzip.obj
 0001:0014ba90       ?lufclose@@YAHPAULUFILE@@@Z 0054ca90 f   unzip.obj
 0001:0014bac0       ?luferror@@YAHPAULUFILE@@@Z 0054cac0 f   unzip.obj
 0001:0014bae0       ?lufopen@@YAPAULUFILE@@PAXIKPAK@Z 0054cae0 f   unzip.obj
 0001:0014bc10       ?lufread@@YAIPAXIIPAULUFILE@@@Z 0054cc10 f   unzip.obj
 0001:0014bc80       ?lufseek@@YAHPAULUFILE@@JH@Z 0054cc80 f   unzip.obj
 0001:0014bd20       ?luftell@@YAJPAULUFILE@@@Z 0054cd20 f   unzip.obj
 0001:0014bd60       ?strcmpcasenosensitive_internal@@YAHPBD0@Z 0054cd60 f   unzip.obj
 0001:0014bdc0       ?timet2filetime@@YA?AU_FILETIME@@I@Z 0054cdc0 f   unzip.obj
 0001:0014bdf0       ?ucrc32@@YAKKPBEI@Z        0054cdf0 f   unzip.obj
 0001:0014bf00       ?unzClose@@YAHPAUunz_s@@@Z 0054cf00 f   unzip.obj
 0001:0014bf50       ?unzCloseCurrentFile@@YAHPAUunz_s@@@Z 0054cf50 f   unzip.obj
 0001:0014bfe0       ?unzGetCurrentFileInfo@@YAHPAUunz_s@@PAUunz_file_info_s@@PADKPAXK2K@Z 0054cfe0 f   unzip.obj
 0001:0014c010       ?unzGetGlobalComment@@YAHPAUunz_s@@PADK@Z 0054d010 f   unzip.obj
 0001:0014c0a0       ?unzGetGlobalInfo@@YAHPAUunz_s@@PAUunz_global_info_s@@@Z 0054d0a0 f   unzip.obj
 0001:0014c0d0       ?unzGetLocalExtrafield@@YAHPAUunz_s@@PAXI@Z 0054d0d0 f   unzip.obj
 0001:0014c170       ?unzGoToFirstFile@@YAHPAUunz_s@@@Z 0054d170 f   unzip.obj
 0001:0014c1c0       ?unzGoToNextFile@@YAHPAUunz_s@@@Z 0054d1c0 f   unzip.obj
 0001:0014c230       ?unzLocateFile@@YAHPAUunz_s@@PBDH@Z 0054d230 f   unzip.obj
 0001:0014c370       ?unzOpenCurrentFile@@YAHPAUunz_s@@PBD@Z 0054d370 f   unzip.obj
 0001:0014c500       ?unzOpenInternal@@YAPAUunz_s@@PAULUFILE@@@Z 0054d500 f   unzip.obj
 0001:0014c6a0       ?unzReadCurrentFile@@YAHPAUunz_s@@PAXIPA_N@Z 0054d6a0 f   unzip.obj
 0001:0014c8f0       ?unzStringFileNameCompare@@YAHPBD0H@Z 0054d8f0 f   unzip.obj
 0001:0014c940       ?unzeof@@YAHPAUunz_s@@@Z   0054d940 f   unzip.obj
 0001:0014c970       ?unzlocal_CheckCurrentFileCoherencyHeader@@YAHPAUunz_s@@PAIPAK1@Z 0054d970 f   unzip.obj
 0001:0014cb50       ?unzlocal_DosDateToTmuDate@@YAXKPAUtm_unz_s@@@Z 0054db50 f   unzip.obj
 0001:0014cbb0       ?unzlocal_GetCurrentFileInfoInternal@@YAHPAUunz_s@@PAUunz_file_info_s@@PAUunz_file_info_internal_s@@PADKPAXK3K@Z 0054dbb0 f   unzip.obj
 0001:0014cf00       ?unzlocal_SearchCentralDir@@YAKPAULUFILE@@@Z 0054df00 f   unzip.obj
 0001:0014d0b0       ?unzlocal_getByte@@YAHPAULUFILE@@PAH@Z 0054e0b0 f   unzip.obj
 0001:0014d100       ?unzlocal_getLong@@YAHPAULUFILE@@PAK@Z 0054e100 f   unzip.obj
 0001:0014d210       ?unzlocal_getShort@@YAHPAULUFILE@@PAK@Z 0054e210 f   unzip.obj
 0001:0014d2b0       ?unztell@@YAJPAUunz_s@@@Z  0054e2b0 f   unzip.obj
 0001:0014d2d0       ?zError@@YAPBDH@Z          0054e2d0 f   unzip.obj
 0001:0014d2f0       ?zcalloc@@YAPAXPAXII@Z     0054e2f0 f   unzip.obj
 0001:0014d310       ?zcfree@@YAXPAX0@Z         0054e310 f   unzip.obj
 0001:0014d320       ?zdecode@@YADPAKD@Z        0054e320 f   unzip.obj
 0001:0014d390       ?zlibVersion@@YAPBDXZ      0054e390 f   unzip.obj
 0001:0014d3a0       __tcsncpy                  0054e3a0 f i unzip.obj
 0001:0014d3b0       __tcsstr                   0054e3b0 f i unzip.obj
 0001:0014d3c0       ??0TDeflateState@@QAE@XZ   0054e3c0 f i zip.obj
 0001:0014d3d0       ??0TState@@QAE@XZ          0054e3d0 f i zip.obj
 0001:0014d3f0       ??0TTreeState@@QAE@XZ      0054e3f0 f   zip.obj
 0001:0014d500       ??0TZip@@QAE@PBD@Z         0054e500 f i zip.obj
 0001:0014d5a0       ??1TZip@@QAE@XZ            0054e5a0 f i zip.obj
 0001:0014d5f0       ??_GTZip@@QAEPAXI@Z        0054e5f0 f i zip.obj
 0001:0014d650       ?Add@TZip@@QAEKPBDPAXIKH@Z 0054e650 f   zip.obj
 0001:0014de20       ?AddCentral@TZip@@QAEKXZ   0054ee20 f   zip.obj
 0001:0014df00       ?Assert@@YAXAAUTState@@_NPBD@Z 0054ef00 f   zip.obj
 0001:0014df20       ?Close@TZip@@QAEKXZ        0054ef20 f   zip.obj
 0001:0014df90       ?CloseZipZ@@YAKPAUHZIP__@@@Z 0054ef90 f   zip.obj
 0001:0014e000       ?Create@TZip@@QAEKPAXIK@Z  0054f000 f   zip.obj
 0001:0014e160       ?CreateZip@@YAPAUHZIP__@@PAXIPBD@Z 0054f160 f   zip.obj
 0001:0014e180       ?CreateZip@@YAPAUHZIP__@@PBD0@Z 0054f180 f   zip.obj
 0001:0014e1a0       ?CreateZipHandle@@YAPAUHZIP__@@PAXPBD@Z 0054f1a0 f   zip.obj
 0001:0014e1c0       ?CreateZipInternal@@YAPAUHZIP__@@PAXIKPBD@Z 0054f1c0 f   zip.obj
 0001:0014e2c0       ?FormatZipMessageZ@@YAIKPADI@Z 0054f2c0 f   zip.obj
 0001:0014e4a0       ?GetFileInfo@@YAKPAXPAKPAJPAUiztimes@@1@Z 0054f4a0 f   zip.obj
 0001:0014e6c0       ?GetMemory@TZip@@QAEKPAPAXPAK@Z 0054f6c0 f   zip.obj
 0001:0014e700       ?GetMemoryWritten@TZip@@QAEKXZ 0054f700 f   zip.obj
 0001:0014e710       ?HasZipSuffix@@YA_NPBD@Z   0054f710 f   zip.obj
 0001:0014e7f0       ?IsZipHandleZ@@YA_NPAUHZIP__@@@Z 0054f7f0 f   zip.obj
 0001:0014e810       ?Trace@@YAXPBDZZ           0054f810 f   zip.obj
 0001:0014e820       ?Tracec@@YAX_NPBDZZ        0054f820 f   zip.obj
 0001:0014e830       ?ZipAdd@@YAKPAUHZIP__@@PBD1H@Z 0054f830 f   zip.obj
 0001:0014e880       ?ZipAdd@@YAKPAUHZIP__@@PBDPAXIH@Z 0054f880 f   zip.obj
 0001:0014e8d0       ?ZipAddFolder@@YAKPAUHZIP__@@PBDH@Z 0054f8d0 f   zip.obj
 0001:0014e920       ?ZipAddHandle@@YAKPAUHZIP__@@PBDPAXH@Z 0054f920 f   zip.obj
 0001:0014e970       ?ZipAddHandle@@YAKPAUHZIP__@@PBDPAXIH@Z 0054f970 f   zip.obj
 0001:0014e9c0       ?ZipAddInternal@@YAKPAUHZIP__@@PBDPAXIKH@Z 0054f9c0 f   zip.obj
 0001:0014ea10       ?ZipGetMemory@@YAKPAUHZIP__@@PAPAXPAK@Z 0054fa10 f   zip.obj
 0001:0014eaa0       ?ZipGetMemoryWritten@@YAIPAUHZIP__@@@Z 0054faa0 f   zip.obj
 0001:0014eae0       ?bi_init@@YAXAAUTState@@PADIH@Z 0054fae0 f   zip.obj
 0001:0014eb30       ?bi_reverse@@YAIIH@Z       0054fb30 f   zip.obj
 0001:0014eb60       ?bi_windup@@YAXAAUTState@@@Z 0054fb60 f   zip.obj
 0001:0014ec40       ?build_bl_tree@@YAHAAUTState@@@Z 0054fc40 f   zip.obj
 0001:0014ed20       ?build_tree@@YAXAAUTState@@PAUtree_desc@@@Z 0054fd20 f   zip.obj
 0001:0014ef30       ?compress_block@@YAXAAUTState@@PAUct_data@@1@Z 0054ff30 f   zip.obj
 0001:0014f090       ?copy_block@@YAXAAUTState@@PADIH@Z 00550090 f   zip.obj
 0001:0014f1e0       ?crc32@@YAKKPBEI@Z         005501e0 f   zip.obj
 0001:0014f2f0       ?ct_init@@YAXAAUTState@@PAG@Z 005502f0 f   zip.obj
 0001:0014f5c0       ?ct_tally@@YAHAAUTState@@HH@Z 005505c0 f   zip.obj
 0001:0014f790       ?decrypt_byte@@YADPAK@Z    00550790 f   zip.obj
 0001:0014f7b0       ?deflate@@YAKAAUTState@@@Z 005507b0 f   zip.obj
 0001:0014fab0       ?deflate_fast@@YAKAAUTState@@@Z 00550ab0 f   zip.obj
 0001:0014fcf0       ?filetime2dosdatetime@@YAXU_FILETIME@@PAG1@Z 00550cf0 f   zip.obj
 0001:0014fd70       ?filetime2timet@@YA_JU_FILETIME@@@Z 00550d70 f   zip.obj
 0001:0014fda0       ?fill_window@@YAXAAUTState@@@Z 00550da0 f   zip.obj
 0001:0014ff00       ?flush_block@@YAKAAUTState@@PADKH@Z 00550f00 f   zip.obj
 0001:001500c0       ?gen_bitlen@@YAXAAUTState@@PAUtree_desc@@@Z 005510c0 f   zip.obj
 0001:001502d0       ?gen_codes@@YAXAAUTState@@PAUct_data@@H@Z 005512d0 f   zip.obj
 0001:00150380       ?iclose@TZip@@QAEKXZ       00551380 f   zip.obj
 0001:001503e0       ?ideflate@TZip@@QAEKPAUzlist@@H@Z 005513e0 f   zip.obj
 0001:00150510       ?init_block@@YAXAAUTState@@@Z 00551510 f   zip.obj
 0001:001505a0       ?istore@TZip@@QAEKXZ       005515a0 f   zip.obj
 0001:00150610       ?lm_init@@YAXAAUTState@@HPAG@Z 00551610 f   zip.obj
 0001:00150770       ?longest_match@@YAHAAUTState@@I@Z 00551770 f   zip.obj
 0001:00150930       ?open_dir@TZip@@QAEKXZ     00551930 f   zip.obj
 0001:00150a40       ?open_file@TZip@@QAEKPBD@Z 00551a40 f   zip.obj
 0001:00150af0       ?open_handle@TZip@@QAEKPAXI@Z 00551af0 f   zip.obj
 0001:00150c70       ?open_mem@TZip@@QAEKPAXI@Z 00551c70 f   zip.obj
 0001:00150d80       ?oseek@TZip@@QAE_NI@Z      00551d80 f   zip.obj
 0001:00150df0       ?pqdownheap@@YAXAAUTState@@PAUct_data@@H@Z 00551df0 f   zip.obj
 0001:00150ee0       ?putcentral@@YAHPAUzlist@@P6AIPAXPBDI@Z1@Z 00551ee0 f   zip.obj
 0001:00151250       ?putend@@YAHHKKIPADP6AIPAXPBDI@Z1@Z 00552250 f   zip.obj
 0001:001513e0       ?putextended@@YAHPAUzlist@@P6AIPAXPBDI@Z1@Z 005523e0 f   zip.obj
 0001:00151500       ?putlocal@@YAHPAUzlist@@P6AIPAXPBDI@Z1@Z 00552500 f   zip.obj
 0001:00151750       ?read@TZip@@QAEIPADI@Z     00552750 f   zip.obj
 0001:00151810       ?scan_tree@@YAXAAUTState@@PAUct_data@@H@Z 00552810 f   zip.obj
 0001:001518f0       ?send_all_trees@@YAXAAUTState@@HHH@Z 005528f0 f   zip.obj
 0001:001519c0       ?send_bits@@YAXAAUTState@@HH@Z 005529c0 f   zip.obj
 0001:00151a70       ?send_tree@@YAXAAUTState@@PAUct_data@@H@Z 00552a70 f   zip.obj
 0001:00151bd0       ?set_file_type@@YAXAAUTState@@@Z 00552bd0 f   zip.obj
 0001:00151c80       ?sflush@TZip@@SAIPAXPBDPAI@Z 00552c80 f   zip.obj
 0001:00151cb0       ?sread@TZip@@SAIAAUTState@@PADI@Z 00552cb0 f   zip.obj
 0001:00151cd0       ?swrite@TZip@@SAIPAXPBDI@Z 00552cd0 f   zip.obj
 0001:00151cf0       ?update_keys@@YAXPAKD@Z    00552cf0 f   zip.obj
 0001:00151d40       ?write@TZip@@QAEIPBDI@Z    00552d40 f   zip.obj
 0001:00151e90       ?zencode@@YADPAKD@Z        00552e90 f   zip.obj
 0001:00151f00       __tcsicmp                  00552f00 f i zip.obj
 0001:00151f0a       _FindClose@4               00552f0a f   kernel32:KERNEL32.dll
 0001:00151f10       _FindFirstFileA@8          00552f10 f   kernel32:KERNEL32.dll
 0001:00151f16       _FindNextFileA@8           00552f16 f   kernel32:KERNEL32.dll
 0001:00151f1c       _Sleep@4                   00552f1c f   kernel32:KERNEL32.dll
 0001:00151f22       _GetLastError@0            00552f22 f   kernel32:KERNEL32.dll
 0001:00151f28       _GetTempPathA@8            00552f28 f   kernel32:KERNEL32.dll
 0001:00151f2e       _CreateFileA@28            00552f2e f   kernel32:KERNEL32.dll
 0001:00151f34       _GetFileSize@8             00552f34 f   kernel32:KERNEL32.dll
 0001:00151f3a       _ReadFile@20               00552f3a f   kernel32:KERNEL32.dll
 0001:00151f40       _CloseHandle@4             00552f40 f   kernel32:KERNEL32.dll
 0001:00151f46       _MapViewOfFile@20          00552f46 f   kernel32:KERNEL32.dll
 0001:00151f4c       _UnmapViewOfFile@4         00552f4c f   kernel32:KERNEL32.dll
 0001:00151f52       _CreateFileMappingA@24     00552f52 f   kernel32:KERNEL32.dll
 0001:00151f58       _FreeLibrary@4             00552f58 f   kernel32:KERNEL32.dll
 0001:00151f5e       _GetProcAddress@8          00552f5e f   kernel32:KERNEL32.dll
 0001:00151f64       _LoadLibraryA@4            00552f64 f   kernel32:KERNEL32.dll
 0001:00151f6a       _ReleaseMutex@4            00552f6a f   kernel32:KERNEL32.dll
 0001:00151f70       _WaitForSingleObject@8     00552f70 f   kernel32:KERNEL32.dll
 0001:00151f76       _CreateMutexA@12           00552f76 f   kernel32:KERNEL32.dll
 0001:00151f7c       _CreateThread@24           00552f7c f   kernel32:KERNEL32.dll
 0001:00151f82       _GetSystemInfo@4           00552f82 f   kernel32:KERNEL32.dll
 0001:00151f88       _GetCurrentDirectoryA@8    00552f88 f   kernel32:KERNEL32.dll
 0001:00151f8e       _CreateDirectoryA@8        00552f8e f   kernel32:KERNEL32.dll
 0001:00151f94       _GetFileAttributesA@4      00552f94 f   kernel32:KERNEL32.dll
 0001:00151f9a       _LocalFileTimeToFileTime@8 00552f9a f   kernel32:KERNEL32.dll
 0001:00151fa0       _SetFilePointer@16         00552fa0 f   kernel32:KERNEL32.dll
 0001:00151fa6       _SetFileTime@16            00552fa6 f   kernel32:KERNEL32.dll
 0001:00151fac       _WriteFile@20              00552fac f   kernel32:KERNEL32.dll
 0001:00151fb2       _SystemTimeToFileTime@8    00552fb2 f   kernel32:KERNEL32.dll
 0001:00151fb8       _GetFileInformationByHandle@8 00552fb8 f   kernel32:KERNEL32.dll
 0001:00151fbe       _GetLocalTime@4            00552fbe f   kernel32:KERNEL32.dll
 0001:00151fc4       _GetTickCount@0            00552fc4 f   kernel32:KERNEL32.dll
 0001:00151fca       _FileTimeToSystemTime@8    00552fca f   kernel32:KERNEL32.dll
 0001:00151fd0       _wsprintfA                 00552fd0 f   user32:USER32.dll
 0001:00151fd6       _GetDesktopWindow@0        00552fd6 f   user32:USER32.dll
 0001:00151fe0       __libm_sse2_pow_precise    00552fe0 f   LIBCMT:pow_sse2_precise.obj
 0001:00152b50       _floor                     00553b50 f   LIBCMT:floor_pentium4.obj
 0001:00152b90       __floor_pentium4           00553b90 f   LIBCMT:floor_pentium4.obj
 0001:00152c71       __fpmath                   00553c71 f   LIBCMT:fpinit.obj
 0001:00152c88       ___setfflag                00553c88 f   LIBCMT:fpinit.obj
 0001:00152c9b       __cfltcvt_init             00553c9b f   LIBCMT:fpinit.obj
 0001:00152cfb       __get_purecall_handler     00553cfb f   LIBCMT:purevirt.obj
 0001:00152d08       __purecall                 00553d08 f   LIBCMT:purevirt.obj
 0001:00152d2a       __set_purecall_handler     00553d2a f   LIBCMT:purevirt.obj
 0001:00152d4f       ??0bad_alloc@std@@QAE@ABV01@@Z 00553d4f f i LIBCMT:new.obj
 0001:00152d6a       ??0bad_alloc@std@@QAE@XZ   00553d6a f i LIBCMT:new.obj
 0001:00152d90       ??1bad_alloc@std@@UAE@XZ   00553d90 f i LIBCMT:new.obj
 0001:00152d9b       ??2@YAPAXI@Z               00553d9b f   LIBCMT:new.obj
 0001:00152dec       ??_Gbad_alloc@std@@UAEPAXI@Z 00553dec f i LIBCMT:new.obj
 0001:00152dec       ??_Ebad_alloc@std@@UAEPAXI@Z 00553dec f i LIBCMT:new.obj
 0001:00152e11       ??3@YAXPAX@Z               00553e11 f   LIBCMT:delete.obj
 0001:00152e16       ___onexitinit              00553e16 f   LIBCMT:onexit.obj
 0001:00152e45       __onexit                   00553e45 f   LIBCMT:onexit.obj
 0001:00152f41       _atexit                    00553f41 f   LIBCMT:onexit.obj
 0001:00152f60       _memmove                   00553f60 f   LIBCMT:memmove.obj
 0001:001535a4       __cabs                     005545a4 f   LIBCMT:hypot.obj
 0001:001535c3       __hypot                    005545c3 f   LIBCMT:hypot.obj
 0001:0015382e       @__security_check_cookie@4 0055482e f   LIBCMT:secchk.obj
 0001:0015383d       __CxxThrowException@8      0055483d f   LIBCMT:throw.obj
 0001:00153970       ?_CallCatchBlock2@@YAPAXPAUEHRegistrationNode@@PBU_s_FuncInfo@@PAXHK@Z 00554970 f   LIBCMT:_trnsctrl_.obj
 0001:001539d0       ?_CallMemberFunction0@@YGXPAX0@Z 005549d0 f   LIBCMT:_trnsctrl_.obj
 0001:001539d7       ?_CallMemberFunction1@@YGXPAX00@Z 005549d7 f   LIBCMT:_trnsctrl_.obj
 0001:001539de       ?_CallMemberFunction2@@YGXPAX00H@Z 005549de f   LIBCMT:_trnsctrl_.obj
 0001:001539e5       ?_CallSETranslator@@YAHPAUEHExceptionRecord@@PAUEHRegistrationNode@@PAX2PBU_s_FuncInfo@@H1@Z 005549e5 f   LIBCMT:_trnsctrl_.obj
 0001:00153abc       ?_GetRangeOfTrysToCheck@@YAPBU_s_TryBlockMapEntry@@PBU_s_FuncInfo@@HHPAI1@Z 00554abc f   LIBCMT:_trnsctrl_.obj
 0001:00153b3a       ?_JumpToContinuation@@YGXPAXPAUEHRegistrationNode@@@Z 00554b3a f   LIBCMT:_trnsctrl_.obj
 0001:00153b6c       ?_UnwindNestedFrames@@YGXPAUEHRegistrationNode@@PAUEHExceptionRecord@@@Z 00554b6c f   LIBCMT:_trnsctrl_.obj
 0001:00153bc1       __CreateFrameInfo          00554bc1 f   LIBCMT:_trnsctrl_.obj
 0001:00153beb       __FindAndUnlinkFrame       00554beb f   LIBCMT:_trnsctrl_.obj
 0001:00153c3b       __IsExceptionObjectToBeDestroyed 00554c3b f   LIBCMT:_trnsctrl_.obj
 0001:00153c64       ___CxxFrameHandler         00554c64 f   LIBCMT:_trnsctrl_.obj
 0001:00153c9a       ___CxxFrameHandler2        00554c9a f   LIBCMT:_trnsctrl_.obj
 0001:00153cd0       ___CxxFrameHandler3        00554cd0 f   LIBCMT:_trnsctrl_.obj
 0001:00153d06       ___CxxLongjmpUnwind@4      00554d06 f   LIBCMT:_trnsctrl_.obj
 0001:00153d30       __aullshr                  00554d30 f   LIBCMT:ullshr.obj
 0001:00153d50       __libm_sse2_sqrt_precise   00554d50 f   LIBCMT:sqrt_sse2_precise.obj
 0001:00153e50       _memcpy                    00554e50 f   LIBCMT:memcpy.obj
 0001:001544a0       _memset                    005554a0 f   LIBCMT:memset.obj
 0001:00154530       ??0type_info@@AAE@ABV0@@Z  00555530 f   LIBCMT:typinfo.obj
 0001:0015453b       ??1type_info@@UAE@XZ       0055553b f   LIBCMT:typinfo.obj
 0001:00154549       ??4type_info@@AAEAAV0@ABV0@@Z 00555549 f   LIBCMT:typinfo.obj
 0001:0015454e       ??8type_info@@QBE_NABV0@@Z 0055554e f   LIBCMT:typinfo.obj
 0001:0015456c       ??9type_info@@QBE_NABV0@@Z 0055556c f   LIBCMT:typinfo.obj
 0001:0015458b       ??_Gtype_info@@UAEPAXI@Z   0055558b f i LIBCMT:typinfo.obj
 0001:0015458b       ??_Etype_info@@UAEPAXI@Z   0055558b f i LIBCMT:typinfo.obj
 0001:001545aa       ?_name_internal_method@type_info@@QBEPBDPAU__type_info_node@@@Z 005555aa f   LIBCMT:typinfo.obj
 0001:001545bc       ?_type_info_dtor_internal_method@type_info@@QAEXXZ 005555bc f   LIBCMT:typinfo.obj
 0001:001545c4       ?before@type_info@@QBE_NABV1@@Z 005555c4 f   LIBCMT:typinfo.obj
 0001:001545e4       ?name@type_info@@QBEPBDPAU__type_info_node@@@Z 005555e4 f   LIBCMT:typinfo.obj
 0001:001545f6       ?raw_name@type_info@@QBEPBDXZ 005555f6 f   LIBCMT:typinfo.obj
 0001:001545fa       __fread_nolock             005555fa f   LIBCMT:fread.obj
 0001:00154615       __fread_nolock_s           00555615 f   LIBCMT:fread.obj
 0001:001547da       _fread                     005557da f   LIBCMT:fread.obj
 0001:001547f5       _fread_s                   005557f5 f   LIBCMT:fread.obj
 0001:00154886       __get_printf_count_output  00555886 f   LIBCMT:printf.obj
 0001:0015489b       __printf_l                 0055589b f   LIBCMT:printf.obj
 0001:001548b2       __printf_p                 005558b2 f   LIBCMT:printf.obj
 0001:001548c8       __printf_p_l               005558c8 f   LIBCMT:printf.obj
 0001:001548df       __printf_s_l               005558df f   LIBCMT:printf.obj
 0001:001548f6       __set_printf_count_output  005558f6 f   LIBCMT:printf.obj
 0001:0015491e       _printf                    0055591e f   LIBCMT:printf.obj
 0001:001549cd       _printf_s                  005559cd f   LIBCMT:printf.obj
 0001:001549e3       ___copy_path_to_wide_string 005559e3 f   LIBCMT:crt0dat.obj
 0001:00154a95       ___copy_to_char            00555a95 f   LIBCMT:crt0dat.obj
 0001:00154b4a       ___crtCorExitProcess       00555b4a f   LIBCMT:crt0dat.obj
 0001:00154b7e       ___crtExitProcess          00555b7e f   LIBCMT:crt0dat.obj
 0001:00154b94       ___freeCrtMemory           00555b94 f   LIBCMT:crt0dat.obj
 0001:00154ca1       __amsg_exit                00555ca1 f   LIBCMT:crt0dat.obj
 0001:00154cbd       __c_exit                   00555cbd f   LIBCMT:crt0dat.obj
 0001:00154ccc       __cexit                    00555ccc f   LIBCMT:crt0dat.obj
 0001:00154cdb       __cinit                    00555cdb f   LIBCMT:crt0dat.obj
 0001:00154d5f       __exit                     00555d5f f   LIBCMT:crt0dat.obj
 0001:00154d73       __exit_app                 00555d73 f   LIBCMT:crt0dat.obj
 0001:00154d81       __get_pgmptr               00555d81 f   LIBCMT:crt0dat.obj
 0001:00154db0       __get_wpgmptr              00555db0 f   LIBCMT:crt0dat.obj
 0001:00154ddf       __init_pointers            00555ddf f   LIBCMT:crt0dat.obj
 0001:00154e4d       __initterm_e               00555e4d f   LIBCMT:crt0dat.obj
 0001:00154e6f       __lockexit                 00555e6f f   LIBCMT:crt0dat.obj
 0001:00154e78       __unlockexit               00555e78 f   LIBCMT:crt0dat.obj
 0001:00154fb0       _exit                      00555fb0 f   LIBCMT:crt0dat.obj
 0001:00154fc4       ___isa_available_init      00555fc4 f   LIBCMT:cpu_disp.obj
 0001:0015513d       __fclose_nolock            0055613d f   LIBCMT:fclose.obj
 0001:001551a9       _fclose                    005561a9 f   LIBCMT:fclose.obj
 0001:00155220       _fgets                     00556220 f   LIBCMT:fgets.obj
 0001:0015535f       __fsopen                   0055635f f   LIBCMT:fopen.obj
 0001:00155423       _fopen                     00556423 f   LIBCMT:fopen.obj
 0001:00155438       _fopen_s                   00556438 f   LIBCMT:fopen.obj
 0001:0015547d       __fprintf_l                0055647d f   LIBCMT:fprintf.obj
 0001:00155497       __fprintf_p                00556497 f   LIBCMT:fprintf.obj
 0001:001554b0       __fprintf_p_l              005564b0 f   LIBCMT:fprintf.obj
 0001:001554ca       __fprintf_s_l              005564ca f   LIBCMT:fprintf.obj
 0001:001554e4       _fprintf                   005564e4 f   LIBCMT:fprintf.obj
 0001:001555f6       _fprintf_s                 005565f6 f   LIBCMT:fprintf.obj
 0001:0015560f       __fscanf_l                 0055660f f   LIBCMT:fscanf.obj
 0001:0015562e       __fscanf_s_l               0055662e f   LIBCMT:fscanf.obj
 0001:0015564d       _fscanf                    0055664d f   LIBCMT:fscanf.obj
 0001:0015566b       _fscanf_s                  0055666b f   LIBCMT:fscanf.obj
 0001:00155689       _vfscanf                   00556689 f   LIBCMT:fscanf.obj
 0001:001556a6       _vfscanf_fn                005566a6 f   LIBCMT:fscanf.obj
 0001:001557a5       _vfscanf_s                 005567a5 f   LIBCMT:fscanf.obj
 0001:001557c2       __fwrite_nolock            005567c2 f   LIBCMT:fwrite.obj
 0001:0015591b       _fwrite                    0055691b f   LIBCMT:fwrite.obj
 0001:0015599d       __getc_nolock              0055699d f   LIBCMT:fgetc.obj
 0001:001559bf       _fgetc                     005569bf f   LIBCMT:fgetc.obj
 0001:00155ab8       _getc                      00556ab8 f   LIBCMT:fgetc.obj
 0001:00155bb1       __ungetc_nolock            00556bb1 f   LIBCMT:ungetc.obj
 0001:00155c91       _ungetc                    00556c91 f   LIBCMT:ungetc.obj
 0001:00155d01       _free                      00556d01 f   LIBCMT:free.obj
 0001:00155d39       __heap_alloc               00556d39 f i LIBCMT:malloc.obj
 0001:00155d76       _malloc                    00556d76 f   LIBCMT:malloc.obj
 0001:00155e08       ___raise_securityfailure   00556e08 f   LIBCMT:gs_report.obj
 0001:00155e45       ___report_gsfailure        00556e45 f   LIBCMT:gs_report.obj
 0001:00155f40       ___report_rangecheckfailure 00556f40 f   LIBCMT:gs_report.obj
 0001:00155f4c       ___report_securityfailure  00556f4c f   LIBCMT:gs_report.obj
 0001:0015601c       ___report_securityfailureEx 0055701c f   LIBCMT:gs_report.obj
 0001:00156132       __scprintf                 00557132 f   LIBCMT:sprintf.obj
 0001:00156145       __scprintf_l               00557145 f   LIBCMT:sprintf.obj
 0001:0015615c       __scprintf_p               0055715c f   LIBCMT:sprintf.obj
 0001:0015616f       __scprintf_p_l             0055716f f   LIBCMT:sprintf.obj
 0001:00156186       __snprintf_s               00557186 f   LIBCMT:sprintf.obj
 0001:001561a5       __snprintf_s_l             005571a5 f   LIBCMT:sprintf.obj
 0001:001561c5       __sprintf_l                005571c5 f   LIBCMT:sprintf.obj
 0001:001561df       __sprintf_p                005571df f   LIBCMT:sprintf.obj
 0001:001561fb       __sprintf_p_l              005571fb f   LIBCMT:sprintf.obj
 0001:00156218       __sprintf_s_l              00557218 f   LIBCMT:sprintf.obj
 0001:00156235       _sprintf                   00557235 f   LIBCMT:sprintf.obj
 0001:001562b9       _sprintf_s                 005572b9 f   LIBCMT:sprintf.obj
 0001:001562d5       _rand                      005572d5 f   LIBCMT:rand.obj
 0001:001562f6       _srand                     005572f6 f   LIBCMT:rand.obj
 0001:00156306       __invoke_watson_if_oneof   00557306 f i LIBCMT:system.obj
 0001:00156331       _system                    00557331 f   LIBCMT:system.obj
 0001:00156430       _strncmp                   00557430 f   LIBCMT:strncmp.obj
 0001:001564a8       __time64                   005574a8 f   LIBCMT:time64.obj
 0001:001564f9       __ftime64                  005574f9 f   LIBCMT:ftime64.obj
 0001:001564fe       __ftime64_s                005574fe f   LIBCMT:ftime64.obj
 0001:00156669       __invoke_watson_if_error   00557669 f i LIBCMT:ftime64.obj
 0001:00156690       __chkstk                   00557690 f   LIBCMT:chkstk.obj
 0001:00156690       __alloca_probe             00557690 f   LIBCMT:chkstk.obj
 0001:001566c0       __ftoui3                   005576c0 f   LIBCMT:ftol3.obj
 0001:001566cf       __ftoul3                   005576cf f   LIBCMT:ftol3.obj
 0001:001566de       __ftol3                    005576de f   LIBCMT:ftol3.obj
 0001:001566eb       __ftol3_NaN                005576eb f   LIBCMT:ftol3.obj
 0001:00156703       __ftol3_work               00557703 f   LIBCMT:ftol3.obj
 0001:00156789       __ftol3_common             00557789 f   LIBCMT:ftol3.obj
 0001:0015684b       __ftol3_arg_error          0055784b f   LIBCMT:ftol3.obj
 0001:0015685d       __ftol3_except             0055785d f   LIBCMT:ftol3.obj
 0001:0015689f       __dtoui3                   0055789f f   LIBCMT:ftol3.obj
 0001:001568ae       __dtoul3                   005578ae f   LIBCMT:ftol3.obj
 0001:001568bd       __dtol3                    005578bd f   LIBCMT:ftol3.obj
 0001:001568ca       __dtol3_NaN                005578ca f   LIBCMT:ftol3.obj
 0001:001568e7       __dtol3_work               005578e7 f   LIBCMT:ftol3.obj
 0001:001569cc       __ultod3                   005579cc f   LIBCMT:ftol3.obj
 0001:00156a5d       __ltod3                    00557a5d f   LIBCMT:ftol3.obj
 0001:00156a90       __libm_sse2_log_precise    00557a90 f   LIBCMT:log_sse2_precise.obj
 0001:00156d20       __wassert                  00557d20 f   LIBCMT:wassert.obj
 0001:001573c4       ___doserrno                005583c4 f   LIBCMT:dosmap.obj
 0001:001573d7       __dosmaperr                005583d7 f   LIBCMT:dosmap.obj
 0001:001573f8       __errno                    005583f8 f   LIBCMT:dosmap.obj
 0001:0015740b       __get_doserrno             0055840b f   LIBCMT:dosmap.obj
 0001:0015742e       __get_errno                0055842e f   LIBCMT:dosmap.obj
 0001:00157451       __get_errno_from_oserr     00558451 f   LIBCMT:dosmap.obj
 0001:00157492       __set_doserrno             00558492 f   LIBCMT:dosmap.obj
 0001:001574b1       __set_errno                005584b1 f   LIBCMT:dosmap.obj
 0001:001574d0       _realloc                   005584d0 f   LIBCMT:realloc.obj
 0001:0015757b       __get_sys_err_msg          0055857b f i LIBCMT:strerror.obj
 0001:001575a1       _strerror                  005585a1 f   LIBCMT:strerror.obj
 0001:00157609       _strerror_s                00558609 f   LIBCMT:strerror.obj
 0001:00157660       _strncpy                   00558660 f   LIBCMT:strncpy.obj
 0001:00157784       __mkdir                    00558784 f   LIBCMT:mkdir.obj
 0001:001577d0       _qsort                     005587d0 f   LIBCMT:qsort.obj
 0001:00157bd7       ??0_LocaleUpdate@@QAE@PAUlocaleinfo_struct@@@Z 00558bd7 f i LIBCMT:stricmp.obj
 0001:00157c5f       ??1_LocaleUpdate@@QAE@XZ   00558c5f f i LIBCMT:stricmp.obj
 0001:00157c6d       ?GetLocaleT@_LocaleUpdate@@QAEPAUlocaleinfo_struct@@XZ 00558c6d f i LIBCMT:stricmp.obj
 0001:00157c70       ___ascii_stricmp           00558c70 f   LIBCMT:stricmp.obj
 0001:00157ca9       __stricmp                  00558ca9 f   LIBCMT:stricmp.obj
 0001:00157cf0       __stricmp_l                00558cf0 f   LIBCMT:stricmp.obj
 0001:00157d85       ??_M@YGXPAXIHP6EX0@Z@Z     00558d85 f   LIBCMT:ehvecdtr.obj
 0001:00157e0d       ?__ArrayUnwind@@YGXPAXIHP6EX0@Z@Z 00558e0d f   LIBCMT:ehvecdtr.obj
 0001:00157e6b       ??_V@YAXPAX@Z              00558e6b f   LIBCMT:delete2.obj
 0001:00157e70       _strchr                    00558e70 f   LIBCMT:strchr.obj
 0001:00157ede       ___from_strstr_to_strchr   00558ede     LIBCMT:strchr.obj
 0001:00157f9b       __strnicmp                 00558f9b f   LIBCMT:strnicmp.obj
 0001:00158006       __strnicmp_l               00559006 f   LIBCMT:strnicmp.obj
 0001:001580c0       _strstr                    005590c0 f   LIBCMT:strstr.obj
 0001:00158323       __atoi64                   00559323 f   LIBCMT:atox.obj
 0001:00158337       __atoi64_l                 00559337 f   LIBCMT:atox.obj
 0001:0015834e       __atoi_l                   0055934e f   LIBCMT:atox.obj
 0001:00158357       __atol_l                   00559357 f   LIBCMT:atox.obj
 0001:0015836e       __atoll_l                  0055936e f   LIBCMT:atox.obj
 0001:00158385       _atoi                      00559385 f   LIBCMT:atox.obj
 0001:0015838e       _atol                      0055938e f   LIBCMT:atox.obj
 0001:001583a2       _atoll                     005593a2 f   LIBCMT:atox.obj
 0001:001583b6       __fgetchar                 005593b6 f   LIBCMT:fgetchar.obj
 0001:001583c3       _getchar                   005593c3 f   LIBCMT:fgetchar.obj
 0001:001583d0       _ceil                      005593d0 f   LIBCMT:ceil_pentium4.obj
 0001:00158410       __ceil_pentium4            00559410 f   LIBCMT:ceil_pentium4.obj
 0001:001584ed       ___STRINGTOLD              005594ed f   LIBCMT:atof.obj
 0001:00158526       ___strgtold12              00559526 f   LIBCMT:atof.obj
 0001:00158568       __atof_l                   00559568 f   LIBCMT:atof.obj
 0001:00158606       _atof                      00559606 f   LIBCMT:atof.obj
 0001:00158617       ??_L@YGXPAXIHP6EX0@Z1@Z    00559617 f   LIBCMT:ehvecctr.obj
 0001:00158679       ??_U@YAPAXI@Z              00559679 f   LIBCMT:new2.obj
 0001:00158682       __stat64i32                00559682 f   LIBCMT:stati32.obj
 0001:001586c8       __getcwd                   005596c8 f   LIBCMT:getcwd.obj
 0001:001586dd       __getdcwd                  005596dd f   LIBCMT:getcwd.obj
 0001:001587f9       __validdrive               005597f9 f   LIBCMT:getcwd.obj
 0001:00158875       __chdir                    00559875 f   LIBCMT:chdir.obj
 0001:00158991       __toupper                  00559991 f   LIBCMT:toupper.obj
 0001:0015899c       __toupper_l                0055999c f   LIBCMT:toupper.obj
 0001:00158ae0       _toupper                   00559ae0 f   LIBCMT:toupper.obj
 0001:00158b0c       __tolower                  00559b0c f   LIBCMT:tolower.obj
 0001:00158b17       __tolower_l                00559b17 f   LIBCMT:tolower.obj
 0001:00158c5a       _tolower                   00559c5a f   LIBCMT:tolower.obj
 0001:00158c86       ___initstdio               00559c86 f   LIBCMT:_file.obj
 0001:00158cf9       ___endstdio                00559cf9 f   LIBCMT:_file.obj
 0001:00158d20       ___iob_func                00559d20 f   LIBCMT:_file.obj
 0001:00158d26       __lock_file                00559d26 f   LIBCMT:_file.obj
 0001:00158d65       __lock_file2               00559d65 f   LIBCMT:_file.obj
 0001:00158d95       __unlock_file              00559d95 f   LIBCMT:_file.obj
 0001:00158dcf       __unlock_file2             00559dcf f   LIBCMT:_file.obj
 0001:00158dfc       __fflush_nolock            00559dfc f   LIBCMT:fflush.obj
 0001:00158e42       __flush                    00559e42 f   LIBCMT:fflush.obj
 0001:00158ea6       __flushall                 00559ea6 f   LIBCMT:fflush.obj
 0001:00158eaf       _fflush                    00559eaf f   LIBCMT:fflush.obj
 0001:00158fec       __fseek_nolock             00559fec f   LIBCMT:fseek.obj
 0001:0015907b       _fseek                     0055a07b f   LIBCMT:fseek.obj
 0001:001590fe       __ftell_nolock             0055a0fe f   LIBCMT:ftell.obj
 0001:0015948e       _ftell                     0055a48e f   LIBCMT:ftell.obj
 0001:001594fa       ___inc_tmpoff              0055a4fa f   LIBCMT:tmpfile.obj
 0001:00159501       __tmpfile_helper           0055a501 f   LIBCMT:tmpfile.obj
 0001:00159695       __tmpnam_helper            0055a695 f   LIBCMT:tmpfile.obj
 0001:001599ab       _tmpfile                   0055a9ab f   LIBCMT:tmpfile.obj
 0001:001599c7       _tmpfile_s                 0055a9c7 f   LIBCMT:tmpfile.obj
 0001:001599d8       _tmpnam                    0055a9d8 f   LIBCMT:tmpfile.obj
 0001:001599ff       _tmpnam_s                  0055a9ff f   LIBCMT:tmpfile.obj
 0001:00159a3b       __vprintf_l                0055aa3b f   LIBCMT:vprintf.obj
 0001:00159a56       __vprintf_p                0055aa56 f   LIBCMT:vprintf.obj
 0001:00159a70       __vprintf_p_l              0055aa70 f   LIBCMT:vprintf.obj
 0001:00159a8b       __vprintf_s_l              0055aa8b f   LIBCMT:vprintf.obj
 0001:00159aa6       _vprintf                   0055aaa6 f   LIBCMT:vprintf.obj
 0001:00159ac0       _vprintf_helper            0055aac0 f   LIBCMT:vprintf.obj
 0001:00159b4d       _vprintf_s                 0055ab4d f   LIBCMT:vprintf.obj
 0001:00159b67       __vscprintf                0055ab67 f   LIBCMT:vsprintf.obj
 0001:00159b81       __vscprintf_helper         0055ab81 f   LIBCMT:vsprintf.obj
 0001:00159bdd       __vscprintf_l              0055abdd f   LIBCMT:vsprintf.obj
 0001:00159bf8       __vscprintf_p              0055abf8 f   LIBCMT:vsprintf.obj
 0001:00159c12       __vscprintf_p_l            0055ac12 f   LIBCMT:vsprintf.obj
 0001:00159c2d       __vsprintf_l               0055ac2d f   LIBCMT:vsprintf.obj
 0001:00159cb1       _vsprintf                  0055acb1 f   LIBCMT:vsprintf.obj
 0001:00159cc9       _calloc                    0055acc9 f   LIBCMT:calloc.obj
 0001:00159d09       __mbsnbcpy                 0055ad09 f   LIBCMT:mbsnbcpy.obj
 0001:00159d21       __mbsnbcpy_l               0055ad21 f   LIBCMT:mbsnbcpy.obj
 0001:00159de7       __mbsstr                   0055ade7 f   LIBCMT:mbsstr.obj
 0001:00159dfc       __mbsstr_l                 0055adfc f   LIBCMT:mbsstr.obj
 0001:00159ee0       __allmul                   0055aee0 f   LIBCMT:llmul.obj
 0001:00159f14       __mbsicmp                  0055af14 f   LIBCMT:mbsicmp.obj
 0001:00159f29       __mbsicmp_l                0055af29 f   LIBCMT:mbsicmp.obj
 0001:0015a0e0       __alldiv                   0055b0e0 f   LIBCMT:lldiv.obj
 0001:0015a34b       _mainCRTStartup            0055b34b f   LIBCMT:crt0.obj
 0001:0015a355       ___libm_error_support      0055b355 f   LIBCMT:libm_error.obj
 0001:0015a63d       ___libm_setusermatherr     0055b63d f   LIBCMT:libm_error.obj
 0001:0015a670       _pow                       0055b670 f   LIBCMT:pow.obj
 0001:0015a6b0       __CIpow                    0055b6b0 f   LIBCMT:pow.obj
 0001:0015a6eb       __CIpow_default            0055b6eb f   LIBCMT:pow.obj
 0001:0015a704       __pow_default              0055b704     LIBCMT:pow.obj
 0001:0015a8fa       __sse2_mathfcns_init       0055b8fa f   LIBCMT:mathfcns.obj
 0001:0015a909       __set_SSE2_enable          0055b909 f   LIBCMT:mathfcns.obj
 0001:0015a928       __floor_default            0055b928 f   LIBCMT:floor.obj
 0001:0015a9ff       ?strrchr@@YAPADPADH@Z      0055b9ff f i LIBCMT:cvt.obj
 0001:0015aa08       __cfltcvt                  0055ba08 f   LIBCMT:cvt.obj
 0001:0015aa29       __cfltcvt_l                0055ba29 f   LIBCMT:cvt.obj
 0001:0015aaaf       __cftoa                    0055baaf f   LIBCMT:cvt.obj
 0001:0015aacd       __cftoa_l                  0055bacd f   LIBCMT:cvt.obj
 0001:0015ae29       __cftoe                    0055be29 f   LIBCMT:cvt.obj
 0001:0015af98       __cftoe_l                  0055bf98 f   LIBCMT:cvt.obj
 0001:0015b066       __cftof                    0055c066 f   LIBCMT:cvt.obj
 0001:0015b16d       __cftof_l                  0055c16d f   LIBCMT:cvt.obj
 0001:0015b22e       __cftog                    0055c22e f   LIBCMT:cvt.obj
 0001:0015b24c       __cftog_l                  0055c24c f   LIBCMT:cvt.obj
 0001:0015b34b       __cropzeros                0055c34b f   LIBCMT:cvt.obj
 0001:0015b35c       __cropzeros_l              0055c35c f   LIBCMT:cvt.obj
 0001:0015b3dc       __fassign                  0055c3dc f   LIBCMT:cvt.obj
 0001:0015b3f4       __fassign_l                0055c3f4 f   LIBCMT:cvt.obj
 0001:0015b436       __forcdecpt                0055c436 f   LIBCMT:cvt.obj
 0001:0015b447       __forcdecpt_l              0055c447 f   LIBCMT:cvt.obj
 0001:0015b4bb       __positive                 0055c4bb f   LIBCMT:cvt.obj
 0001:0015b4fd       __setdefaultprecision      0055c4fd f   LIBCMT:fp8.obj
 0001:0015b524       __initp_misc_cfltcvt_tab   0055c524 f   LIBCMT:cmiscdat.obj
 0001:0015b543       __set_abort_behavior       0055c543 f   LIBCMT:abort.obj
 0001:0015b562       _abort                     0055c562 f   LIBCMT:abort.obj
 0001:0015b5a5       ___getlocaleinfo           0055c5a5 f   LIBCMT:inithelp.obj
 0001:0015b77e       __initp_misc_purevirt      0055c77e f   LIBCMT:inithelp.obj
 0001:0015b78b       ??0__non_rtti_object@std@@QAE@ABV01@@Z 0055c78b f   LIBCMT:stdexcpt.obj
 0001:0015b7a6       ??0__non_rtti_object@std@@QAE@PBD@Z 0055c7a6 f   LIBCMT:stdexcpt.obj
 0001:0015b7c1       ??0bad_cast@std@@QAE@ABV01@@Z 0055c7c1 f   LIBCMT:stdexcpt.obj
 0001:0015b7dc       ??0bad_cast@std@@QAE@PBD@Z 0055c7dc f   LIBCMT:stdexcpt.obj
 0001:0015b7f8       ??0bad_typeid@std@@QAE@ABV01@@Z 0055c7f8 f   LIBCMT:stdexcpt.obj
 0001:0015b813       ??0bad_typeid@std@@QAE@PBD@Z 0055c813 f   LIBCMT:stdexcpt.obj
 0001:0015b82f       ??0exception@std@@QAE@ABQBD@Z 0055c82f f   LIBCMT:stdexcpt.obj
 0001:0015b854       ??0exception@std@@QAE@ABQBDH@Z 0055c854 f   LIBCMT:stdexcpt.obj
 0001:0015b86f       ??0exception@std@@QAE@ABV01@@Z 0055c86f f   LIBCMT:stdexcpt.obj
 0001:0015b892       ??0exception@std@@QAE@XZ   0055c892 f   LIBCMT:stdexcpt.obj
 0001:0015b8a3       ??1__non_rtti_object@std@@UAE@XZ 0055c8a3 f   LIBCMT:stdexcpt.obj
 0001:0015b8ae       ??1bad_cast@std@@UAE@XZ    0055c8ae f   LIBCMT:stdexcpt.obj
 0001:0015b8b9       ??1bad_typeid@std@@UAE@XZ  0055c8b9 f   LIBCMT:stdexcpt.obj
 0001:0015b8c4       ??1exception@std@@UAE@XZ   0055c8c4 f   LIBCMT:stdexcpt.obj
 0001:0015b8cf       ??4exception@std@@QAEAAV01@ABV01@@Z 0055c8cf f   LIBCMT:stdexcpt.obj
 0001:0015b902       ??_E__non_rtti_object@std@@UAEPAXI@Z 0055c902 f i LIBCMT:stdexcpt.obj
 0001:0015b902       ??_G__non_rtti_object@std@@UAEPAXI@Z 0055c902 f i LIBCMT:stdexcpt.obj
 0001:0015b927       ??_Gbad_cast@std@@UAEPAXI@Z 0055c927 f i LIBCMT:stdexcpt.obj
 0001:0015b927       ??_Ebad_cast@std@@UAEPAXI@Z 0055c927 f i LIBCMT:stdexcpt.obj
 0001:0015b94c       ??_Ebad_typeid@std@@UAEPAXI@Z 0055c94c f i LIBCMT:stdexcpt.obj
 0001:0015b94c       ??_Gbad_typeid@std@@UAEPAXI@Z 0055c94c f i LIBCMT:stdexcpt.obj
 0001:0015b971       ??_Gexception@std@@UAEPAXI@Z 0055c971 f i LIBCMT:stdexcpt.obj
 0001:0015b971       ??_Eexception@std@@UAEPAXI@Z 0055c971 f i LIBCMT:stdexcpt.obj
 0001:0015b996       ?_Copy_str@exception@std@@AAEXPBD@Z 0055c996 f   LIBCMT:stdexcpt.obj
 0001:0015b9d4       ?_Tidy@exception@std@@AAEXXZ 0055c9d4 f   LIBCMT:stdexcpt.obj
 0001:0015b9f0       ?what@exception@std@@UBEPBDXZ 0055c9f0 f   LIBCMT:stdexcpt.obj
 0001:0015b9fd       ?_query_new_handler@@YAP6AHI@ZXZ 0055c9fd f   LIBCMT:handler.obj
 0001:0015ba0a       ?_set_new_handler@@YAP6AHI@ZH@Z 0055ca0a f   LIBCMT:handler.obj
 0001:0015ba13       ?_set_new_handler@@YAP6AHI@ZP6AHI@Z@Z 0055ca13 f   LIBCMT:handler.obj
 0001:0015ba48       __callnewh                 0055ca48 f   LIBCMT:handler.obj
 0001:0015ba6e       __initp_heap_handler       0055ca6e f   LIBCMT:handler.obj
 0001:0015ba7b       __msize                    0055ca7b f   LIBCMT:msize.obj
 0001:0015baac       __calloc_crt               0055caac f   LIBCMT:crtheap.obj
 0001:0015baf4       __malloc_crt               0055caf4 f   LIBCMT:crtheap.obj
 0001:0015bb3b       __realloc_crt              0055cb3b f   LIBCMT:crtheap.obj
 0001:0015bb85       __recalloc_crt             0055cb85 f   LIBCMT:crtheap.obj
 0001:0015bbd3       __set_malloc_crt_max_wait  0055cbd3 f   LIBCMT:crtheap.obj
 0001:0015bbe6       _wait_a_bit                0055cbe6 f i LIBCMT:crtheap.obj
 0001:0015bc10       __SEH_prolog4              0055cc10 f   LIBCMT:sehprolg4.obj
 0001:0015bc55       __SEH_epilog4              0055cc55 f   LIBCMT:sehprolg4.obj
 0001:0015bcb0       __except_handler4          0055ccb0 f   LIBCMT:chandler4.obj
 0001:0015be50       __CIsqrt                   0055ce50 f   LIBCMT:sqrt.obj
 0001:0015be64       _sqrt                      0055ce64     LIBCMT:sqrt.obj
 0001:0015bf0a       __add_exp                  0055cf0a f   LIBCMT:util.obj
 0001:0015bf39       __decomp                   0055cf39 f   LIBCMT:util.obj
 0001:0015c00b       __get_exp                  0055d00b f   LIBCMT:util.obj
 0001:0015c024       __set_bexp                 0055d024 f   LIBCMT:util.obj
 0001:0015c04d       __set_exp                  0055d04d f   LIBCMT:util.obj
 0001:0015c07c       __sptype                   0055d07c f   LIBCMT:util.obj
 0001:0015c0d7       __errcode                  0055d0d7 f   LIBCMT:fpexcept.obj
 0001:0015c109       __except1                  0055d109 f   LIBCMT:fpexcept.obj
 0001:0015c1d1       __except2                  0055d1d1 f   LIBCMT:fpexcept.obj
 0001:0015c2d1       __handle_exc               0055d2d1 f   LIBCMT:fpexcept.obj
 0001:0015c4af       __handle_qnan1             0055d4af f   LIBCMT:fpexcept.obj
 0001:0015c4ff       __handle_qnan2             0055d4ff f   LIBCMT:fpexcept.obj
 0001:0015c55f       __raise_exc                0055d55f f   LIBCMT:fpexcept.obj
 0001:0015c580       __raise_exc_ex             0055d580 f   LIBCMT:fpexcept.obj
 0001:0015c865       __raise_excf               0055d865 f   LIBCMT:fpexcept.obj
 0001:0015c886       __set_errno_from_matherr   0055d886 f   LIBCMT:fpexcept.obj
 0001:0015c8b3       __umatherr                 0055d8b3 f   LIBCMT:fpexcept.obj
 0001:0015c953       ___clrfp_sse2              0055d953 f   LIBCMT:fpctrl.obj
 0001:0015c974       ___ctrlfp_sse2             0055d974 f   LIBCMT:fpctrl.obj
 0001:0015c9ad       ___fclrf_sse2              0055d9ad f   LIBCMT:fpctrl.obj
 0001:0015c9ca       ___get_fpsr_sse2           0055d9ca f   LIBCMT:fpctrl.obj
 0001:0015c9e6       ___set_fpsr_sse2           0055d9e6 f   LIBCMT:fpctrl.obj
 0001:0015ca5c       ___set_statfp_sse2         0055da5c f   LIBCMT:fpctrl.obj
 0001:0015ca75       ___statfp_sse2             0055da75 f   LIBCMT:fpctrl.obj
 0001:0015ca8a       __clrfp                    0055da8a f   LIBCMT:fpctrl.obj
 0001:0015ca9b       __ctrlfp                   0055da9b f   LIBCMT:fpctrl.obj
 0001:0015cac6       __set_statfp               0055dac6 f   LIBCMT:fpctrl.obj
 0001:0015cb1e       __statfp                   0055db1e f   LIBCMT:fpctrl.obj
 0001:0015cb2e       ___get_flsindex            0055db2e f   LIBCMT:tidtable.obj
 0001:0015cb34       ___threadhandle            0055db34 f   LIBCMT:tidtable.obj
 0001:0015cb3a       ___threadid                0055db3a f   LIBCMT:tidtable.obj
 0001:0015cb40       __freefls@4                0055db40 f   LIBCMT:tidtable.obj
 0001:0015cc75       __freeptd                  0055dc75 f   LIBCMT:tidtable.obj
 0001:0015ccab       __getptd                   0055dcab f   LIBCMT:tidtable.obj
 0001:0015ccc3       __getptd_noexit            0055dcc3 f   LIBCMT:tidtable.obj
 0001:0015cd32       __initptd                  0055dd32 f   LIBCMT:tidtable.obj
 0001:0015cde5       __mtinit                   0055dde5 f   LIBCMT:tidtable.obj
 0001:0015ce5b       __mtterm                   0055de5b f   LIBCMT:tidtable.obj
 0001:0015ce80       __CallSettingFrame@12      0055de80 f   LIBCMT:lowhelpr.obj
 0001:0015cea7       __NLG_Return               0055dea7     LIBCMT:lowhelpr.obj
 0001:0015cecc       ?_inconsistency@@YAXXZ     0055decc f   LIBCMT:hooks.obj
 0001:0015cf04       ?terminate@@YAXXZ          0055df04 f   LIBCMT:hooks.obj
 0001:0015cf38       ?unexpected@@YAXXZ         0055df38 f   LIBCMT:hooks.obj
 0001:0015cf4b       __initp_eh_hooks           0055df4b f   LIBCMT:hooks.obj
 0001:0015cf5c       ___DestructExceptionObject 0055df5c f   LIBCMT:frame.obj
 0001:0015cfe7       ??0bad_exception@std@@QAE@ABV01@@Z 0055dfe7 f i LIBCMT:frame.obj
 0001:0015d002       ??0bad_exception@std@@QAE@PBD@Z 0055e002 f i LIBCMT:frame.obj
 0001:0015d01e       ??1bad_exception@std@@UAE@XZ 0055e01e f i LIBCMT:frame.obj
 0001:0015d029       ??_Ebad_exception@std@@UAEPAXI@Z 0055e029 f i LIBCMT:frame.obj
 0001:0015d029       ??_Gbad_exception@std@@UAEPAXI@Z 0055e029 f i LIBCMT:frame.obj
 0001:0015d896       ?__uncaught_exception@@YA_NXZ 0055e896 f   LIBCMT:frame.obj
 0001:0015d8a7       ?_is_exception_typeof@@YAHABVtype_info@@PAU_EXCEPTION_POINTERS@@@Z 0055e8a7 f   LIBCMT:frame.obj
 0001:0015d92e       __SetWinRTOutOfMemoryExceptionCallback 0055e92e f   LIBCMT:frame.obj
 0001:0015d93b       ___AdjustPointer           0055e93b f   LIBCMT:frame.obj
 0001:0015d960       ___BuildCatchObject        0055e960 f   LIBCMT:frame.obj
 0001:0015d9ee       ___BuildCatchObjectHelper  0055e9ee f   LIBCMT:frame.obj
 0001:0015dbb0       ___CxxDetectRethrow        0055ebb0 f   LIBCMT:frame.obj
 0001:0015dbff       ___CxxExceptionFilter      0055ebff f   LIBCMT:frame.obj
 0001:0015dd59       ___CxxQueryExceptionSize   0055ed59 f   LIBCMT:frame.obj
 0001:0015dd5d       ___CxxRegisterExceptionObject 0055ed5d f   LIBCMT:frame.obj
 0001:0015de14       ___CxxUnregisterExceptionObject 0055ee14 f   LIBCMT:frame.obj
 0001:0015df51       ___FrameUnwindFilter       0055ef51 f   LIBCMT:frame.obj
 0001:0015df9f       ___FrameUnwindToState      0055ef9f f   LIBCMT:frame.obj
 0001:0015e078       ___GetPlatformExceptionInfo 0055f078 f   LIBCMT:frame.obj
 0001:0015e0cd       ___InternalCxxFrameHandler 0055f0cd f   LIBCMT:frame.obj
 0001:0015e1ae       ___TypeMatch               0055f1ae f   LIBCMT:frame.obj
 0001:0015e215       __VEC_memset               0055f215 f   LIBCMT:p4_memset.obj
 0001:0015e2e0       _strcmp                    0055f2e0 f   LIBCMT:strcmp.obj
 0001:0015e36c       ?_Name_base@type_info@@CAPBDPBV1@PAU__type_info_node@@@Z 0055f36c f   LIBCMT:typname.obj
 0001:0015e45d       ?_Name_base_internal@type_info@@CAPBDPBV1@PAU__type_info_node@@@Z 0055f45d f   LIBCMT:typname.obj
 0001:0015e567       ?_Type_info_dtor@type_info@@CAXPAV1@@Z 0055f567 f   LIBCMT:typname.obj
 0001:0015e5d8       ?_Type_info_dtor_internal@type_info@@CAXPAV1@@Z 0055f5d8 f   LIBCMT:typname.obj
 0001:0015e649       ___clean_type_info_names_internal 0055f649 f   LIBCMT:typname.obj
 0001:0015e69c       ___unDNameHelper           0055f69c f   LIBCMT:typname.obj
 0001:0015e6ca       ?_invalid_parameter@@YAXPBG00II@Z 0055f6ca f   LIBCMT:invarg.obj
 0001:0015e6cf       ?_invoke_watson@@YAXPBG00II@Z 0055f6cf f   LIBCMT:invarg.obj
 0001:0015e6e7       __call_reportfault         0055f6e7 f   LIBCMT:invarg.obj
 0001:0015e80c       __get_invalid_parameter_handler 0055f80c f   LIBCMT:invarg.obj
 0001:0015e819       __initp_misc_invarg        0055f819 f   LIBCMT:invarg.obj
 0001:0015e826       __invalid_parameter        0055f826 f   LIBCMT:invarg.obj
 0001:0015e851       __invalid_parameter_noinfo 0055f851 f   LIBCMT:invarg.obj
 0001:0015e861       __invalid_parameter_noinfo_noreturn 0055f861 f   LIBCMT:invarg.obj
 0001:0015e87c       __invoke_watson            0055f87c f   LIBCMT:invarg.obj
 0001:0015e8a7       __set_invalid_parameter_handler 0055f8a7 f   LIBCMT:invarg.obj
 0001:0015e8cc       __filbuf                   0055f8cc f   LIBCMT:_filbuf.obj
 0001:0015e9ed       __fileno                   0055f9ed f   LIBCMT:fileno.obj
 0001:0015ea11       _memcpy_s                  0055fa11 f   LIBCMT:memcpy_s.obj
 0001:0015ea90       __read                     0055fa90 f   LIBCMT:read.obj
 0001:0015eba4       __read_nolock              0055fba4 f   LIBCMT:read.obj
 0001:0015f335       __ftbuf                    00560335 f   LIBCMT:_sftbuf.obj
 0001:0015f366       __stbuf                    00560366 f   LIBCMT:_sftbuf.obj
 0001:0015f40c       __output_l                 0056040c f   LIBCMT:output.obj
 0001:0015ff8c       _get_int64_arg             00560f8c f i LIBCMT:output.obj
 0001:0015ff9f       _get_int_arg               00560f9f f i LIBCMT:output.obj
 0001:0015ffaf       _get_short_arg             00560faf f i LIBCMT:output.obj
 0001:001600ac       __RTC_Initialize           005610ac f   LIBCMT:initsect.obj
 0001:001600cc       __RTC_Terminate            005610cc f   LIBCMT:initsect.obj
 0001:001600ec       __lock                     005610ec f   LIBCMT:mlock.obj
 0001:00160120       __lockerr_exit             00561120 f   LIBCMT:mlock.obj
 0001:00160140       __mtdeletelocks            00561140 f   LIBCMT:mlock.obj
 0001:00160194       __mtinitlocknum            00561194 f   LIBCMT:mlock.obj
 0001:0016023d       __mtinitlocks              0056123d f   LIBCMT:mlock.obj
 0001:00160276       __unlock                   00561276 f   LIBCMT:mlock.obj
 0001:001602b8       ___crtCloseThreadpoolTimer 005612b8 f   LIBCMT:winapisupp.obj
 0001:001602cf       ___crtCloseThreadpoolWait  005612cf f   LIBCMT:winapisupp.obj
 0001:001602e6       ___crtCreateEventExW       005612e6 f   LIBCMT:winapisupp.obj
 0001:00160321       ___crtCreateSemaphoreExW   00561321 f   LIBCMT:winapisupp.obj
 0001:0016035b       ___crtCreateSymbolicLinkW  0056135b f   LIBCMT:winapisupp.obj
 0001:00160384       ___crtCreateThreadpoolTimer 00561384 f   LIBCMT:winapisupp.obj
 0001:001603a5       ___crtCreateThreadpoolWait 005613a5 f   LIBCMT:winapisupp.obj
 0001:001603c6       ___crtFlsAlloc             005613c6 f   LIBCMT:winapisupp.obj
 0001:001603e4       ___crtFlsFree              005613e4 f   LIBCMT:winapisupp.obj
 0001:00160403       ___crtFlsGetValue          00561403 f   LIBCMT:winapisupp.obj
 0001:00160422       ___crtFlsSetValue          00561422 f   LIBCMT:winapisupp.obj
 0001:00160444       ___crtFlushProcessWriteBuffers 00561444 f   LIBCMT:winapisupp.obj
 0001:00160454       ___crtFreeLibraryWhenCallbackReturns 00561454 f   LIBCMT:winapisupp.obj
 0001:0016046e       ___crtGetCurrentProcessorNumber 0056146e f   LIBCMT:winapisupp.obj
 0001:00160480       ___crtGetFileInformationByHandleEx 00561480 f   LIBCMT:winapisupp.obj
 0001:001604ac       ___crtGetLogicalProcessorInformation 005614ac f   LIBCMT:winapisupp.obj
 0001:001604d2       ___crtGetShowWindowMode    005614d2 f   LIBCMT:winapisupp.obj
 0001:001604f5       ___crtGetTickCount64       005614f5 f   LIBCMT:winapisupp.obj
 0001:0016050d       ___crtInitializeCriticalSectionEx 0056150d f   LIBCMT:winapisupp.obj
 0001:0016053b       ___crtIsPackagedApp        0056153b f   LIBCMT:winapisupp.obj
 0001:0016057b       ___crtLoadWinApiPointers   0056157b f   LIBCMT:winapisupp.obj
 0001:00160806       ___crtSetFileInformationByHandle 00561806 f   LIBCMT:winapisupp.obj
 0001:00160832       ___crtSetThreadStackGuarantee 00561832 f   LIBCMT:winapisupp.obj
 0001:0016084d       ___crtSetThreadpoolTimer   0056184d f   LIBCMT:winapisupp.obj
 0001:0016086d       ___crtSetThreadpoolWait    0056186d f   LIBCMT:winapisupp.obj
 0001:0016088a       ___crtSetUnhandledExceptionFilter 0056188a f   LIBCMT:winapisupp.obj
 0001:00160898       ___crtSleep                00561898 f   LIBCMT:winapisupp.obj
 0001:001608a6       ___crtTerminateProcess     005618a6 f   LIBCMT:winapisupp.obj
 0001:001608bb       ___crtUnhandledException   005618bb f   LIBCMT:winapisupp.obj
 0001:001608d1       ___crtWaitForThreadpoolTimerCallbacks 005618d1 f   LIBCMT:winapisupp.obj
 0001:001608eb       __FF_MSGBANNER             005618eb f   LIBCMT:crt0msg.obj
 0001:00160924       __GET_RTERRMSG             00561924 f   LIBCMT:crt0msg.obj
 0001:00160948       __NMSG_WRITE               00561948 f   LIBCMT:crt0msg.obj
 0001:00160b10       __FindPESection            00561b10 f   LIBCMT:pesect.obj
 0001:00160b60       __IsNonwritableInCurrentImage 00561b60 f   LIBCMT:pesect.obj
 0001:00160c20       __ValidateImageBase        00561c20 f   LIBCMT:pesect.obj
 0001:00160c51       ___fpecode                 00561c51 f   LIBCMT:winsig.obj
 0001:00160c5a       ___get_sigabrt             00561c5a f   LIBCMT:winsig.obj
 0001:00160c67       ___pxcptinfoptrs           00561c67 f   LIBCMT:winsig.obj
 0001:00160c70       __initp_misc_winsig        00561c70 f   LIBCMT:winsig.obj
 0001:00160d31       _raise                     00561d31 f   LIBCMT:winsig.obj
 0001:00160f26       _signal                    00561f26 f   LIBCMT:winsig.obj
 0001:0016117d       __initp_misc_rand_s        0056217d f   LIBCMT:rand_s.obj
 0001:0016118a       _rand_s                    0056218a f   LIBCMT:rand_s.obj
 0001:00161290       ___initmbctable            00562290 f   LIBCMT:mbctype.obj
 0001:00161547       ___updatetmbcinfo          00562547 f   LIBCMT:mbctype.obj
 0001:001615ed       __getmbcp                  005625ed f   LIBCMT:mbctype.obj
 0001:0016161e       __setmbcp                  0056261e f   LIBCMT:mbctype.obj
 0001:001617c6       __setmbcp_nolock           005627c6 f   LIBCMT:mbctype.obj
 0001:001619b1       __close                    005629b1 f   LIBCMT:close.obj
 0001:00161a8c       __close_nolock             00562a8c f   LIBCMT:close.obj
 0001:00161b26       __freebuf                  00562b26 f   LIBCMT:_freebuf.obj
 0001:00161b56       __ioinit                   00562b56 f   LIBCMT:ioinit.obj
 0001:00161e0a       __ioterm                   00562e0a f   LIBCMT:ioinit.obj
 0001:00161e5c       __getstream                00562e5c f   LIBCMT:stream.obj
 0001:00161f7b       __openfile                 00562f7b f   LIBCMT:_open.obj
 0001:00162200       __local_unwind4            00563200 f   LIBCMT:exsup4.obj
 0001:001622d6       __seh_longjmp_unwind4@4    005632d6 f   LIBCMT:exsup4.obj
 0001:001622f2       @_EH4_CallFilterFunc@8     005632f2 f   LIBCMT:exsup4.obj
 0001:00162309       @_EH4_TransferToHandler@8  00563309 f   LIBCMT:exsup4.obj
 0001:00162322       @_EH4_GlobalUnwind2@8      00563322 f   LIBCMT:exsup4.obj
 0001:0016233b       @_EH4_LocalUnwind@16       0056333b f   LIBCMT:exsup4.obj
 0001:00162352       __vfprintf_l               00563352 f   LIBCMT:vfprintf.obj
 0001:00162370       __vfprintf_p               00563370 f   LIBCMT:vfprintf.obj
 0001:0016238d       __vfprintf_p_l             0056338d f   LIBCMT:vfprintf.obj
 0001:001623ab       __vfprintf_s_l             005633ab f   LIBCMT:vfprintf.obj
 0001:001623c9       _vfprintf                  005633c9 f   LIBCMT:vfprintf.obj
 0001:001623e6       _vfprintf_helper           005633e6 f   LIBCMT:vfprintf.obj
 0001:001624f7       _vfprintf_s                005634f7 f   LIBCMT:vfprintf.obj
 0001:00162514       __INTRN_LOCALE_CONV        00563514 f i LIBCMT:input.obj
 0001:001625c6       __input_l                  005635c6 f   LIBCMT:input.obj
 0001:001637f6       __input_s_l                005647f6 f   LIBCMT:inputs.obj
 0001:00164ae4       __flsbuf                   00565ae4 f   LIBCMT:_flsbuf.obj
 0001:00164c33       __write                    00565c33 f   LIBCMT:write.obj
 0001:00164d22       __write_nolock             00565d22 f   LIBCMT:write.obj
 0001:00165587       __getbuf                   00566587 f   LIBCMT:_getbuf.obj
 0001:001655cd       __get_heap_handle          005665cd f   LIBCMT:heapinit.obj
 0001:001655d3       __heap_init                005665d3 f   LIBCMT:heapinit.obj
 0001:001655e8       __heap_term                005665e8 f   LIBCMT:heapinit.obj
 0001:001655f0       __crt_debugger_hook        005665f0 f   LIBCMT:dbghook.obj
 0001:001655f8       __vsnprintf_c              005665f8 f   LIBCMT:vsnprnc.obj
 0001:0016561f       __vsnprintf_c_l            0056661f f   LIBCMT:vsnprnc.obj
 0001:00165647       __vsnprintf_helper         00566647 f   LIBCMT:vsnprnc.obj
 0001:00165711       _vsnprintf_s               00566711 f   LIBCMT:vsnprnc.obj
 0001:00165711       __vsnprintf_s              00566711 f   LIBCMT:vsnprnc.obj
 0001:0016572f       __vsnprintf_s_l            0056672f f   LIBCMT:vsnprnc.obj
 0001:0016582f       __vsprintf_p               0056682f f   LIBCMT:vsnprnc.obj
 0001:00165856       __vsprintf_p_l             00566856 f   LIBCMT:vsnprnc.obj
 0001:0016587e       __vsprintf_s_l             0056687e f   LIBCMT:vsnprnc.obj
 0001:001658f3       _vsprintf_s                005668f3 f   LIBCMT:vsnprnc.obj
 0001:0016590e       __spawnve                  0056690e f   LIBCMT:spawnve.obj
 0001:00165b6d       __spawnvpe                 00566b6d f   LIBCMT:spawnvpe.obj
 0001:00165ddf       __access                   00566ddf f   LIBCMT:access.obj
 0001:00165df5       __access_s                 00566df5 f   LIBCMT:access.obj
 0001:00165e3f       __dupenv_s                 00566e3f f   LIBCMT:getenv.obj
 0001:00165fb2       __getenv_helper_nolock     00566fb2 f   LIBCMT:getenv.obj
 0001:001660d1       _getenv                    005670d1 f   LIBCMT:getenv.obj
 0001:00166151       _getenv_s                  00567151 f   LIBCMT:getenv.obj
 0001:00166230       __aulldiv                  00567230 f   LIBCMT:ulldiv.obj
 0001:00166298       ___daylight                00567298 f   LIBCMT:timeset.obj
 0001:0016629e       ___dstbias                 0056729e f   LIBCMT:timeset.obj
 0001:001662a4       ___timezone                005672a4 f   LIBCMT:timeset.obj
 0001:001662aa       ___tzname                  005672aa f   LIBCMT:timeset.obj
 0001:001662b0       __get_daylight             005672b0 f   LIBCMT:timeset.obj
 0001:001662da       __get_dstbias              005672da f   LIBCMT:timeset.obj
 0001:00166304       __get_timezone             00567304 f   LIBCMT:timeset.obj
 0001:0016632e       __get_tzname               0056732e f   LIBCMT:timeset.obj
 0001:001663c1       ___tzset                   005673c1 f   LIBCMT:tzset.obj
 0001:00166411       __isindst                  00567411 f   LIBCMT:tzset.obj
 0001:0016663f       __set_daylight             0056763f f i LIBCMT:tzset.obj
 0001:0016664e       __set_dstbias              0056764e f i LIBCMT:tzset.obj
 0001:0016665d       __set_timezone             0056765d f i LIBCMT:tzset.obj
 0001:0016666c       __tzset                    0056766c f   LIBCMT:tzset.obj
 0001:00166bc0       __aullrem                  00567bc0 f   LIBCMT:ullrem.obj
 0001:00166c40       _log                       00567c40 f   LIBCMT:log.obj
 0001:00166c80       __CIlog                    00567c80 f   LIBCMT:log.obj
 0001:00166cbb       __CIlog_default            00567cbb f   LIBCMT:log.obj
 0001:00166ccf       __log_default              00567ccf     LIBCMT:log.obj
 0001:00166d90       _wcscat_s                  00567d90 f   LIBCMT:wcscat_s.obj
 0001:00166dfc       _wcscpy_s                  00567dfc f   LIBCMT:wcscpy_s.obj
 0001:00166e58       _wcslen                    00567e58 f   LIBCMT:wcslen.obj
 0001:00166e71       _wcsncat_s                 00567e71 f   LIBCMT:wcsncat_s.obj
 0001:00166f3f       ___set_app_type            00567f3f f   LIBCMT:errmode.obj
 0001:00166f4c       __set_error_mode           00567f4c f   LIBCMT:errmode.obj
 0001:001670a8       __i64tow_s                 005680a8 f   LIBCMT:xtows.obj
 0001:001670d9       __itow_s                   005680d9 f   LIBCMT:xtows.obj
 0001:00167102       __ltow_s                   00568102 f   LIBCMT:xtows.obj
 0001:0016712c       __ui64tow_s                0056812c f   LIBCMT:xtows.obj
 0001:00167147       __ultow_s                  00568147 f   LIBCMT:xtows.obj
 0001:00167252       _setvbuf                   00568252 f   LIBCMT:setvbuf.obj
 0001:00167358       __fwprintf_l               00568358 f   LIBCMT:fwprintf.obj
 0001:00167372       __fwprintf_p               00568372 f   LIBCMT:fwprintf.obj
 0001:0016738b       __fwprintf_p_l             0056838b f   LIBCMT:fwprintf.obj
 0001:001673a5       __fwprintf_s_l             005683a5 f   LIBCMT:fwprintf.obj
 0001:001673bf       _fwprintf                  005683bf f   LIBCMT:fwprintf.obj
 0001:00167453       _fwprintf_s                00568453 f   LIBCMT:fwprintf.obj
 0001:0016746c       __vsnwprintf_s             0056846c f   LIBCMT:vswprnc.obj
 0001:0016748a       __vsnwprintf_s_l           0056848a f   LIBCMT:vswprnc.obj
 0001:0016758e       __vswprintf_c              0056858e f   LIBCMT:vswprnc.obj
 0001:001675b5       __vswprintf_c_l            005685b5 f   LIBCMT:vswprnc.obj
 0001:001675dd       __vswprintf_helper         005685dd f   LIBCMT:vswprnc.obj
 0001:001676d8       __vswprintf_p              005686d8 f   LIBCMT:vswprnc.obj
 0001:001676ff       __vswprintf_p_l            005686ff f   LIBCMT:vswprnc.obj
 0001:00167727       __vswprintf_s_l            00568727 f   LIBCMT:vswprnc.obj
 0001:0016779e       _vswprintf_s               0056879e f   LIBCMT:vswprnc.obj
 0001:001677b9       ___crtMessageBoxW          005687b9 f   LIBCMT:crtmboxw.obj
 0001:0016799f       ___crtMessageBoxWaitThreadW@4 0056899f f   LIBCMT:crtmboxw.obj
 0001:001679bd       __vsnprintf                005689bd f   LIBCMT:vsnprint.obj
 0001:001679bd       _vsnprintf                 005689bd f   LIBCMT:vsnprint.obj
 0001:001679d8       __vsnprintf_l              005689d8 f   LIBCMT:vsnprint.obj
 0001:00167a84       ___sys_errlist             00568a84 f   LIBCMT:syserr.obj
 0001:00167a8a       ___sys_nerr                00568a8a f   LIBCMT:syserr.obj
 0001:00167a90       _strcpy_s                  00568a90 f   LIBCMT:strcpy_s.obj
 0001:00167ae5       _strncpy_s                 00568ae5 f   LIBCMT:strncpy_s.obj
 0001:00167b89       __wmkdir                   00568b89 f   LIBCMT:wmkdir.obj
 0001:00167bba       ___addlocaleref            00568bba f   LIBCMT:localref.obj
 0001:00167c4f       ___freetlocinfo            00568c4f f   LIBCMT:localref.obj
 0001:00167da9       ___removelocaleref         00568da9 f   LIBCMT:localref.obj
 0001:00167e49       ___updatetlocinfo          00568e49 f   LIBCMT:localref.obj
 0001:00167ec9       __updatetlocinfoEx_nolock  00568ec9 f   LIBCMT:localref.obj
 0001:00167f14       ___init_dummy              00568f14 f   LIBCMT:wsetloca.obj
 0001:00167f17       __locterm                  00568f17 f   LIBCMT:wsetloca.obj
 0001:00167f69       ____setlc_active_func      00568f69 f   LIBCMT:wsetloca.obj
 0001:00167f6f       ____unguarded_readlc_active_add_func 00568f6f f   LIBCMT:wsetloca.obj
 0001:00167f75       ___copy_locale_name        00568f75 f   LIBCMT:wsetloca.obj
 0001:00167fd9       ___create_locale           00568fd9 f   LIBCMT:wsetloca.obj
 0001:00167fe2       ___free_locale             00568fe2 f   LIBCMT:wsetloca.obj
 0001:00167fe7       ___get_current_locale      00568fe7 f   LIBCMT:wsetloca.obj
 0001:00167fec       ___lc_lctowcs              00568fec f   LIBCMT:wsetloca.obj
 0001:0016805a       ___lc_wcstolc              0056905a f   LIBCMT:wsetloca.obj
 0001:00168186       __configthreadlocale       00569186 f   LIBCMT:wsetloca.obj
 0001:0016820c       __create_locale            0056920c f   LIBCMT:wsetloca.obj
 0001:0016826e       __expandlocale             0056926e f   LIBCMT:wsetloca.obj
 0001:00168565       __free_locale              00569565 f   LIBCMT:wsetloca.obj
 0001:0016861c       __get_current_locale       0056961c f   LIBCMT:wsetloca.obj
 0001:001686cb       __wcreate_locale           005696cb f   LIBCMT:wsetloca.obj
 0001:001687a2       __wcscats                  005697a2 f   LIBCMT:wsetloca.obj
 0001:001687e1       __wsetlocale               005697e1 f   LIBCMT:wsetloca.obj
 0001:00169130       ___ascii_strnicmp          0056a130 f   LIBCMT:_strnicm.obj
 0001:00169401       __strtof_l                 0056a401 f   LIBCMT:strtoq.obj
 0001:00169421       __strtoi64                 0056a421 f   LIBCMT:strtoq.obj
 0001:0016944b       __strtoi64_l               0056a44b f   LIBCMT:strtoq.obj
 0001:00169466       __strtoimax_l              0056a466 f   LIBCMT:strtoq.obj
 0001:0016946f       __strtold_l                0056a46f f   LIBCMT:strtoq.obj
 0001:00169478       __strtoll_l                0056a478 f   LIBCMT:strtoq.obj
 0001:00169481       __strtoui64                0056a481 f   LIBCMT:strtoq.obj
 0001:001694ab       __strtoui64_l              0056a4ab f   LIBCMT:strtoq.obj
 0001:001694c6       __strtoull_l               0056a4c6 f   LIBCMT:strtoq.obj
 0001:001694cf       __strtoumax_l              0056a4cf f   LIBCMT:strtoq.obj
 0001:001694d8       _strtof                    0056a4d8 f   LIBCMT:strtoq.obj
 0001:001694f7       _strtoimax                 0056a4f7 f   LIBCMT:strtoq.obj
 0001:00169500       _strtold                   0056a500 f   LIBCMT:strtoq.obj
 0001:00169509       _strtoll                   0056a509 f   LIBCMT:strtoq.obj
 0001:00169512       _strtoull                  0056a512 f   LIBCMT:strtoq.obj
 0001:0016951b       _strtoumax                 0056a51b f   LIBCMT:strtoq.obj
 0001:0016974a       __strtol_l                 0056a74a f   LIBCMT:strtol.obj
 0001:00169765       __strtoul_l                0056a765 f   LIBCMT:strtol.obj
 0001:00169780       _strtol                    0056a780 f   LIBCMT:strtol.obj
 0001:001697aa       _strtoul                   0056a7aa f   LIBCMT:strtol.obj
 0001:001697d4       __ceil_default             0056a7d4 f   LIBCMT:ceil.obj
 0001:001698ab       __fltin2                   0056a8ab f   LIBCMT:cfin.obj
 0001:00169952       ___STRINGTOLD_L            0056a952 f   LIBCMT:strgtold.obj
 0001:001699ad       ___addl                    0056a9ad f i LIBCMT:strgtold.obj
 0001:001699d1       ___ld12mul                 0056a9d1 f i LIBCMT:strgtold.obj
 0001:00169c9d       ___multtenpow12            0056ac9d f i LIBCMT:strgtold.obj
 0001:00169ff0       ___shl_12                  0056aff0 f i LIBCMT:strgtold.obj
 0001:0016a021       ___shr_12                  0056b021 f i LIBCMT:strgtold.obj
 0001:0016a051       ___strgtold12_l            0056b051 f   LIBCMT:strgtold.obj
 0001:0016a7f9       __isctype                  0056b7f9 f   LIBCMT:isctype.obj
 0001:0016a828       __isctype_l                0056b828 f   LIBCMT:isctype.obj
 0001:0016a9e2       __wstat64i32               0056b9e2 f   LIBCMT:wstati32.obj
 0001:0016ae5c       __chdrive                  0056be5c f   LIBCMT:drive.obj
 0001:0016aeda       __getdrive                 0056beda f   LIBCMT:drive.obj
 0001:0016afa9       __mbctoupper               0056bfa9 f   LIBCMT:mbtoupr.obj
 0001:0016afba       __mbctoupper_l             0056bfba f   LIBCMT:mbtoupr.obj
 0001:0016b051       ___iswcsym                 0056c051 f i LIBCMT:_wctype.obj
 0001:0016b075       ___iswcsymf                0056c075 f i LIBCMT:_wctype.obj
 0001:0016b099       __isleadbyte_l             0056c099 f i LIBCMT:_wctype.obj
 0001:0016b0d3       __iswalnum_l               0056c0d3 f i LIBCMT:_wctype.obj
 0001:0016b0e7       __iswalpha_l               0056c0e7 f i LIBCMT:_wctype.obj
 0001:0016b0fb       __iswblank_l               0056c0fb f i LIBCMT:_wctype.obj
 0001:0016b116       __iswcntrl_l               0056c116 f i LIBCMT:_wctype.obj
 0001:0016b127       __iswcsym_l                0056c127 f i LIBCMT:_wctype.obj
 0001:0016b14b       __iswcsymf_l               0056c14b f i LIBCMT:_wctype.obj
 0001:0016b16f       __iswdigit_l               0056c16f f i LIBCMT:_wctype.obj
 0001:0016b180       __iswgraph_l               0056c180 f i LIBCMT:_wctype.obj
 0001:0016b194       __iswlower_l               0056c194 f i LIBCMT:_wctype.obj
 0001:0016b1a5       __iswprint_l               0056c1a5 f i LIBCMT:_wctype.obj
 0001:0016b1b9       __iswpunct_l               0056c1b9 f i LIBCMT:_wctype.obj
 0001:0016b1ca       __iswspace_l               0056c1ca f i LIBCMT:_wctype.obj
 0001:0016b1db       __iswupper_l               0056c1db f i LIBCMT:_wctype.obj
 0001:0016b1ec       __iswxdigit_l              0056c1ec f i LIBCMT:_wctype.obj
 0001:0016b200       _isleadbyte                0056c200 f i LIBCMT:_wctype.obj
 0001:0016b211       _iswalnum                  0056c211 f i LIBCMT:_wctype.obj
 0001:0016b225       _iswalpha                  0056c225 f i LIBCMT:_wctype.obj
 0001:0016b239       _iswascii                  0056c239 f i LIBCMT:_wctype.obj
 0001:0016b24b       _iswblank                  0056c24b f i LIBCMT:_wctype.obj
 0001:0016b266       _iswcntrl                  0056c266 f i LIBCMT:_wctype.obj
 0001:0016b277       _iswdigit                  0056c277 f i LIBCMT:_wctype.obj
 0001:0016b288       _iswgraph                  0056c288 f i LIBCMT:_wctype.obj
 0001:0016b29c       _iswlower                  0056c29c f i LIBCMT:_wctype.obj
 0001:0016b2ad       _iswprint                  0056c2ad f i LIBCMT:_wctype.obj
 0001:0016b2c1       _iswpunct                  0056c2c1 f i LIBCMT:_wctype.obj
 0001:0016b2d2       _iswspace                  0056c2d2 f i LIBCMT:_wctype.obj
 0001:0016b2e3       _iswupper                  0056c2e3 f i LIBCMT:_wctype.obj
 0001:0016b2f4       _iswxdigit                 0056c2f4 f i LIBCMT:_wctype.obj
 0001:0016b52c       __MallocaIsSizeInRange     0056c52c f i LIBCMT:a_map.obj
 0001:0016b53d       __MarkAllocaS              0056c53d f i LIBCMT:a_map.obj
 0001:0016b551       ___crtLCMapStringA         0056c551 f   LIBCMT:a_map.obj
 0001:0016b597       __freea                    0056c597 f i LIBCMT:a_map.obj
 0001:0016b5b5       __fcloseall                0056c5b5 f   LIBCMT:closeall.obj
 0001:0016b652       __commit                   0056c652 f   LIBCMT:commit.obj
 0001:0016b73b       __lseek                    0056c73b f   LIBCMT:lseek.obj
 0001:0016b82a       __lseek_nolock             0056c82a f   LIBCMT:lseek.obj
 0001:0016b8d1       __lseeki64                 0056c8d1 f   LIBCMT:lseeki64.obj
 0001:0016b9cd       __lseeki64_nolock          0056c9cd f   LIBCMT:lseeki64.obj
 0001:0016ba40       __getpid                   0056ca40 f   LIBCMT:getpid.obj
 0001:0016ba46       __open                     0056ca46 f   LIBCMT:open.obj
 0001:0016baf6       __sopen                    0056caf6 f   LIBCMT:open.obj
 0001:0016bb29       __sopen_helper             0056cb29 f   LIBCMT:open.obj
 0001:0016bbf2       __sopen_nolock             0056cbf2 f   LIBCMT:open.obj
 0001:0016bc40       __sopen_s                  0056cc40 f   LIBCMT:open.obj
 0001:0016bc5e       _strcat_s                  0056cc5e f   LIBCMT:strcat_s.obj
 0001:0016bcd0       _strlen                    0056ccd0 f   LIBCMT:strlen.obj
 0001:0016bd5b       __strdup                   0056cd5b f   LIBCMT:strdup.obj
 0001:0016be9e       __i64toa_s                 0056ce9e f   LIBCMT:xtoas.obj
 0001:0016becf       __itoa_s                   0056cecf f   LIBCMT:xtoas.obj
 0001:0016bef8       __ltoa_s                   0056cef8 f   LIBCMT:xtoas.obj
 0001:0016bf22       __ui64toa_s                0056cf22 f   LIBCMT:xtoas.obj
 0001:0016bf3d       __ultoa_s                  0056cf3d f   LIBCMT:xtoas.obj
 0001:0016c02a       __mbsrchr                  0056d02a f   LIBCMT:mbsrchr.obj
 0001:0016c03f       __mbsrchr_l                0056d03f f   LIBCMT:mbsrchr.obj
 0001:0016c0d0       __rmtmp                    0056d0d0 f   LIBCMT:rmtmp.obj
 0001:0016c17d       __output_s_l               0056d17d f   LIBCMT:outputs.obj
 0001:0016ce05       __output_p_l               0056de05 f   LIBCMT:outputp.obj
 0001:0016e13d       __validate_param_reuseA    0056f13d f   LIBCMT:outputp.obj
 0001:0016e273       _get_crtdouble_arg         0056f273 f i LIBCMT:outputp.obj
 0001:0016e372       __calloc_impl              0056f372 f   LIBCMT:calloc_impl.obj
 0001:0016e3ec       ?__CxxUnhandledExceptionFilter@@YGJPAU_EXCEPTION_POINTERS@@@Z 0056f3ec f   LIBCMT:unhandld.obj
 0001:0016e42d       ___CxxSetUnhandledExceptionFilter 0056f42d f   LIBCMT:unhandld.obj
 0001:0016e43b       __XcptFilter               0056f43b f   LIBCMT:winxfltr.obj
 0001:0016e596       ___CppXcptFilter           0056f596 f   LIBCMT:winxfltr.obj
 0001:0016e5e8       __set_pgmptr               0056f5e8 f i LIBCMT:stdargv.obj
 0001:0016e5f5       __setargv                  0056f5f5 f   LIBCMT:stdargv.obj
 0001:0016e824       __setenvp                  0056f824 f   LIBCMT:stdenvp.obj
 0001:0016e905       ___security_init_cookie    0056f905 f   LIBCMT:gs_support.obj
 0001:0016e9a1       ___crtGetEnvironmentStringsA 0056f9a1 f   LIBCMT:a_env.obj
 0001:0016ea2e       __matherr                  0056fa2e f   LIBCMT:matherr.obj
 0001:0016ea40       __CIpow_pentium4           0056fa40 f   LIBCMT:pow_pentium4.obj
 0001:0016ea59       __pow_pentium4             0056fa59     LIBCMT:pow_pentium4.obj
 0001:0016f5b1       __fFEXP                    005705b1     LIBCMT:87tran.obj
 0001:0016f608       __rtinfpopse               00570608     LIBCMT:87tran.obj
 0001:0016f60a       __rtinfnpopse              0057060a     LIBCMT:87tran.obj
 0001:0016f61a       __fFLN                     0057061a     LIBCMT:87tran.obj
 0001:0016f6cf       __rtinfpop                 005706cf     LIBCMT:87tran.obj
 0001:0016f6d1       __rtinfnpop                005706d1     LIBCMT:87tran.obj
 0001:0016f6ee       __ffexpm1                  005706ee     LIBCMT:87tran.obj
 0001:0016f7a0       __trandisp1                005707a0 f   LIBCMT:87disp.obj
 0001:0016f807       __trandisp2                00570807 f   LIBCMT:87disp.obj
 0001:0016f893       __rttospopde               00570893     LIBCMT:87disp.obj
 0001:0016f898       __rttospop                 00570898     LIBCMT:87disp.obj
 0001:0016f89a       __rtnospop                 0057089a     LIBCMT:87disp.obj
 0001:0016f89c       __rttosnpop                0057089c     LIBCMT:87disp.obj
 0001:0016f89d       __rtnospopde               0057089d     LIBCMT:87disp.obj
 0001:0016f8a4       __rtzeropop                005708a4     LIBCMT:87disp.obj
 0001:0016f8a6       __rtzeronpop               005708a6     LIBCMT:87disp.obj
 0001:0016f8ab       __rtonepop                 005708ab     LIBCMT:87disp.obj
 0001:0016f8ad       __rtonenpop                005708ad     LIBCMT:87disp.obj
 0001:0016f8b2       __tosnan1                  005708b2     LIBCMT:87disp.obj
 0001:0016f8dd       __nosnan2                  005708dd     LIBCMT:87disp.obj
 0001:0016f8df       __tosnan2                  005708df     LIBCMT:87disp.obj
 0001:0016f907       __nan2                     00570907     LIBCMT:87disp.obj
 0001:0016f946       __rtindfpop                00570946     LIBCMT:87disp.obj
 0001:0016f948       __rtindfnpop               00570948     LIBCMT:87disp.obj
 0001:0016f959       __rttosnpopde              00570959     LIBCMT:87disp.obj
 0001:0016f963       __rtchsifneg               00570963     LIBCMT:87disp.obj
 0001:0016f970       __startTwoArgErrorHandling 00570970 f   LIBCMT:genexcep.obj
 0001:0016f987       __startOneArgErrorHandling 00570987 f   LIBCMT:genexcep.obj
 0001:0016f9d0       __twoToTOS                 005709d0 f   LIBCMT:common.obj
 0001:0016f9e5       __load_CW                  005709e5 f   LIBCMT:common.obj
 0001:0016f9fc       __convertTOStoQNaN         005709fc f   LIBCMT:common.obj
 0001:0016fa15       __fload_withFB             00570a15 f   LIBCMT:common.obj
 0001:0016fa58       __checkTOS_withFB          00570a58 f   LIBCMT:common.obj
 0001:0016fa6e       __fast_exit                00570a6e f   LIBCMT:common.obj
 0001:0016fa7b       __math_exit                00570a7b f   LIBCMT:common.obj
 0001:0016faa5       __check_overflow_exit      00570aa5 f   LIBCMT:common.obj
 0001:0016fab9       __check_range_exit         00570ab9 f   LIBCMT:common.obj
 0001:0016fb5c       __d_inttype                00570b5c f   LIBCMT:powhlp.obj
 0001:0016fbc4       __powhlp                   00570bc4 f   LIBCMT:powhlp.obj
 0001:0016fcfa       __frnd                     00570cfa f   LIBCMT:frnd.obj
 0001:0016fd0e       ___isascii                 00570d0e f i LIBCMT:_ctype.obj
 0001:0016fd1e       ___iscsym                  00570d1e f i LIBCMT:_ctype.obj
 0001:0016fd3e       ___iscsymf                 00570d3e f i LIBCMT:_ctype.obj
 0001:0016fd5b       ___toascii                 00570d5b f i LIBCMT:_ctype.obj
 0001:0016fd66       __isalnum_l                00570d66 f i LIBCMT:_ctype.obj
 0001:0016fdbe       __isalpha_l                00570dbe f i LIBCMT:_ctype.obj
 0001:0016fe16       __isblank_l                00570e16 f i LIBCMT:_ctype.obj
 0001:0016fe70       __iscntrl_l                00570e70 f i LIBCMT:_ctype.obj
 0001:0016fec2       __iscsym_l                 00570ec2 f i LIBCMT:_ctype.obj
 0001:0016fee3       __iscsymf_l                00570ee3 f i LIBCMT:_ctype.obj
 0001:0016ff04       __isdigit_l                00570f04 f i LIBCMT:_ctype.obj
 0001:0016ff56       __isgraph_l                00570f56 f i LIBCMT:_ctype.obj
 0001:0016ffae       __islower_l                00570fae f i LIBCMT:_ctype.obj
 0001:00170000       __isprint_l                00571000 f i LIBCMT:_ctype.obj
 0001:00170058       __ispunct_l                00571058 f i LIBCMT:_ctype.obj
 0001:001700aa       __isspace_l                005710aa f i LIBCMT:_ctype.obj
 0001:001700fc       __isupper_l                005710fc f i LIBCMT:_ctype.obj
 0001:0017014e       __isxdigit_l               0057114e f i LIBCMT:_ctype.obj
 0001:001701a6       _isalnum                   005711a6 f i LIBCMT:_ctype.obj
 0001:001701d3       _isalpha                   005711d3 f i LIBCMT:_ctype.obj
 0001:00170200       _isblank                   00571200 f i LIBCMT:_ctype.obj
 0001:00170235       _iscntrl                   00571235 f i LIBCMT:_ctype.obj
 0001:00170260       _isdigit                   00571260 f i LIBCMT:_ctype.obj
 0001:0017028b       _isgraph                   0057128b f i LIBCMT:_ctype.obj
 0001:001702b8       _islower                   005712b8 f i LIBCMT:_ctype.obj
 0001:001702e3       _isprint                   005712e3 f i LIBCMT:_ctype.obj
 0001:00170310       _ispunct                   00571310 f i LIBCMT:_ctype.obj
 0001:0017033b       _isspace                   0057133b f i LIBCMT:_ctype.obj
 0001:00170366       _isupper                   00571366 f i LIBCMT:_ctype.obj
 0001:00170391       _isxdigit                  00571391 f i LIBCMT:_ctype.obj
 0001:001703c0       _strrchr                   005713c0 f   LIBCMT:strrchr.obj
 0001:001704f7       __fptostr                  005714f7 f   LIBCMT:_fptostr.obj
 0001:001705a7       ___crt_atoflt_l            005715a7 f   LIBCMT:atodbl.obj
 0001:0017064b       __atodbl                   0057164b f   LIBCMT:atodbl.obj
 0001:00170660       __atodbl_l                 00571660 f   LIBCMT:atodbl.obj
 0001:001706ee       __atoflt                   005716ee f   LIBCMT:atodbl.obj
 0001:00170703       __atoflt_l                 00571703 f   LIBCMT:atodbl.obj
 0001:0017071b       __atoldbl                  0057171b f   LIBCMT:atodbl.obj
 0001:00170730       __atoldbl_l                00571730 f   LIBCMT:atodbl.obj
 0001:001707bf       ___dtold                   005717bf f   LIBCMT:cfout.obj
 0001:00170887       __fltout2                  00571887 f   LIBCMT:cfout.obj
 0001:00170920       __alldvrm                  00571920 f   LIBCMT:lldvrm.obj
 0001:001709ff       __get_output_format        005719ff f   LIBCMT:outputformat.obj
 0001:00170a05       __set_output_format        00571a05 f   LIBCMT:outputformat.obj
 0001:00170a37       __controlfp_s              00571a37 f   LIBCMT:contrlfp.obj
 0001:00170a94       __fptrap                   00571a94 f   LIBCMT:crt0fp.obj
 0001:00170b81       ___crtGetLocaleInfoA       00571b81 f   LIBCMT:a_loc.obj
 0001:00170bbb       _GetTableIndexFromLcid     00571bbb f   LIBCMT:winapinls.obj
 0001:00170bf0       _GetTableIndexFromLocaleName 00571bf0 f   LIBCMT:winapinls.obj
 0001:00170c3e       ___crtCompareStringEx      00571c3e f   LIBCMT:winapinls.obj
 0001:00170c8a       ___crtDownlevelLCIDToLocaleName 00571c8a f   LIBCMT:winapinls.obj
 0001:00170d06       ___crtDownlevelLocaleNameToLCID 00571d06 f   LIBCMT:winapinls.obj
 0001:00170d44       ___crtEnumSystemLocalesEx  00571d44 f   LIBCMT:winapinls.obj
 0001:00170d81       ___crtGetDateFormatEx      00571d81 f   LIBCMT:winapinls.obj
 0001:00170dca       ___crtGetLocaleInfoEx      00571dca f   LIBCMT:winapinls.obj
 0001:00170df9       ___crtGetTimeFormatEx      00571df9 f   LIBCMT:winapinls.obj
 0001:00170e2e       ___crtGetUserDefaultLocaleName 00571e2e f   LIBCMT:winapinls.obj
 0001:00170e59       ___crtIsValidLocaleName    00571e59 f   LIBCMT:winapinls.obj
 0001:00170e84       ___crtLCMapStringEx        00571e84 f   LIBCMT:winapinls.obj
 0001:00170ed0       ___wcsnicmp_ascii          00571ed0 f   LIBCMT:winapinls.obj
 0001:00170f3e       __recalloc                 00571f3e f   LIBCMT:recalloc.obj
 0001:00170fb0       __global_unwind2           00571fb0 f   LIBCMT:exsup.obj
 0001:00171015       __local_unwind2            00572015 f   LIBCMT:exsup.obj
 0001:00171099       __abnormal_termination     00572099 f   LIBCMT:exsup.obj
 0001:001710bc       __NLG_Notify1              005720bc f   LIBCMT:exsup.obj
 0001:001710c5       __NLG_Notify               005720c5 f   LIBCMT:exsup.obj
 0001:001710dc       __NLG_Dispatch2            005720dc     LIBCMT:exsup.obj
 0001:001710dc       __NLG_Dispatch             005720dc     LIBCMT:exsup.obj
 0001:001710e4       __NLG_Call                 005720e4 f   LIBCMT:exsup.obj
 0001:001710e6       __NLG_Return2              005720e6     LIBCMT:exsup.obj
 0001:001710e7       ?_ValidateExecute@@YAHP6GHXZ@Z 005720e7 f   LIBCMT:validate.obj
 0001:001710f6       ?_ValidateRead@@YAHPBXI@Z  005720f6 f   LIBCMT:validate.obj
 0001:00171105       ?_ValidateWrite@@YAHPAXI@Z 00572105 f   LIBCMT:validate.obj
 0001:00171114       __EH_epilog3               00572114 f   LIBCMT:ehprolg3.obj
 0001:00171128       __EH_epilog3_GS            00572128 f   LIBCMT:ehprolg3.obj
 0001:00171137       __EH_epilog3_catch_GS      00572137 f   LIBCMT:ehprolg3.obj
 0001:00171146       __EH_prolog3               00572146 f   LIBCMT:ehprolg3.obj
 0001:00171179       __EH_prolog3_GS            00572179 f   LIBCMT:ehprolg3.obj
 0001:001711af       __EH_prolog3_catch         005721af f   LIBCMT:ehprolg3.obj
 0001:001711e5       __EH_prolog3_catch_GS      005721e5 f   LIBCMT:ehprolg3.obj
 0001:0017121e       ??0Block@_HeapManager@@QAE@XZ 0057221e f i LIBCMT:undname.obj
 0001:00171224       ??0DName@@QAE@AAPBDD@Z     00572224 f   LIBCMT:undname.obj
 0001:001712dd       ??0DName@@QAE@ABV0@@Z      005722dd f i LIBCMT:undname.obj
 0001:001712f3       ??0DName@@QAE@D@Z          005722f3 f   LIBCMT:undname.obj
 0001:0017131f       ??0DName@@QAE@PAV0@@Z      0057231f f   LIBCMT:undname.obj
 0001:0017136c       ??0DName@@QAE@PBD@Z        0057236c f   LIBCMT:undname.obj
 0001:001713a6       ??0DName@@QAE@W4DNameStatus@@@Z 005723a6 f   LIBCMT:undname.obj
 0001:001713e9       ??0DName@@QAE@XZ           005723e9 f i LIBCMT:undname.obj
 0001:001713fa       ??0DName@@QAE@_J@Z         005723fa f   LIBCMT:undname.obj
 0001:0017148d       ??0DName@@QAE@_K@Z         0057248d f   LIBCMT:undname.obj
 0001:001714fa       ??0DNameNode@@IAE@XZ       005724fa f   LIBCMT:undname.obj
 0001:00171503       ??0DNameStatusNode@@AAE@W4DNameStatus@@@Z 00572503 f   LIBCMT:undname.obj
 0001:00171526       ??0Replicator@@QAE@XZ      00572526 f i LIBCMT:undname.obj
 0001:0017152c       ??0UnDecorator@@QAE@PADPBDHP6APADJ@ZK@Z 0057252c f i LIBCMT:undname.obj
 0001:00171595       ??0charNode@@QAE@D@Z       00572595 f   LIBCMT:undname.obj
 0001:001715aa       ??0pDNameNode@@QAE@PAVDName@@@Z 005725aa f   LIBCMT:undname.obj
 0001:001715d2       ??0pairNode@@QAE@PAVDNameNode@@0@Z 005725d2 f   LIBCMT:undname.obj
 0001:001715f1       ??0pcharNode@@QAE@PBDH@Z   005725f1 f   LIBCMT:undname.obj
 0001:00171648       ??2@YAPAXIAAV_HeapManager@@H@Z 00572648 f i LIBCMT:undname.obj
 0001:0017165d       ??4DName@@QAEAAV0@ABV0@@Z  0057265d f   LIBCMT:undname.obj
 0001:00171673       ??4DName@@QAEAAV0@D@Z      00572673 f i LIBCMT:undname.obj
 0001:0017169f       ??4DName@@QAEAAV0@PAV0@@Z  0057269f f   LIBCMT:undname.obj
 0001:001716e8       ??4DName@@QAEAAV0@PBD@Z    005726e8 f   LIBCMT:undname.obj
 0001:0017171a       ??4DName@@QAEAAV0@W4DNameStatus@@@Z 0057271a f   LIBCMT:undname.obj
 0001:0017174f       ??AReplicator@@QBE?AVDName@@H@Z 0057274f f   LIBCMT:undname.obj
 0001:0017178b       ??BUnDecorator@@QAEPADXZ   0057278b f i LIBCMT:undname.obj
 0001:0017190a       ??H@YA?AVDName@@DABV0@@Z   0057290a f i LIBCMT:undname.obj
 0001:0017192e       ??H@YA?AVDName@@PBDABV0@@Z 0057292e f i LIBCMT:undname.obj
 0001:00171952       ??H@YA?AVDName@@W4DNameStatus@@ABV0@@Z 00572952 f i LIBCMT:undname.obj
 0001:00171976       ??HDName@@QBE?AV0@ABV0@@Z  00572976 f   LIBCMT:undname.obj
 0001:00171998       ??HDName@@QBE?AV0@D@Z      00572998 f   LIBCMT:undname.obj
 0001:001719ba       ??HDName@@QBE?AV0@PAV0@@Z  005729ba f   LIBCMT:undname.obj
 0001:001719dc       ??HDName@@QBE?AV0@PBD@Z    005729dc f   LIBCMT:undname.obj
 0001:001719fe       ??HDName@@QBE?AV0@W4DNameStatus@@@Z 005729fe f   LIBCMT:undname.obj
 0001:00171a20       ??YDName@@QAEAAV0@ABV0@@Z  00572a20 f   LIBCMT:undname.obj
 0001:00171a63       ??YDName@@QAEAAV0@D@Z      00572a63 f   LIBCMT:undname.obj
 0001:00171ab3       ??YDName@@QAEAAV0@PAV0@@Z  00572ab3 f   LIBCMT:undname.obj
 0001:00171b18       ??YDName@@QAEAAV0@PBD@Z    00572b18 f   LIBCMT:undname.obj
 0001:00171b79       ??YDName@@QAEAAV0@W4DNameStatus@@@Z 00572b79 f   LIBCMT:undname.obj
 0001:00171bb9       ??YReplicator@@QAEAAV0@ABVDName@@@Z 00572bb9 f   LIBCMT:undname.obj
 0001:00171c03       ??_5DName@@QAEAAV0@ABV0@@Z 00572c03 f   LIBCMT:undname.obj
 0001:00171c1f       ?Constructor@_HeapManager@@QAEXP6APAXI@ZP6AXPAX@Z@Z 00572c1f f i LIBCMT:undname.obj
 0001:00171c3c       ?Destructor@_HeapManager@@QAEXXZ 00572c3c f i LIBCMT:undname.obj
 0001:00171c62       ?UScore@UnDecorator@@SAPBDW4Tokens@@@Z 00572c62 f   LIBCMT:undname.obj
 0001:00171c7f       ?append@DName@@AAEXPAVDNameNode@@@Z 00572c7f f   LIBCMT:undname.obj
 0001:00171cc5       ?composeDeclaration@UnDecorator@@CA?AVDName@@ABV2@@Z 00572cc5 f i LIBCMT:undname.obj
 0001:001729fb       ?doAccessSpecifiers@UnDecorator@@SAHXZ 005739fb f i LIBCMT:undname.obj
 0001:00172a09       ?doAllocationLanguage@UnDecorator@@SAHXZ 00573a09 f i LIBCMT:undname.obj
 0001:00172a17       ?doAllocationModel@UnDecorator@@SAHXZ 00573a17 f i LIBCMT:undname.obj
 0001:00172a25       ?doEcsu@UnDecorator@@SAHXZ 00573a25 f i LIBCMT:undname.obj
 0001:00172a33       ?doEllipsis@UnDecorator@@SAHXZ 00573a33 f i LIBCMT:undname.obj
 0001:00172a41       ?doFunctionReturns@UnDecorator@@SAHXZ 00573a41 f i LIBCMT:undname.obj
 0001:00172a4f       ?doMSKeywords@UnDecorator@@SAHXZ 00573a4f f i LIBCMT:undname.obj
 0001:00172a5c       ?doMemberTypes@UnDecorator@@SAHXZ 00573a5c f i LIBCMT:undname.obj
 0001:00172a6a       ?doNameOnly@UnDecorator@@SAHXZ 00573a6a f i LIBCMT:undname.obj
 0001:00172a75       ?doNoIdentCharCheck@UnDecorator@@SAHXZ 00573a75 f i LIBCMT:undname.obj
 0001:00172a80       ?doPchar@DName@@AAEXPBDH@Z 00573a80 f   LIBCMT:undname.obj
 0001:00172b08       ?doPtr64@UnDecorator@@SAHXZ 00573b08 f i LIBCMT:undname.obj
 0001:00172b16       ?doRestrictionSpec@UnDecorator@@SAHXZ 00573b16 f i LIBCMT:undname.obj
 0001:00172b24       ?doThisTypes@UnDecorator@@SAHXZ 00573b24 f i LIBCMT:undname.obj
 0001:00172b36       ?doThrowTypes@UnDecorator@@SAHXZ 00573b36 f i LIBCMT:undname.obj
 0001:00172b44       ?doTypeOnly@UnDecorator@@SAHXZ 00573b44 f i LIBCMT:undname.obj
 0001:00172b4f       ?doUnderScore@UnDecorator@@SAHXZ 00573b4f f i LIBCMT:undname.obj
 0001:00172b5a       ?getArgumentList@UnDecorator@@CA?AVDName@@XZ 00573b5a f   LIBCMT:undname.obj
 0001:00172c66       ?getArgumentTypes@UnDecorator@@CA?AVDName@@XZ 00573c66 f   LIBCMT:undname.obj
 0001:00172d44       ?getArrayType@UnDecorator@@CA?AVDName@@ABV2@@Z 00573d44 f i LIBCMT:undname.obj
 0001:00172f46       ?getBasedType@UnDecorator@@CA?AVDName@@XZ 00573f46 f   LIBCMT:undname.obj
 0001:00172fdd       ?getBasicDataType@UnDecorator@@CA?AVDName@@ABV2@@Z 00573fdd f   LIBCMT:undname.obj
 0001:001733b4       ?getCallIndex@UnDecorator@@CA?AVDName@@XZ 005743b4 f i LIBCMT:undname.obj
 0001:001733c8       ?getCallingConvention@UnDecorator@@CA?AVDName@@XZ 005743c8 f   LIBCMT:undname.obj
 0001:00173487       ?getDataIndirectType@UnDecorator@@CA?AVDName@@ABV2@PBD0H@Z 00574487 f   LIBCMT:undname.obj
 0001:00173a24       ?getDataIndirectType@UnDecorator@@CA?AVDName@@XZ 00574a24 f i LIBCMT:undname.obj
 0001:00173a5d       ?getDataType@UnDecorator@@CA?AVDName@@PAV2@@Z 00574a5d f   LIBCMT:undname.obj
 0001:00173b2f       ?getDecoratedName@UnDecorator@@CA?AVDName@@XZ 00574b2f f   LIBCMT:undname.obj
 0001:00173d7b       ?getDimension@UnDecorator@@CA?AVDName@@_N@Z 00574d7b f   LIBCMT:undname.obj
 0001:00173eb2       ?getDispatchTarget@UnDecorator@@CA?AVDName@@XZ 00574eb2 f   LIBCMT:undname.obj
 0001:00173f0d       ?getDisplacement@UnDecorator@@CA?AVDName@@XZ 00574f0d f i LIBCMT:undname.obj
 0001:00173f21       ?getECSUDataType@UnDecorator@@CA?AVDName@@XZ 00574f21 f   LIBCMT:undname.obj
 0001:00174034       ?getECSUName@UnDecorator@@CA?AVDName@@XZ 00575034 f i LIBCMT:undname.obj
 0001:00174045       ?getEnumType@UnDecorator@@CA?AVDName@@XZ 00575045 f i LIBCMT:undname.obj
 0001:00174129       ?getExtendedDataIndirectType@UnDecorator@@CA?AVDName@@AAPBDAA_NH@Z 00575129 f   LIBCMT:undname.obj
 0001:001742ce       ?getExternalDataType@UnDecorator@@CA?AVDName@@ABV2@@Z 005752ce f i LIBCMT:undname.obj
 0001:00174347       ?getFunctionIndirectType@UnDecorator@@CA?AVDName@@ABV2@@Z 00575347 f   LIBCMT:undname.obj
 0001:0017473d       ?getGuardNumber@UnDecorator@@CA?AVDName@@XZ 0057573d f i LIBCMT:undname.obj
 0001:00174751       ?getLastChar@DName@@QBEDXZ 00575751 f i LIBCMT:undname.obj
 0001:0017475f       ?getLastChar@DNameStatusNode@@UBEDXZ 0057575f f i LIBCMT:undname.obj
 0001:0017476b       ?getLastChar@charNode@@UBEDXZ 0057576b f i LIBCMT:undname.obj
 0001:0017476f       ?getLastChar@pDNameNode@@UBEDXZ 0057576f f i LIBCMT:undname.obj
 0001:00174784       ?getLastChar@pairNode@@UBEDXZ 00575784 f i LIBCMT:undname.obj
 0001:0017479e       ?getLastChar@pcharNode@@UBEDXZ 0057579e f i LIBCMT:undname.obj
 0001:001747b0       ?getLexicalFrame@UnDecorator@@CA?AVDName@@XZ 005757b0 f i LIBCMT:undname.obj
 0001:001747ed       ?getMemory@_HeapManager@@QAEPAXIH@Z 005757ed f   LIBCMT:undname.obj
 0001:00174872       ?getNumberOfDimensions@UnDecorator@@CAHXZ 00575872 f   LIBCMT:undname.obj
 0001:001748d3       ?getOperatorName@UnDecorator@@CA?AVDName@@_NPA_N@Z 005758d3 f i LIBCMT:undname.obj
 0001:00174ead       ?getPointerType@UnDecorator@@CA?AVDName@@ABV2@0@Z 00575ead f i LIBCMT:undname.obj
 0001:00174ecb       ?getPointerTypeArray@UnDecorator@@CA?AVDName@@ABV2@0@Z 00575ecb f i LIBCMT:undname.obj
 0001:00174ee9       ?getPrimaryDataType@UnDecorator@@CA?AVDName@@ABV2@@Z 00575ee9 f   LIBCMT:undname.obj
 0001:001750a1       ?getPtrRefDataType@UnDecorator@@CA?AVDName@@ABV2@H@Z 005760a1 f i LIBCMT:undname.obj
 0001:0017518b       ?getPtrRefType@UnDecorator@@CA?AVDName@@ABV2@0PBD@Z 0057618b f   LIBCMT:undname.obj
 0001:00175287       ?getReferenceType@UnDecorator@@CA?AVDName@@ABV2@0PBD@Z 00576287 f i LIBCMT:undname.obj
 0001:001752a3       ?getRestrictionSpec@UnDecorator@@CA?AVDName@@XZ 005762a3 f   LIBCMT:undname.obj
 0001:00175391       ?getReturnType@UnDecorator@@CA?AVDName@@PAV2@@Z 00576391 f   LIBCMT:undname.obj
 0001:001753c0       ?getScope@UnDecorator@@CA?AVDName@@XZ 005763c0 f   LIBCMT:undname.obj
 0001:00175797       ?getScopedName@UnDecorator@@CA?AVDName@@XZ 00576797 f   LIBCMT:undname.obj
 0001:00175892       ?getSignedDimension@UnDecorator@@CA?AVDName@@XZ 00576892 f   LIBCMT:undname.obj
 0001:001758e5       ?getStorageConvention@UnDecorator@@CA?AVDName@@XZ 005768e5 f i LIBCMT:undname.obj
 0001:001758f6       ?getString@DName@@QBEPADPAD0@Z 005768f6 f i LIBCMT:undname.obj
 0001:0017590c       ?getString@DName@@QBEPADPADH@Z 0057690c f i LIBCMT:undname.obj
 0001:0017596a       ?getString@DNameStatusNode@@UBEPADPAD0@Z 0057696a f i LIBCMT:undname.obj
 0001:00175991       ?getString@charNode@@UBEPADPAD0@Z 00576991 f i LIBCMT:undname.obj
 0001:001759a6       ?getString@pDNameNode@@UBEPADPAD0@Z 005769a6 f i LIBCMT:undname.obj
 0001:001759c3       ?getString@pairNode@@UBEPADPAD0@Z 005769c3 f i LIBCMT:undname.obj
 0001:001759ed       ?getString@pcharNode@@UBEPADPAD0@Z 005769ed f i LIBCMT:undname.obj
 0001:00175a08       ?getStringEncoding@UnDecorator@@CA?AVDName@@PADH@Z 00576a08 f   LIBCMT:undname.obj
 0001:00175aab       ?getStringHelper@@YAPADPAD00H@Z 00576aab f i LIBCMT:undname.obj
 0001:00175ae0       ?getSymbolName@UnDecorator@@CA?AVDName@@XZ 00576ae0 f i LIBCMT:undname.obj
 0001:00175b28       ?getTemplateArgumentList@UnDecorator@@CA?AVDName@@XZ 00576b28 f   LIBCMT:undname.obj
 0001:00175da1       ?getTemplateConstant@UnDecorator@@CA?AVDName@@XZ 00576da1 f   LIBCMT:undname.obj
 0001:0017609c       ?getTemplateName@UnDecorator@@CA?AVDName@@_N@Z 0057709c f   LIBCMT:undname.obj
 0001:001761f6       ?getThisType@UnDecorator@@CA?AVDName@@XZ 005771f6 f i LIBCMT:undname.obj
 0001:00176230       ?getThrowTypes@UnDecorator@@CA?AVDName@@XZ 00577230 f   LIBCMT:undname.obj
 0001:001762ba       ?getTypeEncoding@UnDecorator@@CAHXZ 005772ba f i LIBCMT:undname.obj
 0001:001767aa       ?getVCallThunkType@UnDecorator@@CA?AVDName@@XZ 005777aa f i LIBCMT:undname.obj
 0001:001767e5       ?getVbTableType@UnDecorator@@CA?AVDName@@ABV2@@Z 005777e5 f i LIBCMT:undname.obj
 0001:001767fa       ?getVdispMapType@UnDecorator@@CA?AVDName@@ABV2@@Z 005777fa f i LIBCMT:undname.obj
 0001:00176850       ?getVfTableType@UnDecorator@@CA?AVDName@@ABV2@@Z 00577850 f i LIBCMT:undname.obj
 0001:001769b5       ?getZName@UnDecorator@@CA?AVDName@@_N0@Z 005779b5 f   LIBCMT:undname.obj
 0001:00176bdf       ?haveTemplateParameters@UnDecorator@@SAHXZ 00577bdf f i LIBCMT:undname.obj
 0001:00176bea       ?isArray@DName@@QBEHXZ     00577bea f i LIBCMT:undname.obj
 0001:00176bf4       ?isComArray@DName@@QBEHXZ  00577bf4 f i LIBCMT:undname.obj
 0001:00176bfe       ?isEmpty@DName@@QBEHXZ     00577bfe f i LIBCMT:undname.obj
 0001:00176c06       ?isFull@Replicator@@QBEHXZ 00577c06 f i LIBCMT:undname.obj
 0001:00176c0f       ?isNoTE@DName@@QBEHXZ      00577c0f f i LIBCMT:undname.obj
 0001:00176c19       ?isPinPtr@DName@@QBEHXZ    00577c19 f i LIBCMT:undname.obj
 0001:00176c23       ?isPtrRef@DName@@QBEHXZ    00577c23 f i LIBCMT:undname.obj
 0001:00176c2d       ?isUDC@DName@@QBEHXZ       00577c2d f i LIBCMT:undname.obj
 0001:00176c3e       ?isUDTThunk@DName@@QBEHXZ  00577c3e f i LIBCMT:undname.obj
 0001:00176c4f       ?isVCallThunk@DName@@QBEHXZ 00577c4f f i LIBCMT:undname.obj
 0001:00176c59       ?isValid@DName@@QBEHXZ     00577c59 f i LIBCMT:undname.obj
 0001:00176c63       ?length@DName@@QBEHXZ      00577c63 f i LIBCMT:undname.obj
 0001:00176c70       ?length@DNameStatusNode@@UBEHXZ 00577c70 f i LIBCMT:undname.obj
 0001:00176c74       ?length@charNode@@UBEHXZ   00577c74 f i LIBCMT:undname.obj
 0001:00176c78       ?length@pDNameNode@@UBEHXZ 00577c78 f i LIBCMT:undname.obj
 0001:00176c8c       ?length@pairNode@@UBEHXZ   00577c8c f i LIBCMT:undname.obj
 0001:00176cb5       ?length@pcharNode@@UBEHXZ  00577cb5 f i LIBCMT:undname.obj
 0001:00176cb9       ?make@DNameStatusNode@@SAPAV1@W4DNameStatus@@@Z 00577cb9 f i LIBCMT:undname.obj
 0001:00176d3f       ?setIsArray@DName@@QAEXXZ  00577d3f f i LIBCMT:undname.obj
 0001:00176d47       ?setIsComArray@DName@@QAEXXZ 00577d47 f i LIBCMT:undname.obj
 0001:00176d4f       ?setIsNoTE@DName@@QAEXXZ   00577d4f f i LIBCMT:undname.obj
 0001:00176d57       ?setIsPinPtr@DName@@QAEXXZ 00577d57 f i LIBCMT:undname.obj
 0001:00176d5f       ?setIsUDC@DName@@QAEXXZ    00577d5f f i LIBCMT:undname.obj
 0001:00176d6c       ?setIsVCallThunk@DName@@QAEXXZ 00577d6c f i LIBCMT:undname.obj
 0001:00176d74       ?setPtrRef@DName@@QAEAAV1@XZ 00577d74 f i LIBCMT:undname.obj
 0001:00176d7e       ?status@DName@@QBE?AW4DNameStatus@@XZ 00577d7e f i LIBCMT:undname.obj
 0001:00176de6       ___unDName                 00577de6 f   LIBCMT:undname.obj
 0001:00176e89       ___unDNameEx               00577e89 f   LIBCMT:undname.obj
 0001:00176f2a       __isatty                   00577f2a f   LIBCMT:isatty.obj
 0001:00176f7e       ___lock_fhandle            00577f7e f   LIBCMT:osfinfo.obj
 0001:0017700c       __alloc_osfhnd             0057800c f   LIBCMT:osfinfo.obj
 0001:001771b5       __free_osfhnd              005781b5 f   LIBCMT:osfinfo.obj
 0001:0017723b       __get_osfhandle            0057823b f   LIBCMT:osfinfo.obj
 0001:001772a2       __open_osfhandle           005782a2 f   LIBCMT:osfinfo.obj
 0001:001773b8       __set_osfhnd               005783b8 f   LIBCMT:osfinfo.obj
 0001:0017743a       __unlock_fhandle           0057843a f   LIBCMT:osfinfo.obj
 0001:00177460       __wctomb_l                 00578460 f   LIBCMT:wctomb.obj
 0001:001774af       __wctomb_s_l               005784af f   LIBCMT:wctomb.obj
 0001:001775d3       _wctomb                    005785d3 f   LIBCMT:wctomb.obj
 0001:00177606       _wctomb_s                  00578606 f   LIBCMT:wctomb.obj
 0001:00177630       __aulldvrm                 00578630 f   LIBCMT:ulldvrm.obj
 0001:001776c5       _wcsncpy_s                 005786c5 f   LIBCMT:wcsncpy_s.obj
 0001:0017787b       ___crtGetStringTypeA       0057887b f   LIBCMT:a_str.obj
 0001:001778bb       __mbsnbcmp                 005788bb f   LIBCMT:mbsnbcmp.obj
 0001:001778d3       __mbsnbcmp_l               005788d3 f   LIBCMT:mbsnbcmp.obj
 0001:001779ea       __mbsnbicmp                005789ea f   LIBCMT:mbsnbicm.obj
 0001:00177a02       __mbsnbicmp_l              00578a02 f   LIBCMT:mbsnbicm.obj
 0001:00177bbd       __mbtowc_l                 00578bbd f   LIBCMT:mbtowc.obj
 0001:00177cb2       _mbtowc                    00578cb2 f   LIBCMT:mbtowc.obj
 0001:00177cca       __putwch                   00578cca f   LIBCMT:putwch.obj
 0001:00177d16       __putwch_nolock            00578d16 f   LIBCMT:putwch.obj
 0001:00177d59       __dospawn                  00578d59 f   LIBCMT:dospawn.obj
 0001:00177f71       __cenvarg                  00578f71 f   LIBCMT:cenvarg.obj
 0001:00178338       __mbschr                   00579338 f   LIBCMT:mbschr.obj
 0001:0017834d       __mbschr_l                 0057934d f   LIBCMT:mbschr.obj
 0001:001783ea       __getpath                  005793ea f   LIBCMT:getpath.obj
 0001:00178475       __waccess                  00579475 f   LIBCMT:waccess.obj
 0001:0017848b       __waccess_s                0057948b f   LIBCMT:waccess.obj
 0001:00178529       _strnlen                   00579529 f   LIBCMT:strlen_s.obj
 0001:00178544       ___wtomb_environ           00579544 f   LIBCMT:wtombenv.obj
 0001:001785d3       __mbsnbicoll               005795d3 f   LIBCMT:mbsnbico.obj
 0001:001785eb       __mbsnbicoll_l             005795eb f   LIBCMT:mbsnbico.obj
 0001:001786a1       ____lc_codepage_func       005796a1 f   LIBCMT:initctyp.obj
 0001:001786c7       ____lc_collate_cp_func     005796c7 f   LIBCMT:initctyp.obj
 0001:001786ed       ____lc_locale_name_func    005796ed f   LIBCMT:initctyp.obj
 0001:00178715       ____mb_cur_max_func        00579715 f   LIBCMT:initctyp.obj
 0001:0017873b       ____mb_cur_max_l_func      0057973b f   LIBCMT:initctyp.obj
 0001:00178752       ___init_ctype              00579752 f   LIBCMT:initctyp.obj
 0001:00178af0       __CIlog_pentium4           00579af0 f   LIBCMT:log_pentium4.obj
 0001:00178b08       __log_pentium4             00579b08     LIBCMT:log_pentium4.obj
 0001:00178d60       __vfwprintf_l              00579d60 f   LIBCMT:vfwprint.obj
 0001:00178d7e       __vfwprintf_p              00579d7e f   LIBCMT:vfwprint.obj
 0001:00178d9b       __vfwprintf_p_l            00579d9b f   LIBCMT:vfwprint.obj
 0001:00178db9       __vfwprintf_s_l            00579db9 f   LIBCMT:vfwprint.obj
 0001:00178dd7       _vfwprintf                 00579dd7 f   LIBCMT:vfwprint.obj
 0001:00178df4       _vfwprintf_helper          00579df4 f   LIBCMT:vfwprint.obj
 0001:00178e87       _vfwprintf_s               00579e87 f   LIBCMT:vfwprint.obj
 0001:00178ea4       __woutput_l                00579ea4 f   LIBCMT:woutput.obj
 0001:00179b83       __woutput_s_l              0057ab83 f   LIBCMT:woutputs.obj
 0001:0017a89a       __validate_param_reuseW    0057b89a f   LIBCMT:woutputp.obj
 0001:0017aa12       __woutput_p_l              0057ba12 f   LIBCMT:woutputp.obj
 0001:0017bde1       ___free_lconv_mon          0057cde1 f   LIBCMT:initmon.obj
 0001:0017bedd       ___init_monetary           0057cedd f   LIBCMT:initmon.obj
 0001:0017c2b6       ___free_lconv_num          0057d2b6 f   LIBCMT:initnum.obj
 0001:0017c31d       ___init_numeric            0057d31d f   LIBCMT:initnum.obj
 0001:0017c55b       ___free_lc_time            0057d55b f   LIBCMT:inittime.obj
 0001:0017c8db       ___init_time               0057d8db f   LIBCMT:inittime.obj
 0001:0017d14a       _localeconv                0057e14a f   LIBCMT:lconv.obj
 0001:0017d170       ___pctype_func             0057e170 f   LIBCMT:ctype.obj
 0001:0017d199       ___pwctype_func            0057e199 f   LIBCMT:ctype.obj
 0001:0017d19f       ___init_collate            0057e19f f   LIBCMT:initcoll.obj
 0001:0017d2bf       _memcmp                    0057e2bf f   LIBCMT:memcmp.obj
 0001:001801d3       _wcscmp                    005811d3 f   LIBCMT:wcscmp.obj
 0001:00180211       _wcscspn                   00581211 f   LIBCMT:wcscspn.obj
 0001:0018025c       _wcsnlen                   0058125c f   LIBCMT:wcslen_s.obj
 0001:0018027b       _wcsncmp                   0058127b f   LIBCMT:wcsncmp.obj
 0001:001802b1       _wcspbrk                   005812b1 f   LIBCMT:wcspbrk.obj
 0001:001808b5       ___get_qualified_locale    005818b5 f   LIBCMT:getqloc.obj
